 proj3_slrt

 Timestamp is 5bc797b3 (Wed Oct 17 16:12:35 2018)

 Preferred load address is 10000000

 Start         Length     Name                   Class
 0001:00000000 000634b8H .text$mn                CODE
 0002:00000000 00000104H .CRT$XCA                DATA
 0002:00000104 00000104H .CRT$XCZ                DATA
 0002:00000208 00000104H .CRT$XIA                DATA
 0002:0000030c 00000110H .CRT$XIC                DATA
 0002:0000041c 00000104H .CRT$XIZ                DATA
 0002:00000520 00000104H .CRT$XPA                DATA
 0002:00000624 0000010cH .CRT$XPX                DATA
 0002:00000730 00000104H .CRT$XPXA               DATA
 0002:00000834 00000104H .CRT$XPZ                DATA
 0002:00000938 00000104H .CRT$XTA                DATA
 0002:00000a3c 00000104H .CRT$XTZ                DATA
 0002:00000b40 0000e284H .rdata                  DATA
 0002:0000edc4 0000038cH .rdata$r                DATA
 0002:0000f150 00000110H .rdata$sxdata           DATA
 0002:0000f260 000001ecH .rdata$zzzdbg           DATA
 0002:0000f44c 00000104H .rtc$IAA                DATA
 0002:0000f550 00000104H .rtc$IZZ                DATA
 0002:0000f654 00000104H .rtc$TAA                DATA
 0002:0000f758 00000108H .rtc$TZZ                DATA
 0002:0000f860 00000ac0H .xdata$x                DATA
 0002:00010320 000001fdH .edata                  DATA
 0003:00000000 00001344H .data                   DATA
 0003:00001344 000001dcH .data$r                 DATA
 0003:00001520 00014308H .bss                    DATA
 0004:00000000 000001d4H .idata$5                DATA
 0004:000001d4 00000014H .idata$2                DATA
 0004:000001e8 00000014H .idata$3                DATA
 0004:000001fc 000001d4H .idata$4                DATA
 0004:000003d0 00000843H .idata$6                DATA
 0005:00000000 00000224H .gfids$x                DATA
 0005:00000224 000001a5H .gfids$y                DATA
 0006:00000000 00000104H .00cfg                  DATA

  Address         Publics by Value              Rva+Base       Lib:Object

 0000:00000000       ___dynamic_value_reloc_table 00000000     <absolute>
 0000:00000000       ___guard_longjmp_count     00000000     <absolute>
 0000:00000000       ___guard_iat_count         00000000     <absolute>
 0000:00000000       ___guard_fids_count        00000000     <absolute>
 0000:00000000       ___guard_iat_table         00000000     <absolute>
 0000:00000000       ___guard_fids_table        00000000     <absolute>
 0000:00000000       __except_list              00000000     <absolute>
 0000:00000000       ___guard_longjmp_table     00000000     <absolute>
 0000:00000003       ___safe_se_handler_count   00000003     <absolute>
 0000:00000100       ___guard_flags             00000100     <absolute>
 0000:00000000       ___ImageBase               10000000     <linker-defined>
 0001:00005fa0       _MdlInitialize             10006fa0 f   proj3.obj
 0001:00005fb0       _MdlInitializeSampleTimes  10006fb0 f   proj3.obj
 0001:00005fc0       _MdlInitializeSizes        10006fc0 f   proj3.obj
 0001:00005fd0       _MdlOutputs                10006fd0 f   proj3.obj
 0001:00005fe0       _MdlStart                  10006fe0 f   proj3.obj
 0001:00005ff0       _MdlTerminate              10006ff0 f   proj3.obj
 0001:00006020       _MdlUpdate                 10007020 f   proj3.obj
 0001:00006030       ___local_stdio_printf_options 10007030 f i proj3.obj
 0001:00006040       __vfprintf_l               10007040 f i proj3.obj
 0001:00006070       _printf                    10007070 f i proj3.obj
 0001:000060b0       _proj3                     100070b0 f   proj3.obj
 0001:00006bb0       _proj3_derivatives         10007bb0 f   proj3.obj
 0001:00006c00       _proj3_initialize          10007c00 f   proj3.obj
 0001:000074b0       _proj3_output              100084b0 f   proj3.obj
 0001:00007a20       _proj3_terminate           10008a20 f   proj3.obj
 0001:00007a50       _proj3_update              10008a50 f   proj3.obj
 0001:00007ba0       _rt_ODECreateIntegrationData 10008ba0 f   proj3.obj
 0001:00007bb0       _rt_ODEDestroyIntegrationData 10008bb0 f   proj3.obj
 0001:00007bc0       _rt_ODEUpdateContinuousStates 10008bc0 f   proj3.obj
 0001:00007fe0       _rt_mxCreateCharMatrixFromStrings 10008fe0 f   rt_matrx.obj
 0001:00008140       _rt_mxCreateDoubleMatrix   10009140 f   rt_matrx.obj
 0001:000081a0       _rt_mxCreateNumericArray   100091a0 f   rt_matrx.obj
 0001:00008220       _rt_mxCreateString         10009220 f   rt_matrx.obj
 0001:000082b0       _rt_mxDuplicateArray       100092b0 f   rt_matrx.obj
 0001:00008310       _rt_mxGetDimensions        10009310 f   rt_matrx.obj
 0001:00008350       _rt_mxGetEps               10009350 f   rt_matrx.obj
 0001:00008360       _rt_mxGetString            10009360 f   rt_matrx.obj
 0001:000083e0       _rtPrintfNoOp              100093e0 f   rt_printf.obj
 0001:000083f0       __vsnprintf_l              100093f0 f i rt_logging.obj
 0001:00008430       __vsprintf_l               10009430 f i rt_logging.obj
 0001:00008470       _fprintf                   10009470 f i rt_logging.obj
 0001:00008d80       _rt_CreateLogVar           10009d80 f   rt_logging.obj
 0001:00008e10       _rt_CreateLogVarWithConvert 10009e10 f   rt_logging.obj
 0001:00009790       _rt_CreateStructLogVar     1000a790 f   rt_logging.obj
 0001:0000a4f0       _rt_GetMxIdFromDTypeId     1000b4f0 f   rt_logging.obj
 0001:0000a520       _rt_GetMxIdFromDTypeIdForRSim 1000b520 f   rt_logging.obj
 0001:0000ce00       _rt_StartDataLogging       1000de00 f   rt_logging.obj
 0001:0000d2c0       _rt_StartDataLoggingWithStartTime 1000e2c0 f   rt_logging.obj
 0001:0000dc20       _rt_StopDataLogging        1000ec20 f   rt_logging.obj
 0001:0000dc40       _rt_StopDataLoggingImpl    1000ec40 f   rt_logging.obj
 0001:0000df70       _rt_UpdateLogVar           1000ef70 f   rt_logging.obj
 0001:0000f090       _rt_UpdateStructLogVar     10010090 f   rt_logging.obj
 0001:0000f120       _rt_UpdateTXXFYLogVars     10010120 f   rt_logging.obj
 0001:0000f580       _rt_UpdateTXYLogVars       10010580 f   rt_logging.obj
 0001:0000f7d0       _rt_getTempMemory          100107d0 f   rt_logging.obj
 0001:0000f820       _sprintf                   10010820 f i rt_logging.obj
 0001:0000f860       _proj3_GetCAPIStaticMap    10010860 f   proj3_capi.obj
 0001:0000f870       _proj3_InitializeDataMapInfo 10010870 f   proj3_capi.obj
 0001:0000f940       _mdlXcp_GetMdlXcpInfo      10010940 f   proj3_xcp.obj
 0001:0000f950       _SLRT_update_TET           10010950 f   proj3_xcp_TET.obj
 0001:0000fa20       _rtGetInf                  10010a20 f   rtGetInf.obj
 0001:0000fa50       _rtGetInfF                 10010a50 f   rtGetInf.obj
 0001:0000fa70       _rtGetMinusInf             10010a70 f   rtGetInf.obj
 0001:0000faa0       _rtGetMinusInfF            10010aa0 f   rtGetInf.obj
 0001:0000fac0       _rtGetNaN                  10010ac0 f   rtGetNaN.obj
 0001:0000faf0       _rtGetNaNF                 10010af0 f   rtGetNaN.obj
 0001:0000fb10       _rtIsInf                   10010b10 f   rt_nonfinite.obj
 0001:0000fb50       _rtIsInfF                  10010b50 f   rt_nonfinite.obj
 0001:0000fb90       _rtIsNaN                   10010b90 f   rt_nonfinite.obj
 0001:0000fbb0       _rtIsNaNF                  10010bb0 f   rt_nonfinite.obj
 0001:0000fbd0       _rt_InitInfAndNaN          10010bd0 f   rt_nonfinite.obj
 0001:0000fc30       _rt_CleanUpForStateLogWithMMI 10010c30 f   rt_logging_mmi.obj
 0001:0000fd40       _rt_FillStateSigInfoFromMMI 10010d40 f   rt_logging_mmi.obj
 0001:000100e0       _rtwCAPI_CountSysRan       100110e0 f   rtw_modelmap_utils.obj
 0001:00010180       _rtwCAPI_EncodePath        10011180 f   rtw_modelmap_utils.obj
 0001:00010280       _rtwCAPI_FillSysRan        10011280 f   rtw_modelmap_utils.obj
 0001:00010370       _rtwCAPI_FreeFullPaths     10011370 f   rtw_modelmap_utils.obj
 0001:00010400       _rtwCAPI_GetFullStateBlockPath 10011400 f   rtw_modelmap_utils.obj
 0001:000105b0       _rtwCAPI_GetNumContStateRecords 100115b0 f   rtw_modelmap_utils.obj
 0001:00010670       _rtwCAPI_GetNumSigLogRecords 10011670 f   rtw_modelmap_utils.obj
 0001:000106c0       _rtwCAPI_GetNumSigLogRecordsForRTWLogging 100116c0 f   rtw_modelmap_utils.obj
 0001:00010760       _rtwCAPI_GetNumStateRecords 10011760 f   rtw_modelmap_utils.obj
 0001:000107b0       _rtwCAPI_GetNumStateRecordsForRTWLogging 100117b0 f   rtw_modelmap_utils.obj
 0001:00010850       _rtwCAPI_GetSigAddrFromMap 10011850 f   rtw_modelmap_utils.obj
 0001:00010910       _rtwCAPI_GetSigLogRecordInfo 10011910 f   rtw_modelmap_utils.obj
 0001:00010d40       _rtwCAPI_GetStateRecordInfo 10011d40 f   rtw_modelmap_utils.obj
 0001:000111f0       _rtwCAPI_GetStateWidth     100121f0 f   rtw_modelmap_utils.obj
 0001:00011250       _rtwCAPI_HasStates         10012250 f   rtw_modelmap_utils.obj
 0001:000112c0       _rtwCAPI_UpdateFullPaths   100122c0 f   rtw_modelmap_utils.obj
 0001:000114a0       _timestamp_x86             100124a0 f   host_timer_x86.obj
 0001:000114b0       _taskTimeEnd               100124b0 f   xpc_code_profiling_utility_functions.obj
 0001:000114c0       _taskTimeEnd_              100124c0 f   xpc_code_profiling_utility_functions.obj
 0001:000114d0       _taskTimeStart             100124d0 f   xpc_code_profiling_utility_functions.obj
 0001:000114e0       _taskTimeStart_            100124e0 f   xpc_code_profiling_utility_functions.obj
 0001:000114f0       _xilProfilingTimerFreeze   100124f0 f   xpc_code_profiling_utility_functions.obj
 0001:00011500       _xilProfilingTimerUnFreeze 10012500 f   xpc_code_profiling_utility_functions.obj
 0001:00011510       _xilUploadProfilingData    10012510 f   xpc_code_profiling_utility_functions.obj
 0001:00011520       _DllMain@12                10012520 f   xpctarget.obj
 0001:00011530       _SLRTSetErrorStatus        10012530 f   xpctarget.obj
 0001:00011550       _changeStepSize            10012550 f   xpctarget.obj
 0001:000115c0       _getDLMVersion             100125c0 f   xpctarget.obj
 0001:000115d0       _getRefMdlPath             100125d0 f   xpctarget.obj
 0001:00011650       _getRefMdlSignalNumber     10012650 f   xpctarget.obj
 0001:00011700       _getrlmdlinfo              10012700 f   xpctarget.obj
 0001:00011860       _proj3_ChangeStepSize      10012860 f   xpctarget.obj
 0001:000118d0       _updateDiscreteEvents      100128d0 f   xpctarget.obj
 0001:000118e0       _getNumRef                 100128e0 f   appmappingData.obj
 0001:000118f0       _vprintf                   100128f0 f i legacy_stdio.obj
 0001:00011930       _daquanserq8               10012930 f   daquanserq8.obj
 0001:000122a0       _encquanserq8              100132a0 f   encquanserq8.obj
 0001:00012de0       _GetPCIDeviceFull          10013de0 f   xpcruntime:xpcimports.obj
 0001:00012e30       _GetPCIDeviceFunction      10013e30 f   xpcruntime:xpcimports.obj
 0001:00012e70       _ShowPCIDevice             10013e70 f   xpcruntime:xpcimports.obj
 0001:000134a0       _slrtGetPciConfigAtFunction 100144a0 f   xpcruntime:xpcimports.obj
 0001:00013810       _xpcGetPciConfigAtSlot     10014810 f   xpcruntime:xpcimports.obj
 0001:00013830       _xpcInitProcs              10014830 f   xpcruntime:xpcimports.obj
 0001:00014d60       _xpceuploadevent           10015d60 f   xpcruntime:xpcimports.obj
 0001:00014d70       __ftoui3                   10015d70 f   LIBCMT:_ftol3_.obj
 0001:00014d7f       __ftoul3                   10015d7f f   LIBCMT:_ftol3_.obj
 0001:00014d8e       __ftol3                    10015d8e f   LIBCMT:_ftol3_.obj
 0001:00014d9b       __ftol3_NaN                10015d9b f   LIBCMT:_ftol3_.obj
 0001:00014db3       __ftol3_work               10015db3 f   LIBCMT:_ftol3_.obj
 0001:00014e39       __ftol3_common             10015e39 f   LIBCMT:_ftol3_.obj
 0001:00014efb       __ftol3_arg_error          10015efb f   LIBCMT:_ftol3_.obj
 0001:00014f0d       __ftol3_except             10015f0d f   LIBCMT:_ftol3_.obj
 0001:00014f51       __dtoui3                   10015f51 f   LIBCMT:_ftol3_.obj
 0001:00014f60       __dtoul3                   10015f60 f   LIBCMT:_ftol3_.obj
 0001:00014f6f       __dtol3                    10015f6f f   LIBCMT:_ftol3_.obj
 0001:00014f7c       __dtol3_NaN                10015f7c f   LIBCMT:_ftol3_.obj
 0001:00014f99       __dtol3_work               10015f99 f   LIBCMT:_ftol3_.obj
 0001:00015080       __ultod3                   10016080 f   LIBCMT:_ftol3_.obj
 0001:000150c0       __ltod3                    100160c0 f   LIBCMT:_ftol3_.obj
 0001:000151c4       ___raise_securityfailure   100161c4 f   LIBCMT:gs_report.obj
 0001:000151f6       ___report_gsfailure        100161f6 f   LIBCMT:gs_report.obj
 0001:0001532f       ___report_rangecheckfailure 1001632f f   LIBCMT:gs_report.obj
 0001:0001533e       ___report_securityfailure  1001633e f   LIBCMT:gs_report.obj
 0001:00015442       ___report_securityfailureEx 10016442 f   LIBCMT:gs_report.obj
 0001:0001559d       @__security_check_cookie@4 1001659d f   LIBCMT:_secchk_.obj
 0001:000155b2       ___isa_available_init      100165b2 f   LIBCMT:_cpu_disp_.obj
 0001:00015b7a       __CRT_INIT@12              10016b7a f   LIBCMT:dll_dllmain.obj
 0001:00015b85       __DllMainCRTStartup@12     10016b85 f   LIBCMT:dll_dllmain.obj
 0001:00015bb0       ??$__crt_fast_decode_pointer@PAP6AXXZ@@YAPAP6AXXZQAP6AXXZ@Z 10016bb0 f i LIBCMT:utility.obj
 0001:00015bc9       ??$__crt_fast_encode_pointer@PAP6AXXZ@@YAPAP6AXXZQAP6AXXZ@Z 10016bc9 f i LIBCMT:utility.obj
 0001:00015bed       ?__crt_rotate_pointer_value@@YAIIH@Z 10016bed f i LIBCMT:utility.obj
 0001:00015bfd       ?configure_argv@__scrt_narrow_argv_policy@@SAHXZ 10016bfd f i LIBCMT:utility.obj
 0001:00015ca1       _NtCurrentTeb              10016ca1 f i LIBCMT:utility.obj
 0001:00015ca8       ___scrt_acquire_startup_lock 10016ca8 f   LIBCMT:utility.obj
 0001:00015cea       ___scrt_dllmain_after_initialize_c 10016cea f   LIBCMT:utility.obj
 0001:00015d1f       ___scrt_dllmain_before_initialize_c 10016d1f f   LIBCMT:utility.obj
 0001:00015d30       ___scrt_dllmain_crt_thread_attach 10016d30 f   LIBCMT:utility.obj
 0001:00015d56       ___scrt_dllmain_crt_thread_detach 10016d56 f   LIBCMT:utility.obj
 0001:00015d66       ___scrt_dllmain_exception_filter 10016d66 f   LIBCMT:utility.obj
 0001:00015da5       ___scrt_dllmain_uninitialize_c 10016da5 f   LIBCMT:utility.obj
 0001:00015dd0       ___scrt_dllmain_uninitialize_critical 10016dd0 f   LIBCMT:utility.obj
 0001:00015de0       ___scrt_initialize_crt     10016de0 f   LIBCMT:utility.obj
 0001:00015e27       ___scrt_initialize_onexit_tables 10016e27 f   LIBCMT:utility.obj
 0001:00015ee3       ___scrt_is_nonwritable_in_current_image 10016ee3 f   LIBCMT:utility.obj
 0001:00015f8f       ___scrt_release_startup_lock 10016f8f f   LIBCMT:utility.obj
 0001:00015fb3       ___scrt_uninitialize_crt   10016fb3 f   LIBCMT:utility.obj
 0001:00015fe5       __onexit                   10016fe5 f   LIBCMT:utility.obj
 0001:0001602e       _at_quick_exit             1001702e f   LIBCMT:utility.obj
 0001:0001606b       _atexit                    1001706b f   LIBCMT:utility.obj
 0001:00016085       ___security_init_cookie    10017085 f   LIBCMT:gs_support.obj
 0001:00016148       ?__scrt_initialize_type_info@@YAXXZ 10017148 f   LIBCMT:tncleanup.obj
 0001:00016157       ?__scrt_uninitialize_type_info@@YAXXZ 10017157 f   LIBCMT:tncleanup.obj
 0001:00016166       ___local_stdio_scanf_options 10017166 f i LIBCMT:default_local_stdio_options.obj
 0001:0001616c       ___scrt_initialize_default_local_stdio_options 1001716c f   LIBCMT:default_local_stdio_options.obj
 0001:00016190       ___scrt_get_dyn_tls_init_callback 10017190 f   LIBCMT:dyn_tls_init.obj
 0001:00016196       ___scrt_fastfail           10017196 f   LIBCMT:utility_desktop.obj
 0001:000162f7       ___scrt_get_show_window_mode 100172f7 f   LIBCMT:utility_desktop.obj
 0001:00016336       ___scrt_initialize_winrt   10017336 f   LIBCMT:utility_desktop.obj
 0001:00016339       ___scrt_is_managed_app     10017339 f   LIBCMT:utility_desktop.obj
 0001:0001638e       ___scrt_set_unhandled_exception_filter 1001738e f   LIBCMT:utility_desktop.obj
 0001:0001639d       ___scrt_unhandled_exception_filter@4 1001739d f   LIBCMT:utility_desktop.obj
 0001:000163ee       __crt_debugger_hook        100173ee f   LIBCMT:utility_desktop.obj
 0001:000163f8       __RTC_Initialize           100173f8 f   LIBCMT:_initsect_.obj
 0001:0001642d       __RTC_Terminate            1001742d f   LIBCMT:_initsect_.obj
 0001:00016462       @_guard_check_icall@4      10017462 f i LIBCMT:checkcfg.obj
 0001:00016470       __SEH_prolog4              10017470 f   LIBCMT:_sehprolg4_.obj
 0001:000164b6       __SEH_epilog4              100174b6 f   LIBCMT:_sehprolg4_.obj
 0001:000164e1       __get_startup_argv_mode    100174e1 f   LIBCMT:argv_mode.obj
 0001:000164e5       ___scrt_is_ucrt_dll_in_use 100174e5 f   LIBCMT:ucrt_detection.obj
 0001:000164f4       @_guard_check_icall_nop@4  100174f4 f i LIBCMT:guard_support.obj
 0001:000164f5       __guard_icall_checks_enforced 100174f5 f i LIBCMT:guard_support.obj
 0001:0001650c       _GetModuleHandleA@4        1001750c f   kernel32:KERNEL32.dll
 0001:00016512       _GetProcAddress@8          10017512 f   kernel32:KERNEL32.dll
 0001:00016518       _UnhandledExceptionFilter@4 10017518 f   kernel32:KERNEL32.dll
 0001:0001651e       _SetUnhandledExceptionFilter@4 1001751e f   kernel32:KERNEL32.dll
 0001:00016524       _GetCurrentProcess@0       10017524 f   kernel32:KERNEL32.dll
 0001:0001652a       _TerminateProcess@8        1001752a f   kernel32:KERNEL32.dll
 0001:00016530       _IsProcessorFeaturePresent@4 10017530 f   kernel32:KERNEL32.dll
 0001:00016536       _QueryPerformanceCounter@4 10017536 f   kernel32:KERNEL32.dll
 0001:0001653c       _GetCurrentProcessId@0     1001753c f   kernel32:KERNEL32.dll
 0001:00016542       _GetCurrentThreadId@0      10017542 f   kernel32:KERNEL32.dll
 0001:00016548       _GetSystemTimeAsFileTime@4 10017548 f   kernel32:KERNEL32.dll
 0001:0001654e       _InitializeSListHead@4     1001754e f   kernel32:KERNEL32.dll
 0001:00016554       _IsDebuggerPresent@0       10017554 f   kernel32:KERNEL32.dll
 0001:0001655a       _GetStartupInfoW@4         1001755a f   kernel32:KERNEL32.dll
 0001:00016560       _GetModuleHandleW@4        10017560 f   kernel32:KERNEL32.dll
 0001:00016570       _memcpy                    10017570 f   libvcruntime:memcpy.obj
 0001:00016c50       _memset                    10017c50 f   libvcruntime:memset.obj
 0001:00016e00       _memmove                   10017e00 f   libvcruntime:memmove.obj
 0001:000174e0       _strchr                    100184e0 f   libvcruntime:strchr.obj
 0001:0001754e       ___from_strstr_to_strchr   1001854e     libvcruntime:strchr.obj
 0001:000176a0       __except_handler4          100186a0 f   libvcruntime:_chandler4_.obj
 0001:0001785f       ___vcrt_initialize         1001885f f   libvcruntime:initialization.obj
 0001:00017892       ___vcrt_thread_attach      10018892 f   libvcruntime:initialization.obj
 0001:0001789f       ___vcrt_thread_detach      1001889f f   libvcruntime:initialization.obj
 0001:000178ac       ___vcrt_uninitialize       100188ac f   libvcruntime:initialization.obj
 0001:000178d2       ___vcrt_uninitialize_critical 100188d2 f   libvcruntime:initialization.obj
 0001:000178ed       ??$?RD@__crt_internal_free_policy@@QBEXQBD@Z 100188ed f i libvcruntime:std_type_info.obj
 0001:00017901       ??$?RX@__crt_internal_free_policy@@QBEXQBX@Z 10018901 f i libvcruntime:std_type_info.obj
 0001:00017915       ??$__crt_interlocked_compare_exchange_pointer@$$CBD$$T$$T@@YAPBDPDSBD$$T1@Z 10018915 f i libvcruntime:std_type_info.obj
 0001:0001792b       ??$__crt_interlocked_compare_exchange_pointer@$$CBDPAD$$T@@YAPBDPDSBDQAD$$T@Z 1001892b f i libvcruntime:std_type_info.obj
 0001:00017941       ??$__crt_interlocked_read_pointer@$$CBD@@YAPBDPDSBD@Z 10018941 f i libvcruntime:std_type_info.obj
 0001:00017955       ??0?$__crt_unique_heap_ptr@DU__crt_internal_free_policy@@@@QAE@QAD@Z 10018955 f i libvcruntime:std_type_info.obj
 0001:00017966       ??0?$__crt_unique_heap_ptr@XU__crt_internal_free_policy@@@@QAE@QAX@Z 10018966 f i libvcruntime:std_type_info.obj
 0001:00017977       ??1?$__crt_unique_heap_ptr@DU__crt_internal_free_policy@@@@QAE@XZ 10018977 f i libvcruntime:std_type_info.obj
 0001:0001798b       ??1?$__crt_unique_heap_ptr@XU__crt_internal_free_policy@@@@QAE@XZ 1001898b f i libvcruntime:std_type_info.obj
 0001:000179ab       ??B?$__crt_unique_heap_ptr@DU__crt_internal_free_policy@@@@QBE_NXZ 100189ab f i libvcruntime:std_type_info.obj
 0001:000179b2       ??B?$__crt_unique_heap_ptr@XU__crt_internal_free_policy@@@@QBE_NXZ 100189b2 f i libvcruntime:std_type_info.obj
 0001:000179e1       ?detach@?$__crt_unique_heap_ptr@XU__crt_internal_free_policy@@@@QAEPAXXZ 100189e1 f i libvcruntime:std_type_info.obj
 0001:000179e7       ?get@?$__crt_unique_heap_ptr@DU__crt_internal_free_policy@@@@QBEPADXZ 100189e7 f i libvcruntime:std_type_info.obj
 0001:000179ea       ?get@?$__crt_unique_heap_ptr@XU__crt_internal_free_policy@@@@QBEPAXXZ 100189ea f i libvcruntime:std_type_info.obj
 0001:000179ed       ?is_valid@?$__crt_unique_heap_ptr@DU__crt_internal_free_policy@@@@QBE_NXZ 100189ed f i libvcruntime:std_type_info.obj
 0001:000179f4       ?is_valid@?$__crt_unique_heap_ptr@XU__crt_internal_free_policy@@@@QBE_NXZ 100189f4 f i libvcruntime:std_type_info.obj
 0001:000179fb       ?release@?$__crt_unique_heap_ptr@DU__crt_internal_free_policy@@@@QAEXXZ 100189fb f i libvcruntime:std_type_info.obj
 0001:00017a0f       ?release@?$__crt_unique_heap_ptr@XU__crt_internal_free_policy@@@@QAEXXZ 10018a0f f i libvcruntime:std_type_info.obj
 0001:00017a23       ___std_type_info_compare   10018a23 f   libvcruntime:std_type_info.obj
 0001:00017a6e       ___std_type_info_destroy_list 10018a6e f   libvcruntime:std_type_info.obj
 0001:00017a99       ___std_type_info_hash      10018a99 f   libvcruntime:std_type_info.obj
 0001:00017ac8       ___std_type_info_name      10018ac8 f   libvcruntime:std_type_info.obj
 0001:00017bd0       __local_unwind4            10018bd0 f   libvcruntime:_exsup4_.obj
 0001:00017ca6       __seh_longjmp_unwind4@4    10018ca6 f   libvcruntime:_exsup4_.obj
 0001:00017cce       @_EH4_CallFilterFunc@8     10018cce f   libvcruntime:_exsup4_.obj
 0001:00017ce5       @_EH4_TransferToHandler@8  10018ce5 f   libvcruntime:_exsup4_.obj
 0001:00017cfe       @_EH4_GlobalUnwind2@8      10018cfe f   libvcruntime:_exsup4_.obj
 0001:00017d17       @_EH4_LocalUnwind@16       10018d17 f   libvcruntime:_exsup4_.obj
 0001:00017d85       ___except_validate_context_record 10018d85 f   libvcruntime:jbcxrval.obj
 0001:00017d86       ___except_validate_jump_buffer 10018d86 f   libvcruntime:jbcxrval.obj
 0001:00017d87       ??$?RU__vcrt_ptd@@@__crt_internal_free_policy@@QBEXQBU__vcrt_ptd@@@Z 10018d87 f i libvcruntime:per_thread_data.obj
 0001:00017d9b       ??0?$__crt_unique_heap_ptr@U__vcrt_ptd@@U__crt_internal_free_policy@@@@QAE@QAU__vcrt_ptd@@@Z 10018d9b f i libvcruntime:per_thread_data.obj
 0001:00017dbe       ??1?$__crt_unique_heap_ptr@U__vcrt_ptd@@U__crt_internal_free_policy@@@@QAE@XZ 10018dbe f i libvcruntime:per_thread_data.obj
 0001:00017ddd       ??B?$__crt_unique_heap_ptr@U__vcrt_ptd@@U__crt_internal_free_policy@@@@QBE_NXZ 10018ddd f i libvcruntime:per_thread_data.obj
 0001:00017de4       ?detach@?$__crt_unique_heap_ptr@U__vcrt_ptd@@U__crt_internal_free_policy@@@@QAEPAU__vcrt_ptd@@XZ 10018de4 f i libvcruntime:per_thread_data.obj
 0001:00017dea       ?get@?$__crt_unique_heap_ptr@U__vcrt_ptd@@U__crt_internal_free_policy@@@@QBEPAU__vcrt_ptd@@XZ 10018dea f i libvcruntime:per_thread_data.obj
 0001:00017ded       ?is_valid@?$__crt_unique_heap_ptr@U__vcrt_ptd@@U__crt_internal_free_policy@@@@QBE_NXZ 10018ded f i libvcruntime:per_thread_data.obj
 0001:00017df4       ?release@?$__crt_unique_heap_ptr@U__vcrt_ptd@@U__crt_internal_free_policy@@@@QAEXXZ 10018df4 f i libvcruntime:per_thread_data.obj
 0001:00017e28       ___vcrt_freefls@4          10018e28 f   libvcruntime:per_thread_data.obj
 0001:00017e4b       ___vcrt_freeptd            10018e4b f   libvcruntime:per_thread_data.obj
 0001:00017e8e       ___vcrt_getptd             10018e8e f   libvcruntime:per_thread_data.obj
 0001:00017e9f       ___vcrt_getptd_noexit      10018e9f f   libvcruntime:per_thread_data.obj
 0001:00017f55       ___vcrt_initialize_ptd     10018f55 f   libvcruntime:per_thread_data.obj
 0001:00017f94       ___vcrt_uninitialize_ptd   10018f94 f   libvcruntime:per_thread_data.obj
 0001:00017fb5       ___vcrt_initialize_locks   10018fb5 f   libvcruntime:locks.obj
 0001:00018000       ___vcrt_lock               10019000 f   libvcruntime:locks.obj
 0001:0001801a       ___vcrt_uninitialize_locks 1001901a f   libvcruntime:locks.obj
 0001:00018054       ___vcrt_unlock             10019054 f   libvcruntime:locks.obj
 0001:0001806e       ??$?BX@__crt_fast_encoded_nullptr_t@@QBEPAXXZ 1001906e f i libvcruntime:winapi_downlevel.obj
 0001:0001808c       ??$__crt_fast_decode_pointer@PAX@@YAPAXQAX@Z 1001908c f i libvcruntime:winapi_downlevel.obj
 0001:000180a5       ??$__crt_fast_encode_pointer@PAX@@YAPAXQAX@Z 100190a5 f i libvcruntime:winapi_downlevel.obj
 0001:000180c9       ??$__crt_interlocked_compare_exchange_pointer@UHINSTANCE__@@$$T$$T@@YAPAUHINSTANCE__@@PDSAU0@$$T1@Z 100190c9 f i libvcruntime:winapi_downlevel.obj
 0001:000180df       ??$__crt_interlocked_compare_exchange_pointer@X$$T$$T@@YAPAXPDSAX$$T1@Z 100190df f i libvcruntime:winapi_downlevel.obj
 0001:000180f5       ??$__crt_interlocked_exchange_pointer@UHINSTANCE__@@PAU1@@@YAPAUHINSTANCE__@@PDSAU0@QAU0@@Z 100190f5 f i libvcruntime:winapi_downlevel.obj
 0001:00018105       ??$__crt_interlocked_exchange_pointer@UHINSTANCE__@@PAX@@YAPAUHINSTANCE__@@PDSAU0@QAX@Z 10019105 f i libvcruntime:winapi_downlevel.obj
 0001:00018115       ??$__crt_interlocked_exchange_pointer@XPAX@@YAPAXPDSAXQAX@Z 10019115 f i libvcruntime:winapi_downlevel.obj
 0001:00018125       ??$__crt_interlocked_read_pointer@UHINSTANCE__@@@@YAPAUHINSTANCE__@@PDSAU0@@Z 10019125 f i libvcruntime:winapi_downlevel.obj
 0001:00018139       ??$__crt_interlocked_read_pointer@X@@YAPAXPDSAX@Z 10019139 f i libvcruntime:winapi_downlevel.obj
 0001:0001814d       ?__crt_fast_encode_pointer@@YA?AU__crt_fast_encoded_nullptr_t@@$$T@Z 1001914d f i libvcruntime:winapi_downlevel.obj
 0001:00018491       ___vcrt_EventRegister      10019491 f   libvcruntime:winapi_downlevel.obj
 0001:000184e1       ___vcrt_EventSetInformation 100194e1 f   libvcruntime:winapi_downlevel.obj
 0001:00018534       ___vcrt_EventUnregister    10019534 f   libvcruntime:winapi_downlevel.obj
 0001:0001857c       ___vcrt_EventWriteTransfer 1001957c f   libvcruntime:winapi_downlevel.obj
 0001:000185d7       ___vcrt_FlsAlloc           100195d7 f   libvcruntime:winapi_downlevel.obj
 0001:0001861f       ___vcrt_FlsFree            1001961f f   libvcruntime:winapi_downlevel.obj
 0001:00018667       ___vcrt_FlsGetValue        10019667 f   libvcruntime:winapi_downlevel.obj
 0001:000186af       ___vcrt_FlsSetValue        100196af f   libvcruntime:winapi_downlevel.obj
 0001:000186fb       ___vcrt_InitializeCriticalSectionEx 100196fb f   libvcruntime:winapi_downlevel.obj
 0001:00018752       ___vcrt_initialize_winapi_thunks 10019752 f   libvcruntime:winapi_downlevel.obj
 0001:0001879a       ___vcrt_uninitialize_winapi_thunks 1001979a f   libvcruntime:winapi_downlevel.obj
 0001:000187d8       ??$?B$$A6AXXZ@__crt_fast_encoded_nullptr_t@@QBEP6AXXZXZ 100197d8 f i libvcruntime:purevirt_data.obj
 0001:000187f6       ??$__crt_fast_encode_pointer@P6AXXZ@@YAP6AXXZQ6AXXZ@Z 100197f6 f i libvcruntime:purevirt_data.obj
 0001:0001881a       ___vcrt_initialize_pure_virtual_call_handler 1001981a f   libvcruntime:purevirt_data.obj
 0001:0001883e       ??$__vcrt_va_start_verify_argument_type@QBD@@YAXXZ 1001983e f i libvcruntime:undname.obj
 0001:0001883f       ??0Block@_HeapManager@@QAE@XZ 1001983f f i libvcruntime:undname.obj
 0001:00018845       ??0DName@@QAE@AAPBDD@Z     10019845 f   libvcruntime:undname.obj
 0001:0001892c       ??0DName@@QAE@ABV0@@Z      1001992c f i libvcruntime:undname.obj
 0001:00018947       ??0DName@@QAE@D@Z          10019947 f   libvcruntime:undname.obj
 0001:0001897e       ??0DName@@QAE@PAV0@@Z      1001997e f   libvcruntime:undname.obj
 0001:000189de       ??0DName@@QAE@PBD@Z        100199de f   libvcruntime:undname.obj
 0001:00018a26       ??0DName@@QAE@W4DNameStatus@@@Z 10019a26 f   libvcruntime:undname.obj
 0001:00018a79       ??0DName@@QAE@XZ           10019a79 f i libvcruntime:undname.obj
 0001:00018a8e       ??0DName@@QAE@_J@Z         10019a8e f   libvcruntime:undname.obj
 0001:00018b48       ??0DName@@QAE@_K@Z         10019b48 f   libvcruntime:undname.obj
 0001:00018bd2       ??0DNameNode@@IAE@XZ       10019bd2 f   libvcruntime:undname.obj
 0001:00018bdd       ??0DNameStatusNode@@AAE@W4DNameStatus@@@Z 10019bdd f   libvcruntime:undname.obj
 0001:00018c08       ??0Replicator@@QAE@XZ      10019c08 f i libvcruntime:undname.obj
 0001:00018c0e       ??0UnDecorator@@QAE@PADPBDHP6APADJ@ZK@Z 10019c0e f i libvcruntime:undname.obj
 0001:00018c91       ??0charNode@@QAE@D@Z       10019c91 f   libvcruntime:undname.obj
 0001:00018cab       ??0pDNameNode@@QAE@PAVDName@@@Z 10019cab f   libvcruntime:undname.obj
 0001:00018cdd       ??0pairNode@@QAE@PAVDNameNode@@0@Z 10019cdd f   libvcruntime:undname.obj
 0001:00018d03       ??0pcharNode@@QAE@PBDH@Z   10019d03 f   libvcruntime:undname.obj
 0001:00018d72       ??2@YAPAXIAAV_HeapManager@@H@Z 10019d72 f i libvcruntime:undname.obj
 0001:00018d8c       ??4DName@@QAEAAV0@ABV0@@Z  10019d8c f   libvcruntime:undname.obj
 0001:00018da7       ??4DName@@QAEAAV0@D@Z      10019da7 f i libvcruntime:undname.obj
 0001:00018dde       ??4DName@@QAEAAV0@PAV0@@Z  10019dde f   libvcruntime:undname.obj
 0001:00018e39       ??4DName@@QAEAAV0@PBD@Z    10019e39 f   libvcruntime:undname.obj
 0001:00018e77       ??4DName@@QAEAAV0@W4DNameStatus@@@Z 10019e77 f   libvcruntime:undname.obj
 0001:00018eb9       ??AReplicator@@QBE?AVDName@@H@Z 10019eb9 f   libvcruntime:undname.obj
 0001:00018f04       ??BUnDecorator@@QAEPADXZ   10019f04 f i libvcruntime:undname.obj
 0001:000190db       ??H@YA?AVDName@@DABV0@@Z   1001a0db f i libvcruntime:undname.obj
 0001:00019108       ??H@YA?AVDName@@PBDABV0@@Z 1001a108 f i libvcruntime:undname.obj
 0001:00019135       ??H@YA?AVDName@@W4DNameStatus@@ABV0@@Z 1001a135 f i libvcruntime:undname.obj
 0001:00019162       ??HDName@@QBE?AV0@ABV0@@Z  1001a162 f   libvcruntime:undname.obj
 0001:0001918c       ??HDName@@QBE?AV0@D@Z      1001a18c f   libvcruntime:undname.obj
 0001:000191b6       ??HDName@@QBE?AV0@PAV0@@Z  1001a1b6 f   libvcruntime:undname.obj
 0001:000191e0       ??HDName@@QBE?AV0@PBD@Z    1001a1e0 f   libvcruntime:undname.obj
 0001:0001920a       ??HDName@@QBE?AV0@W4DNameStatus@@@Z 1001a20a f   libvcruntime:undname.obj
 0001:00019234       ??YDName@@QAEAAV0@ABV0@@Z  1001a234 f   libvcruntime:undname.obj
 0001:00019287       ??YDName@@QAEAAV0@D@Z      1001a287 f   libvcruntime:undname.obj
 0001:000192eb       ??YDName@@QAEAAV0@PAV0@@Z  1001a2eb f   libvcruntime:undname.obj
 0001:00019369       ??YDName@@QAEAAV0@PBD@Z    1001a369 f   libvcruntime:undname.obj
 0001:000193e2       ??YDName@@QAEAAV0@W4DNameStatus@@@Z 1001a3e2 f   libvcruntime:undname.obj
 0001:00019432       ??YReplicator@@QAEAAV0@ABVDName@@@Z 1001a432 f   libvcruntime:undname.obj
 0001:0001948e       ??_5DName@@QAEAAV0@ABV0@@Z 1001a48e f   libvcruntime:undname.obj
 0001:000194b1       ?Constructor@_HeapManager@@QAEXP6APAXI@ZP6AXPAX@Z@Z 1001a4b1 f i libvcruntime:undname.obj
 0001:000194d5       ?Destructor@_HeapManager@@QAEXXZ 1001a4d5 f i libvcruntime:undname.obj
 0001:0001951c       ?UScore@UnDecorator@@SAPBDW4Tokens@@@Z 1001a51c f   libvcruntime:undname.obj
 0001:00019540       ?append@DName@@AAEXPAVDNameNode@@@Z 1001a540 f   libvcruntime:undname.obj
 0001:00019597       ?composeDeclaration@UnDecorator@@CA?AVDName@@ABV2@@Z 1001a597 f i libvcruntime:undname.obj
 0001:0001a5d2       ?doAccessSpecifiers@UnDecorator@@SAHXZ 1001b5d2 f i libvcruntime:undname.obj
 0001:0001a5e3       ?doAllocationLanguage@UnDecorator@@SAHXZ 1001b5e3 f i libvcruntime:undname.obj
 0001:0001a5f4       ?doAllocationModel@UnDecorator@@SAHXZ 1001b5f4 f i libvcruntime:undname.obj
 0001:0001a605       ?doEcsu@UnDecorator@@SAHXZ 1001b605 f i libvcruntime:undname.obj
 0001:0001a616       ?doEllipsis@UnDecorator@@SAHXZ 1001b616 f i libvcruntime:undname.obj
 0001:0001a627       ?doFunctionReturns@UnDecorator@@SAHXZ 1001b627 f i libvcruntime:undname.obj
 0001:0001a638       ?doMSKeywords@UnDecorator@@SAHXZ 1001b638 f i libvcruntime:undname.obj
 0001:0001a648       ?doMemberTypes@UnDecorator@@SAHXZ 1001b648 f i libvcruntime:undname.obj
 0001:0001a659       ?doNameOnly@UnDecorator@@SAHXZ 1001b659 f i libvcruntime:undname.obj
 0001:0001a666       ?doNoIdentCharCheck@UnDecorator@@SAHXZ 1001b666 f i libvcruntime:undname.obj
 0001:0001a673       ?doPchar@DName@@AAEXPBDH@Z 1001b673 f   libvcruntime:undname.obj
 0001:0001a71f       ?doPtr64@UnDecorator@@SAHXZ 1001b71f f i libvcruntime:undname.obj
 0001:0001a730       ?doRestrictionSpec@UnDecorator@@SAHXZ 1001b730 f i libvcruntime:undname.obj
 0001:0001a741       ?doThisTypes@UnDecorator@@SAHXZ 1001b741 f i libvcruntime:undname.obj
 0001:0001a757       ?doThrowTypes@UnDecorator@@SAHXZ 1001b757 f i libvcruntime:undname.obj
 0001:0001a768       ?doTypeOnly@UnDecorator@@SAHXZ 1001b768 f i libvcruntime:undname.obj
 0001:0001a775       ?doUnderScore@UnDecorator@@SAHXZ 1001b775 f i libvcruntime:undname.obj
 0001:0001a782       ?getArgumentList@UnDecorator@@CA?AVDName@@XZ 1001b782 f   libvcruntime:undname.obj
 0001:0001a8d1       ?getArgumentTypes@UnDecorator@@CA?AVDName@@XZ 1001b8d1 f   libvcruntime:undname.obj
 0001:0001a9e9       ?getArrayType@UnDecorator@@CA?AVDName@@ABV2@@Z 1001b9e9 f i libvcruntime:undname.obj
 0001:0001ac6b       ?getBasedType@UnDecorator@@CA?AVDName@@XZ 1001bc6b f   libvcruntime:undname.obj
 0001:0001ad2a       ?getBasicDataType@UnDecorator@@CA?AVDName@@ABV2@@Z 1001bd2a f   libvcruntime:undname.obj
 0001:0001b214       ?getCallIndex@UnDecorator@@CA?AVDName@@XZ 1001c214 f i libvcruntime:undname.obj
 0001:0001b22d       ?getCallingConvention@UnDecorator@@CA?AVDName@@XZ 1001c22d f   libvcruntime:undname.obj
 0001:0001b31b       ?getDataIndirectType@UnDecorator@@CA?AVDName@@ABV2@PBD0H@Z 1001c31b f   libvcruntime:undname.obj
 0001:0001bac6       ?getDataIndirectType@UnDecorator@@CA?AVDName@@XZ 1001cac6 f i libvcruntime:undname.obj
 0001:0001bb0d       ?getDataType@UnDecorator@@CA?AVDName@@PAV2@@Z 1001cb0d f   libvcruntime:undname.obj
 0001:0001bc13       ?getDecoratedName@UnDecorator@@CA?AVDName@@XZ 1001cc13 f   libvcruntime:undname.obj
 0001:0001bef2       ?getDimension@UnDecorator@@CA?AVDName@@_N@Z 1001cef2 f   libvcruntime:undname.obj
 0001:0001c076       ?getDispatchTarget@UnDecorator@@CA?AVDName@@XZ 1001d076 f   libvcruntime:undname.obj
 0001:0001c0e7       ?getDisplacement@UnDecorator@@CA?AVDName@@XZ 1001d0e7 f i libvcruntime:undname.obj
 0001:0001c100       ?getECSUDataType@UnDecorator@@CA?AVDName@@XZ 1001d100 f   libvcruntime:undname.obj
 0001:0001c264       ?getECSUName@UnDecorator@@CA?AVDName@@XZ 1001d264 f i libvcruntime:undname.obj
 0001:0001c279       ?getEnumType@UnDecorator@@CA?AVDName@@XZ 1001d279 f i libvcruntime:undname.obj
 0001:0001c3a0       ?getExtendedDataIndirectType@UnDecorator@@CA?AVDName@@AAPBDAA_NH@Z 1001d3a0 f   libvcruntime:undname.obj
 0001:0001c5b3       ?getExternalDataType@UnDecorator@@CA?AVDName@@ABV2@@Z 1001d5b3 f i libvcruntime:undname.obj
 0001:0001c64a       ?getFunctionIndirectType@UnDecorator@@CA?AVDName@@ABV2@@Z 1001d64a f   libvcruntime:undname.obj
 0001:0001cb55       ?getGuardNumber@UnDecorator@@CA?AVDName@@XZ 1001db55 f i libvcruntime:undname.obj
 0001:0001cb6e       ?getLastChar@DName@@QBEDXZ 1001db6e f i libvcruntime:undname.obj
 0001:0001cb94       ?getLastChar@DNameStatusNode@@UBEDXZ 1001db94 f i libvcruntime:undname.obj
 0001:0001cba3       ?getLastChar@charNode@@UBEDXZ 1001dba3 f i libvcruntime:undname.obj
 0001:0001cba7       ?getLastChar@pDNameNode@@UBEDXZ 1001dba7 f i libvcruntime:undname.obj
 0001:0001cbb8       ?getLastChar@pairNode@@UBEDXZ 1001dbb8 f i libvcruntime:undname.obj
 0001:0001cbf7       ?getLastChar@pcharNode@@UBEDXZ 1001dbf7 f i libvcruntime:undname.obj
 0001:0001cc0d       ?getLexicalFrame@UnDecorator@@CA?AVDName@@XZ 1001dc0d f i libvcruntime:undname.obj
 0001:0001cc59       ?getMemory@_HeapManager@@QAEPAXIH@Z 1001dc59 f   libvcruntime:undname.obj
 0001:0001cd0a       ?getNumberOfDimensions@UnDecorator@@CAHXZ 1001dd0a f   libvcruntime:undname.obj
 0001:0001cd83       ?getOperatorName@UnDecorator@@CA?AVDName@@_NPA_N@Z 1001dd83 f i libvcruntime:undname.obj
 0001:0001d533       ?getPointerType@UnDecorator@@CA?AVDName@@ABV2@0@Z 1001e533 f i libvcruntime:undname.obj
 0001:0001d558       ?getPointerTypeArray@UnDecorator@@CA?AVDName@@ABV2@0@Z 1001e558 f i libvcruntime:undname.obj
 0001:0001d57d       ?getPrimaryDataType@UnDecorator@@CA?AVDName@@ABV2@@Z 1001e57d f   libvcruntime:undname.obj
 0001:0001d7ee       ?getPtrRefDataType@UnDecorator@@CA?AVDName@@ABV2@H@Z 1001e7ee f   libvcruntime:undname.obj
 0001:0001d930       ?getPtrRefType@UnDecorator@@CA?AVDName@@ABV2@0PBD@Z 1001e930 f   libvcruntime:undname.obj
 0001:0001da6b       ?getReferenceType@UnDecorator@@CA?AVDName@@ABV2@0PBD@Z 1001ea6b f i libvcruntime:undname.obj
 0001:0001da8e       ?getRestrictionSpec@UnDecorator@@CA?AVDName@@XZ 1001ea8e f   libvcruntime:undname.obj
 0001:0001dbbc       ?getReturnType@UnDecorator@@CA?AVDName@@PAV2@@Z 1001ebbc f   libvcruntime:undname.obj
 0001:0001dbf6       ?getScope@UnDecorator@@CA?AVDName@@XZ 1001ebf6 f   libvcruntime:undname.obj
 0001:0001e0cb       ?getScopedName@UnDecorator@@CA?AVDName@@XZ 1001f0cb f   libvcruntime:undname.obj
 0001:0001e204       ?getSignedDimension@UnDecorator@@CA?AVDName@@XZ 1001f204 f   libvcruntime:undname.obj
 0001:0001e26b       ?getStorageConvention@UnDecorator@@CA?AVDName@@XZ 1001f26b f i libvcruntime:undname.obj
 0001:0001e280       ?getString@DName@@QBEPADPAD0@Z 1001f280 f i libvcruntime:undname.obj
 0001:0001e2b7       ?getString@DName@@QBEPADPADH@Z 1001f2b7 f i libvcruntime:undname.obj
 0001:0001e322       ?getString@DNameStatusNode@@UBEPADPAD0@Z 1001f322 f i libvcruntime:undname.obj
 0001:0001e352       ?getString@charNode@@UBEPADPAD0@Z 1001f352 f i libvcruntime:undname.obj
 0001:0001e36c       ?getString@pDNameNode@@UBEPADPAD0@Z 1001f36c f i libvcruntime:undname.obj
 0001:0001e388       ?getString@pairNode@@UBEPADPAD0@Z 1001f388 f i libvcruntime:undname.obj
 0001:0001e3dd       ?getString@pcharNode@@UBEPADPAD0@Z 1001f3dd f i libvcruntime:undname.obj
 0001:0001e3fe       ?getStringEncoding@UnDecorator@@CA?AVDName@@PADH@Z 1001f3fe f   libvcruntime:undname.obj
 0001:0001e4c9       ?getStringHelper@@YAPADPAD00H@Z 1001f4c9 f i libvcruntime:undname.obj
 0001:0001e50d       ?getSymbolName@UnDecorator@@CA?AVDName@@XZ 1001f50d f i libvcruntime:undname.obj
 0001:0001e567       ?getTemplateArgumentList@UnDecorator@@CA?AVDName@@XZ 1001f567 f   libvcruntime:undname.obj
 0001:0001e8b4       ?getTemplateConstant@UnDecorator@@CA?AVDName@@XZ 1001f8b4 f   libvcruntime:undname.obj
 0001:0001ecc9       ?getTemplateName@UnDecorator@@CA?AVDName@@_N@Z 1001fcc9 f   libvcruntime:undname.obj
 0001:0001ee74       ?getThisType@UnDecorator@@CA?AVDName@@XZ 1001fe74 f i libvcruntime:undname.obj
 0001:0001eebc       ?getThrowTypes@UnDecorator@@CA?AVDName@@XZ 1001febc f   libvcruntime:undname.obj
 0001:0001ef68       ?getTypeEncoding@UnDecorator@@CAHXZ 1001ff68 f i libvcruntime:undname.obj
 0001:0001f364       ?getVCallThunkType@UnDecorator@@CA?AVDName@@XZ 10020364 f i libvcruntime:undname.obj
 0001:0001f3ad       ?getVbTableType@UnDecorator@@CA?AVDName@@ABV2@@Z 100203ad f i libvcruntime:undname.obj
 0001:0001f3c7       ?getVdispMapType@UnDecorator@@CA?AVDName@@ABV2@@Z 100203c7 f i libvcruntime:undname.obj
 0001:0001f432       ?getVfTableType@UnDecorator@@CA?AVDName@@ABV2@@Z 10020432 f i libvcruntime:undname.obj
 0001:0001f5f0       ?getZName@UnDecorator@@CA?AVDName@@_N0@Z 100205f0 f   libvcruntime:undname.obj
 0001:0001f8c0       ?haveTemplateParameters@UnDecorator@@SAHXZ 100208c0 f i libvcruntime:undname.obj
 0001:0001f8cd       ?isArray@DName@@QBEHXZ     100208cd f i libvcruntime:undname.obj
 0001:0001f8d9       ?isComArray@DName@@QBEHXZ  100208d9 f i libvcruntime:undname.obj
 0001:0001f8e5       ?isEmpty@DName@@QBEHXZ     100208e5 f i libvcruntime:undname.obj
 0001:0001f8ef       ?isFull@Replicator@@QBEHXZ 100208ef f i libvcruntime:undname.obj
 0001:0001f8fa       ?isNoTE@DName@@QBEHXZ      100208fa f i libvcruntime:undname.obj
 0001:0001f906       ?isPinPtr@DName@@QBEHXZ    10020906 f i libvcruntime:undname.obj
 0001:0001f912       ?isPtrRef@DName@@QBEHXZ    10020912 f i libvcruntime:undname.obj
 0001:0001f91e       ?isUDC@DName@@QBEHXZ       1002091e f i libvcruntime:undname.obj
 0001:0001f933       ?isUDTThunk@DName@@QBEHXZ  10020933 f i libvcruntime:undname.obj
 0001:0001f948       ?isVCallThunk@DName@@QBEHXZ 10020948 f i libvcruntime:undname.obj
 0001:0001f954       ?isValid@DName@@QBEHXZ     10020954 f i libvcruntime:undname.obj
 0001:0001f960       ?length@DName@@QBEHXZ      10020960 f i libvcruntime:undname.obj
 0001:0001f985       ?length@DNameStatusNode@@UBEHXZ 10020985 f i libvcruntime:undname.obj
 0001:0001f989       ?length@charNode@@UBEHXZ   10020989 f i libvcruntime:undname.obj
 0001:0001f98d       ?length@pDNameNode@@UBEHXZ 1002098d f i libvcruntime:undname.obj
 0001:0001f99e       ?length@pairNode@@UBEHXZ   1002099e f i libvcruntime:undname.obj
 0001:0001f9fa       ?length@pcharNode@@UBEHXZ  100209fa f i libvcruntime:undname.obj
 0001:0001f9fe       ?make@DNameStatusNode@@SAPAV1@W4DNameStatus@@@Z 100209fe f i libvcruntime:undname.obj
 0001:0001faa5       ?setIsArray@DName@@QAEXXZ  10020aa5 f i libvcruntime:undname.obj
 0001:0001faaf       ?setIsComArray@DName@@QAEXXZ 10020aaf f i libvcruntime:undname.obj
 0001:0001fab9       ?setIsNoTE@DName@@QAEXXZ   10020ab9 f i libvcruntime:undname.obj
 0001:0001fac3       ?setIsPinPtr@DName@@QAEXXZ 10020ac3 f i libvcruntime:undname.obj
 0001:0001facd       ?setIsUDC@DName@@QAEXXZ    10020acd f i libvcruntime:undname.obj
 0001:0001fadd       ?setIsVCallThunk@DName@@QAEXXZ 10020add f i libvcruntime:undname.obj
 0001:0001fae7       ?setPtrRef@DName@@QAEAAV1@XZ 10020ae7 f i libvcruntime:undname.obj
 0001:0001faf3       ?status@DName@@QBE?AW4DNameStatus@@XZ 10020af3 f i libvcruntime:undname.obj
 0001:0001fb78       ___unDName                 10020b78 f   libvcruntime:undname.obj
 0001:0001fc32       ___unDNameEx               10020c32 f   libvcruntime:undname.obj
 0001:0001fcec       __vsprintf_s_l             10020cec f i libvcruntime:undname.obj
 0001:0001fd24       _sprintf_s                 10020d24 f i libvcruntime:undname.obj
 0001:0001fd50       __global_unwind2           10020d50 f   libvcruntime:_exsup_.obj
 0001:0001fdb5       __local_unwind2            10020db5 f   libvcruntime:_exsup_.obj
 0001:0001fe39       __abnormal_termination     10020e39 f   libvcruntime:_exsup_.obj
 0001:0001fe5c       __NLG_Notify1              10020e5c f   libvcruntime:_exsup_.obj
 0001:0001fe65       __NLG_Notify               10020e65 f   libvcruntime:_exsup_.obj
 0001:0001fe7c       __NLG_Dispatch2            10020e7c     libvcruntime:_exsup_.obj
 0001:0001fe7c       __NLG_Dispatch             10020e7c     libvcruntime:_exsup_.obj
 0001:0001fe84       __NLG_Call                 10020e84 f   libvcruntime:_exsup_.obj
 0001:0001fe86       __NLG_Return2              10020e86     libvcruntime:_exsup_.obj
 0001:0001fed4       ??$__crt_fast_decode_pointer@P6AXXZ@@YAP6AXXZQ6AXXZ@Z 10020ed4 f i libvcruntime:purevirt.obj
 0001:0001feed       ??$__crt_interlocked_compare_exchange_pointer@$$A6AXXZ$$T$$T@@YAP6AXXZPDS6AXXZ$$T1@Z 10020eed f i libvcruntime:purevirt.obj
 0001:0001ff03       ??$__crt_interlocked_exchange_pointer@$$A6AXXZP6AXXZ@@YAP6AXXZPDS6AXXZQ6AXXZ@Z 10020f03 f i libvcruntime:purevirt.obj
 0001:0001ff13       ??$__crt_interlocked_read_pointer@$$A6AXXZ@@YAP6AXXZPDS6AXXZ@Z 10020f13 f i libvcruntime:purevirt.obj
 0001:0001ff27       __get_purecall_handler     10020f27 f   libvcruntime:purevirt.obj
 0001:0001ff4d       __purecall                 10020f4d f   libvcruntime:purevirt.obj
 0001:0001ff6e       __set_purecall_handler     10020f6e f   libvcruntime:purevirt.obj
 0001:0001ff9c       _malloc                    10020f9c f   libucrt:malloc.obj
 0001:0001ffa9       ??$?RPAU__crt_stdio_stream_data@@@__crt_internal_free_policy@@QBEXQBQAU__crt_stdio_stream_data@@@Z 10020fa9 f i libucrt:_file.obj
 0001:0001ffbf       ??0?$__crt_unique_heap_ptr@PAU__crt_stdio_stream_data@@U__crt_internal_free_policy@@@@QAE@QAPAU__crt_stdio_stream_data@@@Z 10020fbf f i libucrt:_file.obj
 0001:0001ffd3       ??0__crt_stdio_stream@@QAE@QAU_iobuf@@@Z 10020fd3 f i libucrt:_file.obj
 0001:0001ffe7       ??1?$__crt_unique_heap_ptr@PAU__crt_stdio_stream_data@@U__crt_internal_free_policy@@@@QAE@XZ 10020fe7 f i libucrt:_file.obj
 0001:0001fffd       ??C__crt_stdio_stream@@QBEPAU__crt_stdio_stream_data@@XZ 10020ffd f i libucrt:_file.obj
 0001:00020000       ?detach@?$__crt_unique_heap_ptr@PAU__crt_stdio_stream_data@@U__crt_internal_free_policy@@@@QAEPAPAU__crt_stdio_stream_data@@XZ 10021000 f i libucrt:_file.obj
 0001:00020006       ?release@?$__crt_unique_heap_ptr@PAU__crt_stdio_stream_data@@U__crt_internal_free_policy@@@@QAEXXZ 10021006 f i libucrt:_file.obj
 0001:0002001c       ___acrt_initialize_stdio   1002101c f   libucrt:_file.obj
 0001:00020116       ___acrt_iob_func           10021116 f   libucrt:_file.obj
 0001:0002012a       ___acrt_uninitialize_stdio 1002112a f   libucrt:_file.obj
 0001:00020189       __get_stream_buffer_pointers 10021189 f   libucrt:_file.obj
 0001:000201e0       __lock_file                100211e0 f   libucrt:_file.obj
 0001:000201f9       __unlock_file              100211f9 f   libucrt:_file.obj
 0001:00020212       ??$?0ABV?$stream_output_adapter@D@__crt_stdio_output@@AB_KABQBDABQAU__crt_locale_pointers@@ABQAD@?$format_validation_base@DV?$stream_output_adapter@D@__crt_stdio_output@@@__crt_stdio_output@@IAE@ABV?$stream_output_adapter@D@1@AB_KABQBDABQAU__crt_locale_pointers@@ABQAD@Z 10021212 f i libucrt:output.obj
 0001:0002023d       ??$?0ABV?$stream_output_adapter@D@__crt_stdio_output@@AB_KABQBDABQAU__crt_locale_pointers@@ABQAD@?$positional_parameter_base@DV?$stream_output_adapter@D@__crt_stdio_output@@@__crt_stdio_output@@IAE@ABV?$stream_output_adapter@D@1@AB_KABQBDABQAU__crt_locale_pointers@@ABQAD@Z 1002123d f i libucrt:output.obj
 0001:00020297       ??$?0ABV?$stream_output_adapter@D@__crt_stdio_output@@AB_KABQBDABQAU__crt_locale_pointers@@ABQAD@?$standard_base@DV?$stream_output_adapter@D@__crt_stdio_output@@@__crt_stdio_output@@IAE@ABV?$stream_output_adapter@D@1@AB_KABQBDABQAU__crt_locale_pointers@@ABQAD@Z 10021297 f i libucrt:output.obj
 0001:000202d9       ??$?0ABV?$stream_output_adapter@_W@__crt_stdio_output@@AB_KABQB_WABQAU__crt_locale_pointers@@ABQAD@?$format_validation_base@_WV?$stream_output_adapter@_W@__crt_stdio_output@@@__crt_stdio_output@@IAE@ABV?$stream_output_adapter@_W@1@AB_KABQB_WABQAU__crt_locale_pointers@@ABQAD@Z 100212d9 f i libucrt:output.obj
 0001:00020304       ??$?0ABV?$stream_output_adapter@_W@__crt_stdio_output@@AB_KABQB_WABQAU__crt_locale_pointers@@ABQAD@?$positional_parameter_base@_WV?$stream_output_adapter@_W@__crt_stdio_output@@@__crt_stdio_output@@IAE@ABV?$stream_output_adapter@_W@1@AB_KABQB_WABQAU__crt_locale_pointers@@ABQAD@Z 10021304 f i libucrt:output.obj
 0001:0002035e       ??$?0ABV?$stream_output_adapter@_W@__crt_stdio_output@@AB_KABQB_WABQAU__crt_locale_pointers@@ABQAD@?$standard_base@_WV?$stream_output_adapter@_W@__crt_stdio_output@@@__crt_stdio_output@@IAE@ABV?$stream_output_adapter@_W@1@AB_KABQB_WABQAU__crt_locale_pointers@@ABQAD@Z 1002135e f i libucrt:output.obj
 0001:000203a0       ??$?0ABV?$string_output_adapter@D@__crt_stdio_output@@AB_KABQBDABQAU__crt_locale_pointers@@ABQAD@?$format_validation_base@DV?$string_output_adapter@D@__crt_stdio_output@@@__crt_stdio_output@@IAE@ABV?$string_output_adapter@D@1@AB_KABQBDABQAU__crt_locale_pointers@@ABQAD@Z 100213a0 f i libucrt:output.obj
 0001:000203cb       ??$?0ABV?$string_output_adapter@D@__crt_stdio_output@@AB_KABQBDABQAU__crt_locale_pointers@@ABQAD@?$positional_parameter_base@DV?$string_output_adapter@D@__crt_stdio_output@@@__crt_stdio_output@@IAE@ABV?$string_output_adapter@D@1@AB_KABQBDABQAU__crt_locale_pointers@@ABQAD@Z 100213cb f i libucrt:output.obj
 0001:00020425       ??$?0ABV?$string_output_adapter@D@__crt_stdio_output@@AB_KABQBDABQAU__crt_locale_pointers@@ABQAD@?$standard_base@DV?$string_output_adapter@D@__crt_stdio_output@@@__crt_stdio_output@@IAE@ABV?$string_output_adapter@D@1@AB_KABQBDABQAU__crt_locale_pointers@@ABQAD@Z 10021425 f i libucrt:output.obj
 0001:00020467       ??$?0ABV?$string_output_adapter@_W@__crt_stdio_output@@AB_KABQB_WABQAU__crt_locale_pointers@@ABQAD@?$format_validation_base@_WV?$string_output_adapter@_W@__crt_stdio_output@@@__crt_stdio_output@@IAE@ABV?$string_output_adapter@_W@1@AB_KABQB_WABQAU__crt_locale_pointers@@ABQAD@Z 10021467 f i libucrt:output.obj
 0001:00020492       ??$?0ABV?$string_output_adapter@_W@__crt_stdio_output@@AB_KABQB_WABQAU__crt_locale_pointers@@ABQAD@?$positional_parameter_base@_WV?$string_output_adapter@_W@__crt_stdio_output@@@__crt_stdio_output@@IAE@ABV?$string_output_adapter@_W@1@AB_KABQB_WABQAU__crt_locale_pointers@@ABQAD@Z 10021492 f i libucrt:output.obj
 0001:000204ec       ??$?0ABV?$string_output_adapter@_W@__crt_stdio_output@@AB_KABQB_WABQAU__crt_locale_pointers@@ABQAD@?$standard_base@_WV?$string_output_adapter@_W@__crt_stdio_output@@@__crt_stdio_output@@IAE@ABV?$string_output_adapter@_W@1@AB_KABQB_WABQAU__crt_locale_pointers@@ABQAD@Z 100214ec f i libucrt:output.obj
 0001:0002052e       ??$?RV<lambda_2293f24e3ce1ad6fe22ccfb9dec07671>@@AAV<lambda_2565fc715a641e539f44ad02d6823606>@@V<lambda_d3217f279b832965d9ca670dc2993570>@@@?$__crt_seh_guarded_call@H@@QAEH$$QAV<lambda_2293f24e3ce1ad6fe22ccfb9dec07671>@@AAV<lambda_2565fc715a641e539f44ad02d6823606>@@$$QAV<lambda_d3217f279b832965d9ca670dc2993570>@@@Z 1002152e f i libucrt:output.obj
 0001:00020593       ??$?RV<lambda_4d4ac866be0fa3c441830420fabdd2cb>@@AAV<lambda_63a10c2dc8dbb9e4dd1890be52af7c93>@@V<lambda_002af9fa0f8fe472b648c51882d4fc32>@@@?$__crt_seh_guarded_call@H@@QAEH$$QAV<lambda_4d4ac866be0fa3c441830420fabdd2cb>@@AAV<lambda_63a10c2dc8dbb9e4dd1890be52af7c93>@@$$QAV<lambda_002af9fa0f8fe472b648c51882d4fc32>@@@Z 10021593 f i libucrt:output.obj
 0001:000205f8       ??$?RV<lambda_5be909dfbae0a631386585770cd7b676>@@AAV<lambda_e516058a9c289d98c8ca9fea99247804>@@V<lambda_afe2e0cdc5e0ecf6f0d6f5e2f8985e38>@@@?$__crt_seh_guarded_call@H@@QAEH$$QAV<lambda_5be909dfbae0a631386585770cd7b676>@@AAV<lambda_e516058a9c289d98c8ca9fea99247804>@@$$QAV<lambda_afe2e0cdc5e0ecf6f0d6f5e2f8985e38>@@@Z 100215f8 f i libucrt:output.obj
 0001:0002065d       ??$?RV<lambda_823d65812123d985753d53e2a8c25d20>@@AAV<lambda_0a97c9e57da7be065955385c79108ff2>@@V<lambda_4d2973f3ad2d226f00468307185dca1b>@@@?$__crt_seh_guarded_call@H@@QAEH$$QAV<lambda_823d65812123d985753d53e2a8c25d20>@@AAV<lambda_0a97c9e57da7be065955385c79108ff2>@@$$QAV<lambda_4d2973f3ad2d226f00468307185dca1b>@@@Z 1002165d f i libucrt:output.obj
 0001:000206c2       ??$?RV<lambda_ab9923ffb5d694ec0d78876dd103e44f>@@AAV<lambda_481dd5778c961fbcd3b60b650e9b9dc4>@@V<lambda_7923d86c9e3f319b415918ec4b39749c>@@@?$__crt_seh_guarded_call@H@@QAEH$$QAV<lambda_ab9923ffb5d694ec0d78876dd103e44f>@@AAV<lambda_481dd5778c961fbcd3b60b650e9b9dc4>@@$$QAV<lambda_7923d86c9e3f319b415918ec4b39749c>@@@Z 100216c2 f i libucrt:output.obj
 0001:00020727       ??$?RV<lambda_db08b09ef7aa9d4f8620ce68402612bc>@@AAV<lambda_4f2c1eaeead2a5fc776db5b62ea0fb9b>@@V<lambda_3ae262bc35d4ba6a3825c4f6bcaaf95c>@@@?$__crt_seh_guarded_call@H@@QAEH$$QAV<lambda_db08b09ef7aa9d4f8620ce68402612bc>@@AAV<lambda_4f2c1eaeead2a5fc776db5b62ea0fb9b>@@$$QAV<lambda_3ae262bc35d4ba6a3825c4f6bcaaf95c>@@@Z 10021727 f i libucrt:output.obj
 0001:0002078c       ??$__acrt_lock_stream_and_call@V<lambda_0a97c9e57da7be065955385c79108ff2>@@@@YAHQAU_iobuf@@$$QAV<lambda_0a97c9e57da7be065955385c79108ff2>@@@Z 1002178c f i libucrt:output.obj
 0001:000207be       ??$__acrt_lock_stream_and_call@V<lambda_2565fc715a641e539f44ad02d6823606>@@@@YAHQAU_iobuf@@$$QAV<lambda_2565fc715a641e539f44ad02d6823606>@@@Z 100217be f i libucrt:output.obj
 0001:000207f0       ??$__acrt_lock_stream_and_call@V<lambda_481dd5778c961fbcd3b60b650e9b9dc4>@@@@YAHQAU_iobuf@@$$QAV<lambda_481dd5778c961fbcd3b60b650e9b9dc4>@@@Z 100217f0 f i libucrt:output.obj
 0001:00020822       ??$__acrt_lock_stream_and_call@V<lambda_4f2c1eaeead2a5fc776db5b62ea0fb9b>@@@@YAHQAU_iobuf@@$$QAV<lambda_4f2c1eaeead2a5fc776db5b62ea0fb9b>@@@Z 10021822 f i libucrt:output.obj
 0001:00020854       ??$__acrt_lock_stream_and_call@V<lambda_63a10c2dc8dbb9e4dd1890be52af7c93>@@@@YAHQAU_iobuf@@$$QAV<lambda_63a10c2dc8dbb9e4dd1890be52af7c93>@@@Z 10021854 f i libucrt:output.obj
 0001:00020886       ??$__acrt_lock_stream_and_call@V<lambda_e516058a9c289d98c8ca9fea99247804>@@@@YAHQAU_iobuf@@$$QAV<lambda_e516058a9c289d98c8ca9fea99247804>@@@Z 10021886 f i libucrt:output.obj
 0001:000208b8       ??$__crt_interlocked_read@J@@YAJPDJ@Z 100218b8 f i libucrt:output.obj
 0001:00021b03       ??$count@D@formatting_buffer@__crt_stdio_output@@QBEIXZ 10022b03 f i libucrt:output.obj
 0001:00021b21       ??$data@D@formatting_buffer@__crt_stdio_output@@QAEPADXZ 10022b21 f i libucrt:output.obj
 0001:00021b31       ??$data@_W@formatting_buffer@__crt_stdio_output@@QAEPA_WXZ 10022b31 f i libucrt:output.obj
 0001:00021b41       ??$ensure_buffer_is_big_enough@D@formatting_buffer@__crt_stdio_output@@QAE_NI@Z 10022b41 f i libucrt:output.obj
 0001:00021be8       ??$extract_argument_from_va_list@C_J@?$positional_parameter_base@DV?$stream_output_adapter@D@__crt_stdio_output@@@__crt_stdio_output@@IAE_NAA_J@Z 10022be8 f i libucrt:output.obj
 0001:00021c86       ??$extract_argument_from_va_list@C_J@?$positional_parameter_base@DV?$string_output_adapter@D@__crt_stdio_output@@@__crt_stdio_output@@IAE_NAA_J@Z 10022c86 f i libucrt:output.obj
 0001:00021d24       ??$extract_argument_from_va_list@C_J@?$positional_parameter_base@_WV?$stream_output_adapter@_W@__crt_stdio_output@@@__crt_stdio_output@@IAE_NAA_J@Z 10022d24 f i libucrt:output.obj
 0001:00021dc2       ??$extract_argument_from_va_list@C_J@?$positional_parameter_base@_WV?$string_output_adapter@_W@__crt_stdio_output@@@__crt_stdio_output@@IAE_NAA_J@Z 10022dc2 f i libucrt:output.obj
 0001:00021e60       ??$extract_argument_from_va_list@C_J@?$standard_base@DV?$stream_output_adapter@D@__crt_stdio_output@@@__crt_stdio_output@@IAE_NAA_J@Z 10022e60 f i libucrt:output.obj
 0001:00021e86       ??$extract_argument_from_va_list@C_J@?$standard_base@DV?$string_output_adapter@D@__crt_stdio_output@@@__crt_stdio_output@@IAE_NAA_J@Z 10022e86 f i libucrt:output.obj
 0001:00021eac       ??$extract_argument_from_va_list@C_J@?$standard_base@_WV?$stream_output_adapter@_W@__crt_stdio_output@@@__crt_stdio_output@@IAE_NAA_J@Z 10022eac f i libucrt:output.obj
 0001:00021ed2       ??$extract_argument_from_va_list@C_J@?$standard_base@_WV?$string_output_adapter@_W@__crt_stdio_output@@@__crt_stdio_output@@IAE_NAA_J@Z 10022ed2 f i libucrt:output.obj
 0001:00021ef8       ??$extract_argument_from_va_list@E_J@?$positional_parameter_base@DV?$stream_output_adapter@D@__crt_stdio_output@@@__crt_stdio_output@@IAE_NAA_J@Z 10022ef8 f i libucrt:output.obj
 0001:00021f96       ??$extract_argument_from_va_list@E_J@?$positional_parameter_base@DV?$string_output_adapter@D@__crt_stdio_output@@@__crt_stdio_output@@IAE_NAA_J@Z 10022f96 f i libucrt:output.obj
 0001:00022034       ??$extract_argument_from_va_list@E_J@?$positional_parameter_base@_WV?$stream_output_adapter@_W@__crt_stdio_output@@@__crt_stdio_output@@IAE_NAA_J@Z 10023034 f i libucrt:output.obj
 0001:000220d2       ??$extract_argument_from_va_list@E_J@?$positional_parameter_base@_WV?$string_output_adapter@_W@__crt_stdio_output@@@__crt_stdio_output@@IAE_NAA_J@Z 100230d2 f i libucrt:output.obj
 0001:00022170       ??$extract_argument_from_va_list@E_J@?$standard_base@DV?$stream_output_adapter@D@__crt_stdio_output@@@__crt_stdio_output@@IAE_NAA_J@Z 10023170 f i libucrt:output.obj
 0001:00022196       ??$extract_argument_from_va_list@E_J@?$standard_base@DV?$string_output_adapter@D@__crt_stdio_output@@@__crt_stdio_output@@IAE_NAA_J@Z 10023196 f i libucrt:output.obj
 0001:000221bc       ??$extract_argument_from_va_list@E_J@?$standard_base@_WV?$stream_output_adapter@_W@__crt_stdio_output@@@__crt_stdio_output@@IAE_NAA_J@Z 100231bc f i libucrt:output.obj
 0001:000221e2       ??$extract_argument_from_va_list@E_J@?$standard_base@_WV?$string_output_adapter@_W@__crt_stdio_output@@@__crt_stdio_output@@IAE_NAA_J@Z 100231e2 f i libucrt:output.obj
 0001:00022208       ??$extract_argument_from_va_list@F_J@?$positional_parameter_base@DV?$stream_output_adapter@D@__crt_stdio_output@@@__crt_stdio_output@@IAE_NAA_J@Z 10023208 f i libucrt:output.obj
 0001:000222a6       ??$extract_argument_from_va_list@F_J@?$positional_parameter_base@DV?$string_output_adapter@D@__crt_stdio_output@@@__crt_stdio_output@@IAE_NAA_J@Z 100232a6 f i libucrt:output.obj
 0001:00022344       ??$extract_argument_from_va_list@F_J@?$positional_parameter_base@_WV?$stream_output_adapter@_W@__crt_stdio_output@@@__crt_stdio_output@@IAE_NAA_J@Z 10023344 f i libucrt:output.obj
 0001:000223e2       ??$extract_argument_from_va_list@F_J@?$positional_parameter_base@_WV?$string_output_adapter@_W@__crt_stdio_output@@@__crt_stdio_output@@IAE_NAA_J@Z 100233e2 f i libucrt:output.obj
 0001:00022480       ??$extract_argument_from_va_list@F_J@?$standard_base@DV?$stream_output_adapter@D@__crt_stdio_output@@@__crt_stdio_output@@IAE_NAA_J@Z 10023480 f i libucrt:output.obj
 0001:000224a6       ??$extract_argument_from_va_list@F_J@?$standard_base@DV?$string_output_adapter@D@__crt_stdio_output@@@__crt_stdio_output@@IAE_NAA_J@Z 100234a6 f i libucrt:output.obj
 0001:000224cc       ??$extract_argument_from_va_list@F_J@?$standard_base@_WV?$stream_output_adapter@_W@__crt_stdio_output@@@__crt_stdio_output@@IAE_NAA_J@Z 100234cc f i libucrt:output.obj
 0001:000224f2       ??$extract_argument_from_va_list@F_J@?$standard_base@_WV?$string_output_adapter@_W@__crt_stdio_output@@@__crt_stdio_output@@IAE_NAA_J@Z 100234f2 f i libucrt:output.obj
 0001:00022518       ??$extract_argument_from_va_list@GD@?$positional_parameter_base@DV?$stream_output_adapter@D@__crt_stdio_output@@@__crt_stdio_output@@IAE_NAAD@Z 10023518 f i libucrt:output.obj
 0001:000225b5       ??$extract_argument_from_va_list@GD@?$positional_parameter_base@DV?$string_output_adapter@D@__crt_stdio_output@@@__crt_stdio_output@@IAE_NAAD@Z 100235b5 f i libucrt:output.obj
 0001:00022652       ??$extract_argument_from_va_list@GD@?$standard_base@DV?$stream_output_adapter@D@__crt_stdio_output@@@__crt_stdio_output@@IAE_NAAD@Z 10023652 f i libucrt:output.obj
 0001:00022672       ??$extract_argument_from_va_list@GD@?$standard_base@DV?$string_output_adapter@D@__crt_stdio_output@@@__crt_stdio_output@@IAE_NAAD@Z 10023672 f i libucrt:output.obj
 0001:00022692       ??$extract_argument_from_va_list@G_J@?$positional_parameter_base@DV?$stream_output_adapter@D@__crt_stdio_output@@@__crt_stdio_output@@IAE_NAA_J@Z 10023692 f i libucrt:output.obj
 0001:00022730       ??$extract_argument_from_va_list@G_J@?$positional_parameter_base@DV?$string_output_adapter@D@__crt_stdio_output@@@__crt_stdio_output@@IAE_NAA_J@Z 10023730 f i libucrt:output.obj
 0001:000227ce       ??$extract_argument_from_va_list@G_J@?$positional_parameter_base@_WV?$stream_output_adapter@_W@__crt_stdio_output@@@__crt_stdio_output@@IAE_NAA_J@Z 100237ce f i libucrt:output.obj
 0001:0002286c       ??$extract_argument_from_va_list@G_J@?$positional_parameter_base@_WV?$string_output_adapter@_W@__crt_stdio_output@@@__crt_stdio_output@@IAE_NAA_J@Z 1002386c f i libucrt:output.obj
 0001:0002290a       ??$extract_argument_from_va_list@G_J@?$standard_base@DV?$stream_output_adapter@D@__crt_stdio_output@@@__crt_stdio_output@@IAE_NAA_J@Z 1002390a f i libucrt:output.obj
 0001:00022930       ??$extract_argument_from_va_list@G_J@?$standard_base@DV?$string_output_adapter@D@__crt_stdio_output@@@__crt_stdio_output@@IAE_NAA_J@Z 10023930 f i libucrt:output.obj
 0001:00022956       ??$extract_argument_from_va_list@G_J@?$standard_base@_WV?$stream_output_adapter@_W@__crt_stdio_output@@@__crt_stdio_output@@IAE_NAA_J@Z 10023956 f i libucrt:output.obj
 0001:0002297c       ??$extract_argument_from_va_list@G_J@?$standard_base@_WV?$string_output_adapter@_W@__crt_stdio_output@@@__crt_stdio_output@@IAE_NAA_J@Z 1002397c f i libucrt:output.obj
 0001:000229a2       ??$extract_argument_from_va_list@H_J@?$positional_parameter_base@DV?$stream_output_adapter@D@__crt_stdio_output@@@__crt_stdio_output@@IAE_NAA_J@Z 100239a2 f i libucrt:output.obj
 0001:00022a3e       ??$extract_argument_from_va_list@H_J@?$positional_parameter_base@DV?$string_output_adapter@D@__crt_stdio_output@@@__crt_stdio_output@@IAE_NAA_J@Z 10023a3e f i libucrt:output.obj
 0001:00022ada       ??$extract_argument_from_va_list@H_J@?$positional_parameter_base@_WV?$stream_output_adapter@_W@__crt_stdio_output@@@__crt_stdio_output@@IAE_NAA_J@Z 10023ada f i libucrt:output.obj
 0001:00022b76       ??$extract_argument_from_va_list@H_J@?$positional_parameter_base@_WV?$string_output_adapter@_W@__crt_stdio_output@@@__crt_stdio_output@@IAE_NAA_J@Z 10023b76 f i libucrt:output.obj
 0001:00022c12       ??$extract_argument_from_va_list@H_J@?$standard_base@DV?$stream_output_adapter@D@__crt_stdio_output@@@__crt_stdio_output@@IAE_NAA_J@Z 10023c12 f i libucrt:output.obj
 0001:00022c37       ??$extract_argument_from_va_list@H_J@?$standard_base@DV?$string_output_adapter@D@__crt_stdio_output@@@__crt_stdio_output@@IAE_NAA_J@Z 10023c37 f i libucrt:output.obj
 0001:00022c5c       ??$extract_argument_from_va_list@H_J@?$standard_base@_WV?$stream_output_adapter@_W@__crt_stdio_output@@@__crt_stdio_output@@IAE_NAA_J@Z 10023c5c f i libucrt:output.obj
 0001:00022c81       ??$extract_argument_from_va_list@H_J@?$standard_base@_WV?$string_output_adapter@_W@__crt_stdio_output@@@__crt_stdio_output@@IAE_NAA_J@Z 10023c81 f i libucrt:output.obj
 0001:00022ca6       ??$extract_argument_from_va_list@I_J@?$positional_parameter_base@DV?$stream_output_adapter@D@__crt_stdio_output@@@__crt_stdio_output@@IAE_NAA_J@Z 10023ca6 f i libucrt:output.obj
 0001:00022d4d       ??$extract_argument_from_va_list@I_J@?$positional_parameter_base@DV?$string_output_adapter@D@__crt_stdio_output@@@__crt_stdio_output@@IAE_NAA_J@Z 10023d4d f i libucrt:output.obj
 0001:00022df4       ??$extract_argument_from_va_list@I_J@?$positional_parameter_base@_WV?$stream_output_adapter@_W@__crt_stdio_output@@@__crt_stdio_output@@IAE_NAA_J@Z 10023df4 f i libucrt:output.obj
 0001:00022e9b       ??$extract_argument_from_va_list@I_J@?$positional_parameter_base@_WV?$string_output_adapter@_W@__crt_stdio_output@@@__crt_stdio_output@@IAE_NAA_J@Z 10023e9b f i libucrt:output.obj
 0001:00022f42       ??$extract_argument_from_va_list@I_J@?$standard_base@DV?$stream_output_adapter@D@__crt_stdio_output@@@__crt_stdio_output@@IAE_NAA_J@Z 10023f42 f i libucrt:output.obj
 0001:00022f67       ??$extract_argument_from_va_list@I_J@?$standard_base@DV?$string_output_adapter@D@__crt_stdio_output@@@__crt_stdio_output@@IAE_NAA_J@Z 10023f67 f i libucrt:output.obj
 0001:00022f8c       ??$extract_argument_from_va_list@I_J@?$standard_base@_WV?$stream_output_adapter@_W@__crt_stdio_output@@@__crt_stdio_output@@IAE_NAA_J@Z 10023f8c f i libucrt:output.obj
 0001:00022fb1       ??$extract_argument_from_va_list@I_J@?$standard_base@_WV?$string_output_adapter@_W@__crt_stdio_output@@@__crt_stdio_output@@IAE_NAA_J@Z 10023fb1 f i libucrt:output.obj
 0001:00022fd6       ??$extract_argument_from_va_list@PADPAD@?$positional_parameter_base@DV?$stream_output_adapter@D@__crt_stdio_output@@@__crt_stdio_output@@IAE_NAAPAD@Z 10023fd6 f i libucrt:output.obj
 0001:00023073       ??$extract_argument_from_va_list@PADPAD@?$positional_parameter_base@DV?$string_output_adapter@D@__crt_stdio_output@@@__crt_stdio_output@@IAE_NAAPAD@Z 10024073 f i libucrt:output.obj
 0001:00023110       ??$extract_argument_from_va_list@PADPAD@?$positional_parameter_base@_WV?$stream_output_adapter@_W@__crt_stdio_output@@@__crt_stdio_output@@IAE_NAAPAD@Z 10024110 f i libucrt:output.obj
 0001:000231ad       ??$extract_argument_from_va_list@PADPAD@?$positional_parameter_base@_WV?$string_output_adapter@_W@__crt_stdio_output@@@__crt_stdio_output@@IAE_NAAPAD@Z 100241ad f i libucrt:output.obj
 0001:0002324a       ??$extract_argument_from_va_list@PADPAD@?$standard_base@DV?$stream_output_adapter@D@__crt_stdio_output@@@__crt_stdio_output@@IAE_NAAPAD@Z 1002424a f i libucrt:output.obj
 0001:0002326a       ??$extract_argument_from_va_list@PADPAD@?$standard_base@DV?$string_output_adapter@D@__crt_stdio_output@@@__crt_stdio_output@@IAE_NAAPAD@Z 1002426a f i libucrt:output.obj
 0001:0002328a       ??$extract_argument_from_va_list@PADPAD@?$standard_base@_WV?$stream_output_adapter@_W@__crt_stdio_output@@@__crt_stdio_output@@IAE_NAAPAD@Z 1002428a f i libucrt:output.obj
 0001:000232aa       ??$extract_argument_from_va_list@PADPAD@?$standard_base@_WV?$string_output_adapter@_W@__crt_stdio_output@@@__crt_stdio_output@@IAE_NAAPAD@Z 100242aa f i libucrt:output.obj
 0001:000232ca       ??$extract_argument_from_va_list@PAUansi_string@?1??type_case_Z@?$output_processor@DV?$stream_output_adapter@D@__crt_stdio_output@@V?$format_validation_base@DV?$stream_output_adapter@D@__crt_stdio_output@@@2@@__crt_stdio_output@@AAE_NXZ@PAU1?1??234@AAE_NXZ@@?$standard_base@DV?$stream_output_adapter@D@__crt_stdio_output@@@__crt_stdio_output@@IAE_NAAPAUansi_string@?1??type_case_Z@?$output_processor@DV?$stream_output_adapter@D@__crt_stdio_output@@V?$format_validation_base@DV?$stream_output_adapter@D@__crt_stdio_output@@@2@@1@AAE_NXZ@@Z 100242ca f i libucrt:output.obj
 0001:000232ea       ??$extract_argument_from_va_list@PAUansi_string@?1??type_case_Z@?$output_processor@DV?$stream_output_adapter@D@__crt_stdio_output@@V?$positional_parameter_base@DV?$stream_output_adapter@D@__crt_stdio_output@@@2@@__crt_stdio_output@@AAE_NXZ@PAU1?1??234@AAE_NXZ@@?$positional_parameter_base@DV?$stream_output_adapter@D@__crt_stdio_output@@@__crt_stdio_output@@IAE_NAAPAUansi_string@?1??type_case_Z@?$output_processor@DV?$stream_output_adapter@D@__crt_stdio_output@@V?$positional_parameter_base@DV?$stream_output_adapter@D@__crt_stdio_output@@@2@@1@AAE_NXZ@@Z 100242ea f i libucrt:output.obj
 0001:00023387       ??$extract_argument_from_va_list@PAUansi_string@?1??type_case_Z@?$output_processor@DV?$stream_output_adapter@D@__crt_stdio_output@@V?$positional_parameter_base@DV?$stream_output_adapter@D@__crt_stdio_output@@@2@@__crt_stdio_output@@AAE_NXZ@PAU1?1??234@AAE_NXZ@@?$standard_base@DV?$stream_output_adapter@D@__crt_stdio_output@@@__crt_stdio_output@@IAE_NAAPAUansi_string@?1??type_case_Z@?$output_processor@DV?$stream_output_adapter@D@__crt_stdio_output@@V?$positional_parameter_base@DV?$stream_output_adapter@D@__crt_stdio_output@@@2@@1@AAE_NXZ@@Z 10024387 f i libucrt:output.obj
 0001:000233a7       ??$extract_argument_from_va_list@PAUansi_string@?1??type_case_Z@?$output_processor@DV?$stream_output_adapter@D@__crt_stdio_output@@V?$standard_base@DV?$stream_output_adapter@D@__crt_stdio_output@@@2@@__crt_stdio_output@@AAE_NXZ@PAU1?1??234@AAE_NXZ@@?$standard_base@DV?$stream_output_adapter@D@__crt_stdio_output@@@__crt_stdio_output@@IAE_NAAPAUansi_string@?1??type_case_Z@?$output_processor@DV?$stream_output_adapter@D@__crt_stdio_output@@V?$standard_base@DV?$stream_output_adapter@D@__crt_stdio_output@@@2@@1@AAE_NXZ@@Z 100243a7 f i libucrt:output.obj
 0001:000233c7       ??$extract_argument_from_va_list@PAUansi_string@?1??type_case_Z@?$output_processor@DV?$string_output_adapter@D@__crt_stdio_output@@V?$format_validation_base@DV?$string_output_adapter@D@__crt_stdio_output@@@2@@__crt_stdio_output@@AAE_NXZ@PAU1?1??234@AAE_NXZ@@?$standard_base@DV?$string_output_adapter@D@__crt_stdio_output@@@__crt_stdio_output@@IAE_NAAPAUansi_string@?1??type_case_Z@?$output_processor@DV?$string_output_adapter@D@__crt_stdio_output@@V?$format_validation_base@DV?$string_output_adapter@D@__crt_stdio_output@@@2@@1@AAE_NXZ@@Z 100243c7 f i libucrt:output.obj
 0001:000233e7       ??$extract_argument_from_va_list@PAUansi_string@?1??type_case_Z@?$output_processor@DV?$string_output_adapter@D@__crt_stdio_output@@V?$positional_parameter_base@DV?$string_output_adapter@D@__crt_stdio_output@@@2@@__crt_stdio_output@@AAE_NXZ@PAU1?1??234@AAE_NXZ@@?$positional_parameter_base@DV?$string_output_adapter@D@__crt_stdio_output@@@__crt_stdio_output@@IAE_NAAPAUansi_string@?1??type_case_Z@?$output_processor@DV?$string_output_adapter@D@__crt_stdio_output@@V?$positional_parameter_base@DV?$string_output_adapter@D@__crt_stdio_output@@@2@@1@AAE_NXZ@@Z 100243e7 f i libucrt:output.obj
 0001:00023484       ??$extract_argument_from_va_list@PAUansi_string@?1??type_case_Z@?$output_processor@DV?$string_output_adapter@D@__crt_stdio_output@@V?$positional_parameter_base@DV?$string_output_adapter@D@__crt_stdio_output@@@2@@__crt_stdio_output@@AAE_NXZ@PAU1?1??234@AAE_NXZ@@?$standard_base@DV?$string_output_adapter@D@__crt_stdio_output@@@__crt_stdio_output@@IAE_NAAPAUansi_string@?1??type_case_Z@?$output_processor@DV?$string_output_adapter@D@__crt_stdio_output@@V?$positional_parameter_base@DV?$string_output_adapter@D@__crt_stdio_output@@@2@@1@AAE_NXZ@@Z 10024484 f i libucrt:output.obj
 0001:000234a4       ??$extract_argument_from_va_list@PAUansi_string@?1??type_case_Z@?$output_processor@DV?$string_output_adapter@D@__crt_stdio_output@@V?$standard_base@DV?$string_output_adapter@D@__crt_stdio_output@@@2@@__crt_stdio_output@@AAE_NXZ@PAU1?1??234@AAE_NXZ@@?$standard_base@DV?$string_output_adapter@D@__crt_stdio_output@@@__crt_stdio_output@@IAE_NAAPAUansi_string@?1??type_case_Z@?$output_processor@DV?$string_output_adapter@D@__crt_stdio_output@@V?$standard_base@DV?$string_output_adapter@D@__crt_stdio_output@@@2@@1@AAE_NXZ@@Z 100244a4 f i libucrt:output.obj
 0001:000234c4       ??$extract_argument_from_va_list@PAUansi_string@?1??type_case_Z@?$output_processor@_WV?$stream_output_adapter@_W@__crt_stdio_output@@V?$format_validation_base@_WV?$stream_output_adapter@_W@__crt_stdio_output@@@2@@__crt_stdio_output@@AAE_NXZ@PAU1?1??234@AAE_NXZ@@?$standard_base@_WV?$stream_output_adapter@_W@__crt_stdio_output@@@__crt_stdio_output@@IAE_NAAPAUansi_string@?1??type_case_Z@?$output_processor@_WV?$stream_output_adapter@_W@__crt_stdio_output@@V?$format_validation_base@_WV?$stream_output_adapter@_W@__crt_stdio_output@@@2@@1@AAE_NXZ@@Z 100244c4 f i libucrt:output.obj
 0001:000234e4       ??$extract_argument_from_va_list@PAUansi_string@?1??type_case_Z@?$output_processor@_WV?$stream_output_adapter@_W@__crt_stdio_output@@V?$positional_parameter_base@_WV?$stream_output_adapter@_W@__crt_stdio_output@@@2@@__crt_stdio_output@@AAE_NXZ@PAU1?1??234@AAE_NXZ@@?$positional_parameter_base@_WV?$stream_output_adapter@_W@__crt_stdio_output@@@__crt_stdio_output@@IAE_NAAPAUansi_string@?1??type_case_Z@?$output_processor@_WV?$stream_output_adapter@_W@__crt_stdio_output@@V?$positional_parameter_base@_WV?$stream_output_adapter@_W@__crt_stdio_output@@@2@@1@AAE_NXZ@@Z 100244e4 f i libucrt:output.obj
 0001:00023581       ??$extract_argument_from_va_list@PAUansi_string@?1??type_case_Z@?$output_processor@_WV?$stream_output_adapter@_W@__crt_stdio_output@@V?$positional_parameter_base@_WV?$stream_output_adapter@_W@__crt_stdio_output@@@2@@__crt_stdio_output@@AAE_NXZ@PAU1?1??234@AAE_NXZ@@?$standard_base@_WV?$stream_output_adapter@_W@__crt_stdio_output@@@__crt_stdio_output@@IAE_NAAPAUansi_string@?1??type_case_Z@?$output_processor@_WV?$stream_output_adapter@_W@__crt_stdio_output@@V?$positional_parameter_base@_WV?$stream_output_adapter@_W@__crt_stdio_output@@@2@@1@AAE_NXZ@@Z 10024581 f i libucrt:output.obj
 0001:000235a1       ??$extract_argument_from_va_list@PAUansi_string@?1??type_case_Z@?$output_processor@_WV?$stream_output_adapter@_W@__crt_stdio_output@@V?$standard_base@_WV?$stream_output_adapter@_W@__crt_stdio_output@@@2@@__crt_stdio_output@@AAE_NXZ@PAU1?1??234@AAE_NXZ@@?$standard_base@_WV?$stream_output_adapter@_W@__crt_stdio_output@@@__crt_stdio_output@@IAE_NAAPAUansi_string@?1??type_case_Z@?$output_processor@_WV?$stream_output_adapter@_W@__crt_stdio_output@@V?$standard_base@_WV?$stream_output_adapter@_W@__crt_stdio_output@@@2@@1@AAE_NXZ@@Z 100245a1 f i libucrt:output.obj
 0001:000235c1       ??$extract_argument_from_va_list@PAUansi_string@?1??type_case_Z@?$output_processor@_WV?$string_output_adapter@_W@__crt_stdio_output@@V?$format_validation_base@_WV?$string_output_adapter@_W@__crt_stdio_output@@@2@@__crt_stdio_output@@AAE_NXZ@PAU1?1??234@AAE_NXZ@@?$standard_base@_WV?$string_output_adapter@_W@__crt_stdio_output@@@__crt_stdio_output@@IAE_NAAPAUansi_string@?1??type_case_Z@?$output_processor@_WV?$string_output_adapter@_W@__crt_stdio_output@@V?$format_validation_base@_WV?$string_output_adapter@_W@__crt_stdio_output@@@2@@1@AAE_NXZ@@Z 100245c1 f i libucrt:output.obj
 0001:000235e1       ??$extract_argument_from_va_list@PAUansi_string@?1??type_case_Z@?$output_processor@_WV?$string_output_adapter@_W@__crt_stdio_output@@V?$positional_parameter_base@_WV?$string_output_adapter@_W@__crt_stdio_output@@@2@@__crt_stdio_output@@AAE_NXZ@PAU1?1??234@AAE_NXZ@@?$positional_parameter_base@_WV?$string_output_adapter@_W@__crt_stdio_output@@@__crt_stdio_output@@IAE_NAAPAUansi_string@?1??type_case_Z@?$output_processor@_WV?$string_output_adapter@_W@__crt_stdio_output@@V?$positional_parameter_base@_WV?$string_output_adapter@_W@__crt_stdio_output@@@2@@1@AAE_NXZ@@Z 100245e1 f i libucrt:output.obj
 0001:0002367e       ??$extract_argument_from_va_list@PAUansi_string@?1??type_case_Z@?$output_processor@_WV?$string_output_adapter@_W@__crt_stdio_output@@V?$positional_parameter_base@_WV?$string_output_adapter@_W@__crt_stdio_output@@@2@@__crt_stdio_output@@AAE_NXZ@PAU1?1??234@AAE_NXZ@@?$standard_base@_WV?$string_output_adapter@_W@__crt_stdio_output@@@__crt_stdio_output@@IAE_NAAPAUansi_string@?1??type_case_Z@?$output_processor@_WV?$string_output_adapter@_W@__crt_stdio_output@@V?$positional_parameter_base@_WV?$string_output_adapter@_W@__crt_stdio_output@@@2@@1@AAE_NXZ@@Z 1002467e f i libucrt:output.obj
 0001:0002369e       ??$extract_argument_from_va_list@PAUansi_string@?1??type_case_Z@?$output_processor@_WV?$string_output_adapter@_W@__crt_stdio_output@@V?$standard_base@_WV?$string_output_adapter@_W@__crt_stdio_output@@@2@@__crt_stdio_output@@AAE_NXZ@PAU1?1??234@AAE_NXZ@@?$standard_base@_WV?$string_output_adapter@_W@__crt_stdio_output@@@__crt_stdio_output@@IAE_NAAPAUansi_string@?1??type_case_Z@?$output_processor@_WV?$string_output_adapter@_W@__crt_stdio_output@@V?$standard_base@_WV?$string_output_adapter@_W@__crt_stdio_output@@@2@@1@AAE_NXZ@@Z 1002469e f i libucrt:output.obj
 0001:000236be       ??$extract_argument_from_va_list@PAXPAX@?$positional_parameter_base@DV?$stream_output_adapter@D@__crt_stdio_output@@@__crt_stdio_output@@IAE_NAAPAX@Z 100246be f i libucrt:output.obj
 0001:0002375b       ??$extract_argument_from_va_list@PAXPAX@?$positional_parameter_base@DV?$string_output_adapter@D@__crt_stdio_output@@@__crt_stdio_output@@IAE_NAAPAX@Z 1002475b f i libucrt:output.obj
 0001:000237f8       ??$extract_argument_from_va_list@PAXPAX@?$positional_parameter_base@_WV?$stream_output_adapter@_W@__crt_stdio_output@@@__crt_stdio_output@@IAE_NAAPAX@Z 100247f8 f i libucrt:output.obj
 0001:00023895       ??$extract_argument_from_va_list@PAXPAX@?$positional_parameter_base@_WV?$string_output_adapter@_W@__crt_stdio_output@@@__crt_stdio_output@@IAE_NAAPAX@Z 10024895 f i libucrt:output.obj
 0001:00023932       ??$extract_argument_from_va_list@PAXPAX@?$standard_base@DV?$stream_output_adapter@D@__crt_stdio_output@@@__crt_stdio_output@@IAE_NAAPAX@Z 10024932 f i libucrt:output.obj
 0001:00023952       ??$extract_argument_from_va_list@PAXPAX@?$standard_base@DV?$string_output_adapter@D@__crt_stdio_output@@@__crt_stdio_output@@IAE_NAAPAX@Z 10024952 f i libucrt:output.obj
 0001:00023972       ??$extract_argument_from_va_list@PAXPAX@?$standard_base@_WV?$stream_output_adapter@_W@__crt_stdio_output@@@__crt_stdio_output@@IAE_NAAPAX@Z 10024972 f i libucrt:output.obj
 0001:00023992       ??$extract_argument_from_va_list@PAXPAX@?$standard_base@_WV?$string_output_adapter@_W@__crt_stdio_output@@@__crt_stdio_output@@IAE_NAAPAX@Z 10024992 f i libucrt:output.obj
 0001:000239b2       ??$extract_argument_from_va_list@U_CRT_DOUBLE@@U1@@?$positional_parameter_base@DV?$stream_output_adapter@D@__crt_stdio_output@@@__crt_stdio_output@@IAE_NAAU_CRT_DOUBLE@@@Z 100249b2 f i libucrt:output.obj
 0001:00023a63       ??$extract_argument_from_va_list@U_CRT_DOUBLE@@U1@@?$positional_parameter_base@DV?$string_output_adapter@D@__crt_stdio_output@@@__crt_stdio_output@@IAE_NAAU_CRT_DOUBLE@@@Z 10024a63 f i libucrt:output.obj
 0001:00023b14       ??$extract_argument_from_va_list@U_CRT_DOUBLE@@U1@@?$positional_parameter_base@_WV?$stream_output_adapter@_W@__crt_stdio_output@@@__crt_stdio_output@@IAE_NAAU_CRT_DOUBLE@@@Z 10024b14 f i libucrt:output.obj
 0001:00023bc5       ??$extract_argument_from_va_list@U_CRT_DOUBLE@@U1@@?$positional_parameter_base@_WV?$string_output_adapter@_W@__crt_stdio_output@@@__crt_stdio_output@@IAE_NAAU_CRT_DOUBLE@@@Z 10024bc5 f i libucrt:output.obj
 0001:00023c76       ??$extract_argument_from_va_list@U_CRT_DOUBLE@@U1@@?$standard_base@DV?$stream_output_adapter@D@__crt_stdio_output@@@__crt_stdio_output@@IAE_NAAU_CRT_DOUBLE@@@Z 10024c76 f i libucrt:output.obj
 0001:00023c9e       ??$extract_argument_from_va_list@U_CRT_DOUBLE@@U1@@?$standard_base@DV?$string_output_adapter@D@__crt_stdio_output@@@__crt_stdio_output@@IAE_NAAU_CRT_DOUBLE@@@Z 10024c9e f i libucrt:output.obj
 0001:00023cc6       ??$extract_argument_from_va_list@U_CRT_DOUBLE@@U1@@?$standard_base@_WV?$stream_output_adapter@_W@__crt_stdio_output@@@__crt_stdio_output@@IAE_NAAU_CRT_DOUBLE@@@Z 10024cc6 f i libucrt:output.obj
 0001:00023cee       ??$extract_argument_from_va_list@U_CRT_DOUBLE@@U1@@?$standard_base@_WV?$string_output_adapter@_W@__crt_stdio_output@@@__crt_stdio_output@@IAE_NAAU_CRT_DOUBLE@@@Z 10024cee f i libucrt:output.obj
 0001:00023d16       ??$extract_argument_from_va_list@_J_J@?$positional_parameter_base@DV?$stream_output_adapter@D@__crt_stdio_output@@@__crt_stdio_output@@IAE_NAA_J@Z 10024d16 f i libucrt:output.obj
 0001:00023dc7       ??$extract_argument_from_va_list@_J_J@?$positional_parameter_base@DV?$string_output_adapter@D@__crt_stdio_output@@@__crt_stdio_output@@IAE_NAA_J@Z 10024dc7 f i libucrt:output.obj
 0001:00023e78       ??$extract_argument_from_va_list@_J_J@?$positional_parameter_base@_WV?$stream_output_adapter@_W@__crt_stdio_output@@@__crt_stdio_output@@IAE_NAA_J@Z 10024e78 f i libucrt:output.obj
 0001:00023f29       ??$extract_argument_from_va_list@_J_J@?$positional_parameter_base@_WV?$string_output_adapter@_W@__crt_stdio_output@@@__crt_stdio_output@@IAE_NAA_J@Z 10024f29 f i libucrt:output.obj
 0001:00023fda       ??$extract_argument_from_va_list@_J_J@?$standard_base@DV?$stream_output_adapter@D@__crt_stdio_output@@@__crt_stdio_output@@IAE_NAA_J@Z 10024fda f i libucrt:output.obj
 0001:00024002       ??$extract_argument_from_va_list@_J_J@?$standard_base@DV?$string_output_adapter@D@__crt_stdio_output@@@__crt_stdio_output@@IAE_NAA_J@Z 10025002 f i libucrt:output.obj
 0001:0002402a       ??$extract_argument_from_va_list@_J_J@?$standard_base@_WV?$stream_output_adapter@_W@__crt_stdio_output@@@__crt_stdio_output@@IAE_NAA_J@Z 1002502a f i libucrt:output.obj
 0001:00024052       ??$extract_argument_from_va_list@_J_J@?$standard_base@_WV?$string_output_adapter@_W@__crt_stdio_output@@@__crt_stdio_output@@IAE_NAA_J@Z 10025052 f i libucrt:output.obj
 0001:0002407a       ??$extract_argument_from_va_list@_K_J@?$positional_parameter_base@DV?$stream_output_adapter@D@__crt_stdio_output@@@__crt_stdio_output@@IAE_NAA_J@Z 1002507a f i libucrt:output.obj
 0001:0002412b       ??$extract_argument_from_va_list@_K_J@?$positional_parameter_base@DV?$string_output_adapter@D@__crt_stdio_output@@@__crt_stdio_output@@IAE_NAA_J@Z 1002512b f i libucrt:output.obj
 0001:000241dc       ??$extract_argument_from_va_list@_K_J@?$positional_parameter_base@_WV?$stream_output_adapter@_W@__crt_stdio_output@@@__crt_stdio_output@@IAE_NAA_J@Z 100251dc f i libucrt:output.obj
 0001:0002428d       ??$extract_argument_from_va_list@_K_J@?$positional_parameter_base@_WV?$string_output_adapter@_W@__crt_stdio_output@@@__crt_stdio_output@@IAE_NAA_J@Z 1002528d f i libucrt:output.obj
 0001:0002433e       ??$extract_argument_from_va_list@_K_J@?$standard_base@DV?$stream_output_adapter@D@__crt_stdio_output@@@__crt_stdio_output@@IAE_NAA_J@Z 1002533e f i libucrt:output.obj
 0001:00024366       ??$extract_argument_from_va_list@_K_J@?$standard_base@DV?$string_output_adapter@D@__crt_stdio_output@@@__crt_stdio_output@@IAE_NAA_J@Z 10025366 f i libucrt:output.obj
 0001:0002438e       ??$extract_argument_from_va_list@_K_J@?$standard_base@_WV?$stream_output_adapter@_W@__crt_stdio_output@@@__crt_stdio_output@@IAE_NAA_J@Z 1002538e f i libucrt:output.obj
 0001:000243b6       ??$extract_argument_from_va_list@_K_J@?$standard_base@_WV?$string_output_adapter@_W@__crt_stdio_output@@@__crt_stdio_output@@IAE_NAA_J@Z 100253b6 f i libucrt:output.obj
 0001:000243de       ??$extract_argument_from_va_list@_W_W@?$positional_parameter_base@DV?$stream_output_adapter@D@__crt_stdio_output@@@__crt_stdio_output@@IAE_NAA_W@Z 100253de f i libucrt:output.obj
 0001:00024480       ??$extract_argument_from_va_list@_W_W@?$positional_parameter_base@DV?$string_output_adapter@D@__crt_stdio_output@@@__crt_stdio_output@@IAE_NAA_W@Z 10025480 f i libucrt:output.obj
 0001:00024522       ??$extract_argument_from_va_list@_W_W@?$positional_parameter_base@_WV?$stream_output_adapter@_W@__crt_stdio_output@@@__crt_stdio_output@@IAE_NAA_W@Z 10025522 f i libucrt:output.obj
 0001:000245c4       ??$extract_argument_from_va_list@_W_W@?$positional_parameter_base@_WV?$string_output_adapter@_W@__crt_stdio_output@@@__crt_stdio_output@@IAE_NAA_W@Z 100255c4 f i libucrt:output.obj
 0001:00024666       ??$extract_argument_from_va_list@_W_W@?$standard_base@DV?$stream_output_adapter@D@__crt_stdio_output@@@__crt_stdio_output@@IAE_NAA_W@Z 10025666 f i libucrt:output.obj
 0001:00024689       ??$extract_argument_from_va_list@_W_W@?$standard_base@DV?$string_output_adapter@D@__crt_stdio_output@@@__crt_stdio_output@@IAE_NAA_W@Z 10025689 f i libucrt:output.obj
 0001:000246ac       ??$extract_argument_from_va_list@_W_W@?$standard_base@_WV?$stream_output_adapter@_W@__crt_stdio_output@@@__crt_stdio_output@@IAE_NAA_W@Z 100256ac f i libucrt:output.obj
 0001:000246cf       ??$extract_argument_from_va_list@_W_W@?$standard_base@_WV?$string_output_adapter@_W@__crt_stdio_output@@@__crt_stdio_output@@IAE_NAA_W@Z 100256cf f i libucrt:output.obj
 0001:000246f2       ??$get_parameter_type@D@?$positional_parameter_base@DV?$stream_output_adapter@D@__crt_stdio_output@@@__crt_stdio_output@@CA?AW4parameter_type@01@PAD@Z 100256f2 f i libucrt:output.obj
 0001:000246f6       ??$get_parameter_type@D@?$positional_parameter_base@DV?$string_output_adapter@D@__crt_stdio_output@@@__crt_stdio_output@@CA?AW4parameter_type@01@PAD@Z 100256f6 f i libucrt:output.obj
 0001:000246fa       ??$get_parameter_type@D@?$positional_parameter_base@_WV?$stream_output_adapter@_W@__crt_stdio_output@@@__crt_stdio_output@@CA?AW4parameter_type@01@PAD@Z 100256fa f i libucrt:output.obj
 0001:000246fe       ??$get_parameter_type@D@?$positional_parameter_base@_WV?$string_output_adapter@_W@__crt_stdio_output@@@__crt_stdio_output@@CA?AW4parameter_type@01@PAD@Z 100256fe f i libucrt:output.obj
 0001:00024702       ??$get_parameter_type@Uansi_string@?1??type_case_Z@?$output_processor@DV?$stream_output_adapter@D@__crt_stdio_output@@V?$positional_parameter_base@DV?$stream_output_adapter@D@__crt_stdio_output@@@2@@__crt_stdio_output@@AAE_NXZ@@?$positional_parameter_base@DV?$stream_output_adapter@D@__crt_stdio_output@@@__crt_stdio_output@@CA?AW4parameter_type@01@PAUansi_string@?1??type_case_Z@?$output_processor@DV?$stream_output_adapter@D@__crt_stdio_output@@V?$positional_parameter_base@DV?$stream_output_adapter@D@__crt_stdio_output@@@2@@1@AAE_NXZ@@Z 10025702 f i libucrt:output.obj
 0001:00024706       ??$get_parameter_type@Uansi_string@?1??type_case_Z@?$output_processor@DV?$string_output_adapter@D@__crt_stdio_output@@V?$positional_parameter_base@DV?$string_output_adapter@D@__crt_stdio_output@@@2@@__crt_stdio_output@@AAE_NXZ@@?$positional_parameter_base@DV?$string_output_adapter@D@__crt_stdio_output@@@__crt_stdio_output@@CA?AW4parameter_type@01@PAUansi_string@?1??type_case_Z@?$output_processor@DV?$string_output_adapter@D@__crt_stdio_output@@V?$positional_parameter_base@DV?$string_output_adapter@D@__crt_stdio_output@@@2@@1@AAE_NXZ@@Z 10025706 f i libucrt:output.obj
 0001:0002470a       ??$get_parameter_type@Uansi_string@?1??type_case_Z@?$output_processor@_WV?$stream_output_adapter@_W@__crt_stdio_output@@V?$positional_parameter_base@_WV?$stream_output_adapter@_W@__crt_stdio_output@@@2@@__crt_stdio_output@@AAE_NXZ@@?$positional_parameter_base@_WV?$stream_output_adapter@_W@__crt_stdio_output@@@__crt_stdio_output@@CA?AW4parameter_type@01@PAUansi_string@?1??type_case_Z@?$output_processor@_WV?$stream_output_adapter@_W@__crt_stdio_output@@V?$positional_parameter_base@_WV?$stream_output_adapter@_W@__crt_stdio_output@@@2@@1@AAE_NXZ@@Z 1002570a f i libucrt:output.obj
 0001:0002470e       ??$get_parameter_type@Uansi_string@?1??type_case_Z@?$output_processor@_WV?$string_output_adapter@_W@__crt_stdio_output@@V?$positional_parameter_base@_WV?$string_output_adapter@_W@__crt_stdio_output@@@2@@__crt_stdio_output@@AAE_NXZ@@?$positional_parameter_base@_WV?$string_output_adapter@_W@__crt_stdio_output@@@__crt_stdio_output@@CA?AW4parameter_type@01@PAUansi_string@?1??type_case_Z@?$output_processor@_WV?$string_output_adapter@_W@__crt_stdio_output@@V?$positional_parameter_base@_WV?$string_output_adapter@_W@__crt_stdio_output@@@2@@1@AAE_NXZ@@Z 1002570e f i libucrt:output.obj
 0001:00024712       ??$get_parameter_type@X@?$positional_parameter_base@DV?$stream_output_adapter@D@__crt_stdio_output@@@__crt_stdio_output@@CA?AW4parameter_type@01@PAX@Z 10025712 f i libucrt:output.obj
 0001:00024716       ??$get_parameter_type@X@?$positional_parameter_base@DV?$string_output_adapter@D@__crt_stdio_output@@@__crt_stdio_output@@CA?AW4parameter_type@01@PAX@Z 10025716 f i libucrt:output.obj
 0001:0002471a       ??$get_parameter_type@X@?$positional_parameter_base@_WV?$stream_output_adapter@_W@__crt_stdio_output@@@__crt_stdio_output@@CA?AW4parameter_type@01@PAX@Z 1002571a f i libucrt:output.obj
 0001:0002471e       ??$get_parameter_type@X@?$positional_parameter_base@_WV?$string_output_adapter@_W@__crt_stdio_output@@@__crt_stdio_output@@CA?AW4parameter_type@01@PAX@Z 1002571e f i libucrt:output.obj
 0001:00024722       ??$is_character_specifier@D@?$positional_parameter_base@DV?$stream_output_adapter@D@__crt_stdio_output@@@__crt_stdio_output@@CA_ND@Z 10025722 f i libucrt:output.obj
 0001:00024741       ??$is_character_specifier@D@?$positional_parameter_base@DV?$string_output_adapter@D@__crt_stdio_output@@@__crt_stdio_output@@CA_ND@Z 10025741 f i libucrt:output.obj
 0001:00024760       ??$is_character_specifier@_W@?$positional_parameter_base@_WV?$stream_output_adapter@_W@__crt_stdio_output@@@__crt_stdio_output@@CA_N_W@Z 10025760 f i libucrt:output.obj
 0001:00024783       ??$is_character_specifier@_W@?$positional_parameter_base@_WV?$string_output_adapter@_W@__crt_stdio_output@@@__crt_stdio_output@@CA_N_W@Z 10025783 f i libucrt:output.obj
 0001:000247a6       ??$is_integral_specifier@D@?$positional_parameter_base@DV?$stream_output_adapter@D@__crt_stdio_output@@@__crt_stdio_output@@CA_ND@Z 100257a6 f i libucrt:output.obj
 0001:000247de       ??$is_integral_specifier@D@?$positional_parameter_base@DV?$string_output_adapter@D@__crt_stdio_output@@@__crt_stdio_output@@CA_ND@Z 100257de f i libucrt:output.obj
 0001:00024816       ??$is_integral_specifier@_W@?$positional_parameter_base@_WV?$stream_output_adapter@_W@__crt_stdio_output@@@__crt_stdio_output@@CA_N_W@Z 10025816 f i libucrt:output.obj
 0001:00024861       ??$is_integral_specifier@_W@?$positional_parameter_base@_WV?$string_output_adapter@_W@__crt_stdio_output@@@__crt_stdio_output@@CA_N_W@Z 10025861 f i libucrt:output.obj
 0001:000248ac       ??$is_pointer_specifier@D@?$positional_parameter_base@DV?$stream_output_adapter@D@__crt_stdio_output@@@__crt_stdio_output@@CA_ND@Z 100258ac f i libucrt:output.obj
 0001:000248c0       ??$is_pointer_specifier@D@?$positional_parameter_base@DV?$string_output_adapter@D@__crt_stdio_output@@@__crt_stdio_output@@CA_ND@Z 100258c0 f i libucrt:output.obj
 0001:000248d4       ??$is_pointer_specifier@_W@?$positional_parameter_base@_WV?$stream_output_adapter@_W@__crt_stdio_output@@@__crt_stdio_output@@CA_N_W@Z 100258d4 f i libucrt:output.obj
 0001:000248e9       ??$is_pointer_specifier@_W@?$positional_parameter_base@_WV?$string_output_adapter@_W@__crt_stdio_output@@@__crt_stdio_output@@CA_N_W@Z 100258e9 f i libucrt:output.obj
 0001:000248fe       ??$is_string_specifier@D@?$positional_parameter_base@DV?$stream_output_adapter@D@__crt_stdio_output@@@__crt_stdio_output@@CA_ND@Z 100258fe f i libucrt:output.obj
 0001:0002491d       ??$is_string_specifier@D@?$positional_parameter_base@DV?$string_output_adapter@D@__crt_stdio_output@@@__crt_stdio_output@@CA_ND@Z 1002591d f i libucrt:output.obj
 0001:0002493c       ??$is_string_specifier@_W@?$positional_parameter_base@_WV?$stream_output_adapter@_W@__crt_stdio_output@@@__crt_stdio_output@@CA_N_W@Z 1002593c f i libucrt:output.obj
 0001:0002495f       ??$is_string_specifier@_W@?$positional_parameter_base@_WV?$string_output_adapter@_W@__crt_stdio_output@@@__crt_stdio_output@@CA_N_W@Z 1002595f f i libucrt:output.obj
 0001:00024982       ??$is_wide_character_specifier@D@__crt_stdio_output@@YA_N_KDW4length_modifier@0@@Z 10025982 f i libucrt:output.obj
 0001:000249d2       ??$is_wide_character_specifier@_W@__crt_stdio_output@@YA_N_K_WW4length_modifier@0@@Z 100259d2 f i libucrt:output.obj
 0001:00024a34       ??$peek_va_arg@C@__crt_stdio_output@@YACPAD@Z 10025a34 f i libucrt:output.obj
 0001:00024a43       ??$peek_va_arg@E@__crt_stdio_output@@YAEPAD@Z 10025a43 f i libucrt:output.obj
 0001:00024a52       ??$peek_va_arg@F@__crt_stdio_output@@YAFPAD@Z 10025a52 f i libucrt:output.obj
 0001:00024a62       ??$peek_va_arg@G@__crt_stdio_output@@YAGPAD@Z 10025a62 f i libucrt:output.obj
 0001:00024a72       ??$peek_va_arg@H@__crt_stdio_output@@YAHPAD@Z 10025a72 f i libucrt:output.obj
 0001:00024a81       ??$peek_va_arg@I@__crt_stdio_output@@YAIPAD@Z 10025a81 f i libucrt:output.obj
 0001:00024a90       ??$peek_va_arg@PAD@__crt_stdio_output@@YAPADPAD@Z 10025a90 f i libucrt:output.obj
 0001:00024a9f       ??$peek_va_arg@PAUansi_string@?1??type_case_Z@?$output_processor@DV?$stream_output_adapter@D@__crt_stdio_output@@V?$positional_parameter_base@DV?$stream_output_adapter@D@__crt_stdio_output@@@2@@__crt_stdio_output@@AAE_NXZ@@__crt_stdio_output@@YAPAUansi_string@?1??type_case_Z@?$output_processor@DV?$stream_output_adapter@D@__crt_stdio_output@@V?$positional_parameter_base@DV?$stream_output_adapter@D@__crt_stdio_output@@@2@@0@AAE_NXZ@PAD@Z 10025a9f f i libucrt:output.obj
 0001:00024aae       ??$peek_va_arg@PAUansi_string@?1??type_case_Z@?$output_processor@DV?$string_output_adapter@D@__crt_stdio_output@@V?$positional_parameter_base@DV?$string_output_adapter@D@__crt_stdio_output@@@2@@__crt_stdio_output@@AAE_NXZ@@__crt_stdio_output@@YAPAUansi_string@?1??type_case_Z@?$output_processor@DV?$string_output_adapter@D@__crt_stdio_output@@V?$positional_parameter_base@DV?$string_output_adapter@D@__crt_stdio_output@@@2@@0@AAE_NXZ@PAD@Z 10025aae f i libucrt:output.obj
 0001:00024abd       ??$peek_va_arg@PAUansi_string@?1??type_case_Z@?$output_processor@_WV?$stream_output_adapter@_W@__crt_stdio_output@@V?$positional_parameter_base@_WV?$stream_output_adapter@_W@__crt_stdio_output@@@2@@__crt_stdio_output@@AAE_NXZ@@__crt_stdio_output@@YAPAUansi_string@?1??type_case_Z@?$output_processor@_WV?$stream_output_adapter@_W@__crt_stdio_output@@V?$positional_parameter_base@_WV?$stream_output_adapter@_W@__crt_stdio_output@@@2@@0@AAE_NXZ@PAD@Z 10025abd f i libucrt:output.obj
 0001:00024acc       ??$peek_va_arg@PAUansi_string@?1??type_case_Z@?$output_processor@_WV?$string_output_adapter@_W@__crt_stdio_output@@V?$positional_parameter_base@_WV?$string_output_adapter@_W@__crt_stdio_output@@@2@@__crt_stdio_output@@AAE_NXZ@@__crt_stdio_output@@YAPAUansi_string@?1??type_case_Z@?$output_processor@_WV?$string_output_adapter@_W@__crt_stdio_output@@V?$positional_parameter_base@_WV?$string_output_adapter@_W@__crt_stdio_output@@@2@@0@AAE_NXZ@PAD@Z 10025acc f i libucrt:output.obj
 0001:00024adb       ??$peek_va_arg@PAX@__crt_stdio_output@@YAPAXPAD@Z 10025adb f i libucrt:output.obj
 0001:00024aea       ??$peek_va_arg@U_CRT_DOUBLE@@@__crt_stdio_output@@YA?AU_CRT_DOUBLE@@PAD@Z 10025aea f i libucrt:output.obj
 0001:00024afc       ??$peek_va_arg@_J@__crt_stdio_output@@YA_JPAD@Z 10025afc f i libucrt:output.obj
 0001:00024b0e       ??$peek_va_arg@_K@__crt_stdio_output@@YA_KPAD@Z 10025b0e f i libucrt:output.obj
 0001:00024b20       ??$peek_va_arg@_W@__crt_stdio_output@@YA_WPAD@Z 10025b20 f i libucrt:output.obj
 0001:00024b30       ??$puttc_nolock@ABDPAU_iobuf@@@?$__crt_char_traits@D@@SAHABD$$QAPAU_iobuf@@@Z 10025b30 f i libucrt:output.obj
 0001:00024b50       ??$puttc_nolock@AB_WPAU_iobuf@@@?$__crt_char_traits@_W@@SAGAB_W$$QAPAU_iobuf@@@Z 10025b50 f i libucrt:output.obj
 0001:00024b70       ??$read_va_arg@C@__crt_stdio_output@@YACAAPAD@Z 10025b70 f i libucrt:output.obj
 0001:00024b86       ??$read_va_arg@E@__crt_stdio_output@@YAEAAPAD@Z 10025b86 f i libucrt:output.obj
 0001:00024b9c       ??$read_va_arg@F@__crt_stdio_output@@YAFAAPAD@Z 10025b9c f i libucrt:output.obj
 0001:00024bb3       ??$read_va_arg@G@__crt_stdio_output@@YAGAAPAD@Z 10025bb3 f i libucrt:output.obj
 0001:00024bca       ??$read_va_arg@H@__crt_stdio_output@@YAHAAPAD@Z 10025bca f i libucrt:output.obj
 0001:00024be0       ??$read_va_arg@I@__crt_stdio_output@@YAIAAPAD@Z 10025be0 f i libucrt:output.obj
 0001:00024bf6       ??$read_va_arg@PAD@__crt_stdio_output@@YAPADAAPAD@Z 10025bf6 f i libucrt:output.obj
 0001:00024c0c       ??$read_va_arg@PAUansi_string@?1??type_case_Z@?$output_processor@DV?$stream_output_adapter@D@__crt_stdio_output@@V?$format_validation_base@DV?$stream_output_adapter@D@__crt_stdio_output@@@2@@__crt_stdio_output@@AAE_NXZ@@__crt_stdio_output@@YAPAUansi_string@?1??type_case_Z@?$output_processor@DV?$stream_output_adapter@D@__crt_stdio_output@@V?$format_validation_base@DV?$stream_output_adapter@D@__crt_stdio_output@@@2@@0@AAE_NXZ@AAPAD@Z 10025c0c f i libucrt:output.obj
 0001:00024c22       ??$read_va_arg@PAUansi_string@?1??type_case_Z@?$output_processor@DV?$stream_output_adapter@D@__crt_stdio_output@@V?$positional_parameter_base@DV?$stream_output_adapter@D@__crt_stdio_output@@@2@@__crt_stdio_output@@AAE_NXZ@@__crt_stdio_output@@YAPAUansi_string@?1??type_case_Z@?$output_processor@DV?$stream_output_adapter@D@__crt_stdio_output@@V?$positional_parameter_base@DV?$stream_output_adapter@D@__crt_stdio_output@@@2@@0@AAE_NXZ@AAPAD@Z 10025c22 f i libucrt:output.obj
 0001:00024c38       ??$read_va_arg@PAUansi_string@?1??type_case_Z@?$output_processor@DV?$stream_output_adapter@D@__crt_stdio_output@@V?$standard_base@DV?$stream_output_adapter@D@__crt_stdio_output@@@2@@__crt_stdio_output@@AAE_NXZ@@__crt_stdio_output@@YAPAUansi_string@?1??type_case_Z@?$output_processor@DV?$stream_output_adapter@D@__crt_stdio_output@@V?$standard_base@DV?$stream_output_adapter@D@__crt_stdio_output@@@2@@0@AAE_NXZ@AAPAD@Z 10025c38 f i libucrt:output.obj
 0001:00024c4e       ??$read_va_arg@PAUansi_string@?1??type_case_Z@?$output_processor@DV?$string_output_adapter@D@__crt_stdio_output@@V?$format_validation_base@DV?$string_output_adapter@D@__crt_stdio_output@@@2@@__crt_stdio_output@@AAE_NXZ@@__crt_stdio_output@@YAPAUansi_string@?1??type_case_Z@?$output_processor@DV?$string_output_adapter@D@__crt_stdio_output@@V?$format_validation_base@DV?$string_output_adapter@D@__crt_stdio_output@@@2@@0@AAE_NXZ@AAPAD@Z 10025c4e f i libucrt:output.obj
 0001:00024c64       ??$read_va_arg@PAUansi_string@?1??type_case_Z@?$output_processor@DV?$string_output_adapter@D@__crt_stdio_output@@V?$positional_parameter_base@DV?$string_output_adapter@D@__crt_stdio_output@@@2@@__crt_stdio_output@@AAE_NXZ@@__crt_stdio_output@@YAPAUansi_string@?1??type_case_Z@?$output_processor@DV?$string_output_adapter@D@__crt_stdio_output@@V?$positional_parameter_base@DV?$string_output_adapter@D@__crt_stdio_output@@@2@@0@AAE_NXZ@AAPAD@Z 10025c64 f i libucrt:output.obj
 0001:00024c7a       ??$read_va_arg@PAUansi_string@?1??type_case_Z@?$output_processor@DV?$string_output_adapter@D@__crt_stdio_output@@V?$standard_base@DV?$string_output_adapter@D@__crt_stdio_output@@@2@@__crt_stdio_output@@AAE_NXZ@@__crt_stdio_output@@YAPAUansi_string@?1??type_case_Z@?$output_processor@DV?$string_output_adapter@D@__crt_stdio_output@@V?$standard_base@DV?$string_output_adapter@D@__crt_stdio_output@@@2@@0@AAE_NXZ@AAPAD@Z 10025c7a f i libucrt:output.obj
 0001:00024c90       ??$read_va_arg@PAUansi_string@?1??type_case_Z@?$output_processor@_WV?$stream_output_adapter@_W@__crt_stdio_output@@V?$format_validation_base@_WV?$stream_output_adapter@_W@__crt_stdio_output@@@2@@__crt_stdio_output@@AAE_NXZ@@__crt_stdio_output@@YAPAUansi_string@?1??type_case_Z@?$output_processor@_WV?$stream_output_adapter@_W@__crt_stdio_output@@V?$format_validation_base@_WV?$stream_output_adapter@_W@__crt_stdio_output@@@2@@0@AAE_NXZ@AAPAD@Z 10025c90 f i libucrt:output.obj
 0001:00024ca6       ??$read_va_arg@PAUansi_string@?1??type_case_Z@?$output_processor@_WV?$stream_output_adapter@_W@__crt_stdio_output@@V?$positional_parameter_base@_WV?$stream_output_adapter@_W@__crt_stdio_output@@@2@@__crt_stdio_output@@AAE_NXZ@@__crt_stdio_output@@YAPAUansi_string@?1??type_case_Z@?$output_processor@_WV?$stream_output_adapter@_W@__crt_stdio_output@@V?$positional_parameter_base@_WV?$stream_output_adapter@_W@__crt_stdio_output@@@2@@0@AAE_NXZ@AAPAD@Z 10025ca6 f i libucrt:output.obj
 0001:00024cbc       ??$read_va_arg@PAUansi_string@?1??type_case_Z@?$output_processor@_WV?$stream_output_adapter@_W@__crt_stdio_output@@V?$standard_base@_WV?$stream_output_adapter@_W@__crt_stdio_output@@@2@@__crt_stdio_output@@AAE_NXZ@@__crt_stdio_output@@YAPAUansi_string@?1??type_case_Z@?$output_processor@_WV?$stream_output_adapter@_W@__crt_stdio_output@@V?$standard_base@_WV?$stream_output_adapter@_W@__crt_stdio_output@@@2@@0@AAE_NXZ@AAPAD@Z 10025cbc f i libucrt:output.obj
 0001:00024cd2       ??$read_va_arg@PAUansi_string@?1??type_case_Z@?$output_processor@_WV?$string_output_adapter@_W@__crt_stdio_output@@V?$format_validation_base@_WV?$string_output_adapter@_W@__crt_stdio_output@@@2@@__crt_stdio_output@@AAE_NXZ@@__crt_stdio_output@@YAPAUansi_string@?1??type_case_Z@?$output_processor@_WV?$string_output_adapter@_W@__crt_stdio_output@@V?$format_validation_base@_WV?$string_output_adapter@_W@__crt_stdio_output@@@2@@0@AAE_NXZ@AAPAD@Z 10025cd2 f i libucrt:output.obj
 0001:00024ce8       ??$read_va_arg@PAUansi_string@?1??type_case_Z@?$output_processor@_WV?$string_output_adapter@_W@__crt_stdio_output@@V?$positional_parameter_base@_WV?$string_output_adapter@_W@__crt_stdio_output@@@2@@__crt_stdio_output@@AAE_NXZ@@__crt_stdio_output@@YAPAUansi_string@?1??type_case_Z@?$output_processor@_WV?$string_output_adapter@_W@__crt_stdio_output@@V?$positional_parameter_base@_WV?$string_output_adapter@_W@__crt_stdio_output@@@2@@0@AAE_NXZ@AAPAD@Z 10025ce8 f i libucrt:output.obj
 0001:00024cfe       ??$read_va_arg@PAUansi_string@?1??type_case_Z@?$output_processor@_WV?$string_output_adapter@_W@__crt_stdio_output@@V?$standard_base@_WV?$string_output_adapter@_W@__crt_stdio_output@@@2@@__crt_stdio_output@@AAE_NXZ@@__crt_stdio_output@@YAPAUansi_string@?1??type_case_Z@?$output_processor@_WV?$string_output_adapter@_W@__crt_stdio_output@@V?$standard_base@_WV?$string_output_adapter@_W@__crt_stdio_output@@@2@@0@AAE_NXZ@AAPAD@Z 10025cfe f i libucrt:output.obj
 0001:00024d14       ??$read_va_arg@PAX@__crt_stdio_output@@YAPAXAAPAD@Z 10025d14 f i libucrt:output.obj
 0001:00024d2a       ??$read_va_arg@U_CRT_DOUBLE@@@__crt_stdio_output@@YA?AU_CRT_DOUBLE@@AAPAD@Z 10025d2a f i libucrt:output.obj
 0001:00024d44       ??$read_va_arg@_J@__crt_stdio_output@@YA_JAAPAD@Z 10025d44 f i libucrt:output.obj
 0001:00024d5e       ??$read_va_arg@_K@__crt_stdio_output@@YA_KAAPAD@Z 10025d5e f i libucrt:output.obj
 0001:00024d78       ??$read_va_arg@_W@__crt_stdio_output@@YA_WAAPAD@Z 10025d78 f i libucrt:output.obj
 0001:00024d8f       ??$scratch_count@D@formatting_buffer@__crt_stdio_output@@QBEIXZ 10025d8f f i libucrt:output.obj
 0001:00024d94       ??$scratch_data@D@formatting_buffer@__crt_stdio_output@@QAEPADXZ 10025d94 f i libucrt:output.obj
 0001:00024db9       ??$tcstol@AAPBDPAPADH@?$__crt_char_traits@D@@SAJAAPBD$$QAPAPAD$$QAH@Z 10025db9 f i libucrt:output.obj
 0001:00024dde       ??$tcstol@AAPB_WPAPA_WH@?$__crt_char_traits@_W@@SAJAAPB_W$$QAPAPA_W$$QAH@Z 10025dde f i libucrt:output.obj
 0001:00024e03       ??$tcstol@PBDPAPADH@?$__crt_char_traits@D@@SAJ$$QAPBD$$QAPAPAD$$QAH@Z 10025e03 f i libucrt:output.obj
 0001:00024e28       ??$tcstol@PB_WPAPA_WH@?$__crt_char_traits@_W@@SAJ$$QAPB_W$$QAPAPA_W$$QAH@Z 10025e28 f i libucrt:output.obj
 0001:00024e4d       ??$type_case_integer_parse_into_buffer@I@?$output_processor@DV?$stream_output_adapter@D@__crt_stdio_output@@V?$format_validation_base@DV?$stream_output_adapter@D@__crt_stdio_output@@@2@@__crt_stdio_output@@AAEXII_N@Z 10025e4d f i libucrt:output.obj
 0001:00024edf       ??$type_case_integer_parse_into_buffer@I@?$output_processor@DV?$stream_output_adapter@D@__crt_stdio_output@@V?$positional_parameter_base@DV?$stream_output_adapter@D@__crt_stdio_output@@@2@@__crt_stdio_output@@AAEXII_N@Z 10025edf f i libucrt:output.obj
 0001:00024f71       ??$type_case_integer_parse_into_buffer@I@?$output_processor@DV?$stream_output_adapter@D@__crt_stdio_output@@V?$standard_base@DV?$stream_output_adapter@D@__crt_stdio_output@@@2@@__crt_stdio_output@@AAEXII_N@Z 10025f71 f i libucrt:output.obj
 0001:00025003       ??$type_case_integer_parse_into_buffer@I@?$output_processor@DV?$string_output_adapter@D@__crt_stdio_output@@V?$format_validation_base@DV?$string_output_adapter@D@__crt_stdio_output@@@2@@__crt_stdio_output@@AAEXII_N@Z 10026003 f i libucrt:output.obj
 0001:00025095       ??$type_case_integer_parse_into_buffer@I@?$output_processor@DV?$string_output_adapter@D@__crt_stdio_output@@V?$positional_parameter_base@DV?$string_output_adapter@D@__crt_stdio_output@@@2@@__crt_stdio_output@@AAEXII_N@Z 10026095 f i libucrt:output.obj
 0001:00025127       ??$type_case_integer_parse_into_buffer@I@?$output_processor@DV?$string_output_adapter@D@__crt_stdio_output@@V?$standard_base@DV?$string_output_adapter@D@__crt_stdio_output@@@2@@__crt_stdio_output@@AAEXII_N@Z 10026127 f i libucrt:output.obj
 0001:000251b9       ??$type_case_integer_parse_into_buffer@I@?$output_processor@_WV?$stream_output_adapter@_W@__crt_stdio_output@@V?$format_validation_base@_WV?$stream_output_adapter@_W@__crt_stdio_output@@@2@@__crt_stdio_output@@AAEXII_N@Z 100261b9 f i libucrt:output.obj
 0001:0002524b       ??$type_case_integer_parse_into_buffer@I@?$output_processor@_WV?$stream_output_adapter@_W@__crt_stdio_output@@V?$positional_parameter_base@_WV?$stream_output_adapter@_W@__crt_stdio_output@@@2@@__crt_stdio_output@@AAEXII_N@Z 1002624b f i libucrt:output.obj
 0001:000252dd       ??$type_case_integer_parse_into_buffer@I@?$output_processor@_WV?$stream_output_adapter@_W@__crt_stdio_output@@V?$standard_base@_WV?$stream_output_adapter@_W@__crt_stdio_output@@@2@@__crt_stdio_output@@AAEXII_N@Z 100262dd f i libucrt:output.obj
 0001:0002536f       ??$type_case_integer_parse_into_buffer@I@?$output_processor@_WV?$string_output_adapter@_W@__crt_stdio_output@@V?$format_validation_base@_WV?$string_output_adapter@_W@__crt_stdio_output@@@2@@__crt_stdio_output@@AAEXII_N@Z 1002636f f i libucrt:output.obj
 0001:00025401       ??$type_case_integer_parse_into_buffer@I@?$output_processor@_WV?$string_output_adapter@_W@__crt_stdio_output@@V?$positional_parameter_base@_WV?$string_output_adapter@_W@__crt_stdio_output@@@2@@__crt_stdio_output@@AAEXII_N@Z 10026401 f i libucrt:output.obj
 0001:00025493       ??$type_case_integer_parse_into_buffer@I@?$output_processor@_WV?$string_output_adapter@_W@__crt_stdio_output@@V?$standard_base@_WV?$string_output_adapter@_W@__crt_stdio_output@@@2@@__crt_stdio_output@@AAEXII_N@Z 10026493 f i libucrt:output.obj
 0001:00025525       ??$type_case_integer_parse_into_buffer@_K@?$output_processor@DV?$stream_output_adapter@D@__crt_stdio_output@@V?$format_validation_base@DV?$stream_output_adapter@D@__crt_stdio_output@@@2@@__crt_stdio_output@@AAEX_KI_N@Z 10026525 f i libucrt:output.obj
 0001:000255cf       ??$type_case_integer_parse_into_buffer@_K@?$output_processor@DV?$stream_output_adapter@D@__crt_stdio_output@@V?$positional_parameter_base@DV?$stream_output_adapter@D@__crt_stdio_output@@@2@@__crt_stdio_output@@AAEX_KI_N@Z 100265cf f i libucrt:output.obj
 0001:00025679       ??$type_case_integer_parse_into_buffer@_K@?$output_processor@DV?$stream_output_adapter@D@__crt_stdio_output@@V?$standard_base@DV?$stream_output_adapter@D@__crt_stdio_output@@@2@@__crt_stdio_output@@AAEX_KI_N@Z 10026679 f i libucrt:output.obj
 0001:00025723       ??$type_case_integer_parse_into_buffer@_K@?$output_processor@DV?$string_output_adapter@D@__crt_stdio_output@@V?$format_validation_base@DV?$string_output_adapter@D@__crt_stdio_output@@@2@@__crt_stdio_output@@AAEX_KI_N@Z 10026723 f i libucrt:output.obj
 0001:000257cd       ??$type_case_integer_parse_into_buffer@_K@?$output_processor@DV?$string_output_adapter@D@__crt_stdio_output@@V?$positional_parameter_base@DV?$string_output_adapter@D@__crt_stdio_output@@@2@@__crt_stdio_output@@AAEX_KI_N@Z 100267cd f i libucrt:output.obj
 0001:00025877       ??$type_case_integer_parse_into_buffer@_K@?$output_processor@DV?$string_output_adapter@D@__crt_stdio_output@@V?$standard_base@DV?$string_output_adapter@D@__crt_stdio_output@@@2@@__crt_stdio_output@@AAEX_KI_N@Z 10026877 f i libucrt:output.obj
 0001:00025921       ??$type_case_integer_parse_into_buffer@_K@?$output_processor@_WV?$stream_output_adapter@_W@__crt_stdio_output@@V?$format_validation_base@_WV?$stream_output_adapter@_W@__crt_stdio_output@@@2@@__crt_stdio_output@@AAEX_KI_N@Z 10026921 f i libucrt:output.obj
 0001:000259cb       ??$type_case_integer_parse_into_buffer@_K@?$output_processor@_WV?$stream_output_adapter@_W@__crt_stdio_output@@V?$positional_parameter_base@_WV?$stream_output_adapter@_W@__crt_stdio_output@@@2@@__crt_stdio_output@@AAEX_KI_N@Z 100269cb f i libucrt:output.obj
 0001:00025a75       ??$type_case_integer_parse_into_buffer@_K@?$output_processor@_WV?$stream_output_adapter@_W@__crt_stdio_output@@V?$standard_base@_WV?$stream_output_adapter@_W@__crt_stdio_output@@@2@@__crt_stdio_output@@AAEX_KI_N@Z 10026a75 f i libucrt:output.obj
 0001:00025b1f       ??$type_case_integer_parse_into_buffer@_K@?$output_processor@_WV?$string_output_adapter@_W@__crt_stdio_output@@V?$format_validation_base@_WV?$string_output_adapter@_W@__crt_stdio_output@@@2@@__crt_stdio_output@@AAEX_KI_N@Z 10026b1f f i libucrt:output.obj
 0001:00025bc9       ??$type_case_integer_parse_into_buffer@_K@?$output_processor@_WV?$string_output_adapter@_W@__crt_stdio_output@@V?$positional_parameter_base@_WV?$string_output_adapter@_W@__crt_stdio_output@@@2@@__crt_stdio_output@@AAEX_KI_N@Z 10026bc9 f i libucrt:output.obj
 0001:00025c73       ??$type_case_integer_parse_into_buffer@_K@?$output_processor@_WV?$string_output_adapter@_W@__crt_stdio_output@@V?$standard_base@_WV?$string_output_adapter@_W@__crt_stdio_output@@@2@@__crt_stdio_output@@AAEX_KI_N@Z 10026c73 f i libucrt:output.obj
 0001:00025d1d       ??$write_multiple_characters@V?$stream_output_adapter@D@__crt_stdio_output@@D@__crt_stdio_output@@YAXABV?$stream_output_adapter@D@0@DHQAH@Z 10026d1d f i libucrt:output.obj
 0001:00025d54       ??$write_multiple_characters@V?$stream_output_adapter@_W@__crt_stdio_output@@D@__crt_stdio_output@@YAXABV?$stream_output_adapter@_W@0@DHQAH@Z 10026d54 f i libucrt:output.obj
 0001:00025d91       ??$write_multiple_characters@V?$string_output_adapter@D@__crt_stdio_output@@D@__crt_stdio_output@@YAXABV?$string_output_adapter@D@0@DHQAH@Z 10026d91 f i libucrt:output.obj
 0001:00025dc8       ??$write_multiple_characters@V?$string_output_adapter@_W@__crt_stdio_output@@D@__crt_stdio_output@@YAXABV?$string_output_adapter@_W@0@DHQAH@Z 10026dc8 f i libucrt:output.obj
 0001:00026039       ??0?$common_data@D@__crt_stdio_output@@IAE@XZ 10027039 f i libucrt:output.obj
 0001:00026091       ??0?$common_data@_W@__crt_stdio_output@@IAE@XZ 10027091 f i libucrt:output.obj
 0001:000260f0       ??0?$output_adapter_data@DV?$stream_output_adapter@D@__crt_stdio_output@@@__crt_stdio_output@@IAE@ABV?$stream_output_adapter@D@1@_KQBDQAU__crt_locale_pointers@@QAD@Z 100270f0 f i libucrt:output.obj
 0001:0002613b       ??0?$output_adapter_data@DV?$string_output_adapter@D@__crt_stdio_output@@@__crt_stdio_output@@IAE@ABV?$string_output_adapter@D@1@_KQBDQAU__crt_locale_pointers@@QAD@Z 1002713b f i libucrt:output.obj
 0001:00026186       ??0?$output_adapter_data@_WV?$stream_output_adapter@_W@__crt_stdio_output@@@__crt_stdio_output@@IAE@ABV?$stream_output_adapter@_W@1@_KQB_WQAU__crt_locale_pointers@@QAD@Z 10027186 f i libucrt:output.obj
 0001:000261d1       ??0?$output_adapter_data@_WV?$string_output_adapter@_W@__crt_stdio_output@@@__crt_stdio_output@@IAE@ABV?$string_output_adapter@_W@1@_KQB_WQAU__crt_locale_pointers@@QAD@Z 100271d1 f i libucrt:output.obj
 0001:0002621c       ??0?$output_processor@DV?$stream_output_adapter@D@__crt_stdio_output@@V?$format_validation_base@DV?$stream_output_adapter@D@__crt_stdio_output@@@2@@__crt_stdio_output@@QAE@ABV?$stream_output_adapter@D@1@_KQBDQAU__crt_locale_pointers@@QAD@Z 1002721c f i libucrt:output.obj
 0001:0002625e       ??0?$output_processor@DV?$stream_output_adapter@D@__crt_stdio_output@@V?$positional_parameter_base@DV?$stream_output_adapter@D@__crt_stdio_output@@@2@@__crt_stdio_output@@QAE@ABV?$stream_output_adapter@D@1@_KQBDQAU__crt_locale_pointers@@QAD@Z 1002725e f i libucrt:output.obj
 0001:00026298       ??0?$output_processor@DV?$stream_output_adapter@D@__crt_stdio_output@@V?$standard_base@DV?$stream_output_adapter@D@__crt_stdio_output@@@2@@__crt_stdio_output@@QAE@ABV?$stream_output_adapter@D@1@_KQBDQAU__crt_locale_pointers@@QAD@Z 10027298 f i libucrt:output.obj
 0001:000262da       ??0?$output_processor@DV?$string_output_adapter@D@__crt_stdio_output@@V?$format_validation_base@DV?$string_output_adapter@D@__crt_stdio_output@@@2@@__crt_stdio_output@@QAE@ABV?$string_output_adapter@D@1@_KQBDQAU__crt_locale_pointers@@QAD@Z 100272da f i libucrt:output.obj
 0001:0002631c       ??0?$output_processor@DV?$string_output_adapter@D@__crt_stdio_output@@V?$positional_parameter_base@DV?$string_output_adapter@D@__crt_stdio_output@@@2@@__crt_stdio_output@@QAE@ABV?$string_output_adapter@D@1@_KQBDQAU__crt_locale_pointers@@QAD@Z 1002731c f i libucrt:output.obj
 0001:00026356       ??0?$output_processor@DV?$string_output_adapter@D@__crt_stdio_output@@V?$standard_base@DV?$string_output_adapter@D@__crt_stdio_output@@@2@@__crt_stdio_output@@QAE@ABV?$string_output_adapter@D@1@_KQBDQAU__crt_locale_pointers@@QAD@Z 10027356 f i libucrt:output.obj
 0001:00026398       ??0?$output_processor@_WV?$stream_output_adapter@_W@__crt_stdio_output@@V?$format_validation_base@_WV?$stream_output_adapter@_W@__crt_stdio_output@@@2@@__crt_stdio_output@@QAE@ABV?$stream_output_adapter@_W@1@_KQB_WQAU__crt_locale_pointers@@QAD@Z 10027398 f i libucrt:output.obj
 0001:000263da       ??0?$output_processor@_WV?$stream_output_adapter@_W@__crt_stdio_output@@V?$positional_parameter_base@_WV?$stream_output_adapter@_W@__crt_stdio_output@@@2@@__crt_stdio_output@@QAE@ABV?$stream_output_adapter@_W@1@_KQB_WQAU__crt_locale_pointers@@QAD@Z 100273da f i libucrt:output.obj
 0001:00026414       ??0?$output_processor@_WV?$stream_output_adapter@_W@__crt_stdio_output@@V?$standard_base@_WV?$stream_output_adapter@_W@__crt_stdio_output@@@2@@__crt_stdio_output@@QAE@ABV?$stream_output_adapter@_W@1@_KQB_WQAU__crt_locale_pointers@@QAD@Z 10027414 f i libucrt:output.obj
 0001:00026456       ??0?$output_processor@_WV?$string_output_adapter@_W@__crt_stdio_output@@V?$format_validation_base@_WV?$string_output_adapter@_W@__crt_stdio_output@@@2@@__crt_stdio_output@@QAE@ABV?$string_output_adapter@_W@1@_KQB_WQAU__crt_locale_pointers@@QAD@Z 10027456 f i libucrt:output.obj
 0001:00026498       ??0?$output_processor@_WV?$string_output_adapter@_W@__crt_stdio_output@@V?$positional_parameter_base@_WV?$string_output_adapter@_W@__crt_stdio_output@@@2@@__crt_stdio_output@@QAE@ABV?$string_output_adapter@_W@1@_KQB_WQAU__crt_locale_pointers@@QAD@Z 10027498 f i libucrt:output.obj
 0001:000264d2       ??0?$output_processor@_WV?$string_output_adapter@_W@__crt_stdio_output@@V?$standard_base@_WV?$string_output_adapter@_W@__crt_stdio_output@@@2@@__crt_stdio_output@@QAE@ABV?$string_output_adapter@_W@1@_KQB_WQAU__crt_locale_pointers@@QAD@Z 100274d2 f i libucrt:output.obj
 0001:00026514       ??0?$stream_output_adapter@D@__crt_stdio_output@@QAE@QAU_iobuf@@@Z 10027514 f i libucrt:output.obj
 0001:00026528       ??0?$stream_output_adapter@_W@__crt_stdio_output@@QAE@QAU_iobuf@@@Z 10027528 f i libucrt:output.obj
 0001:0002653c       ??0?$string_output_adapter@D@__crt_stdio_output@@QAE@QAU?$string_output_adapter_context@D@1@@Z 1002753c f i libucrt:output.obj
 0001:00026550       ??0?$string_output_adapter@_W@__crt_stdio_output@@QAE@QAU?$string_output_adapter_context@_W@1@@Z 10027550 f i libucrt:output.obj
 0001:00026564       ??0_LocaleUpdate@@QAE@QAU__crt_locale_pointers@@@Z 10027564 f i libucrt:output.obj
 0001:00026607       ??0__acrt_stdio_temporary_buffering_guard@@QAE@QAU_iobuf@@@Z 10027607 f i libucrt:output.obj
 0001:0002662c       ??0__crt_errno_guard@@QAE@QAH@Z 1002762c f i libucrt:output.obj
 0001:0002664a       ??0formatting_buffer@__crt_stdio_output@@QAE@XZ 1002764a f i libucrt:output.obj
 0001:0002665f       ??1?$common_data@D@__crt_stdio_output@@QAE@XZ 1002765f f i libucrt:output.obj
 0001:00026669       ??1?$common_data@_W@__crt_stdio_output@@QAE@XZ 10027669 f i libucrt:output.obj
 0001:00026673       ??1?$format_validation_base@DV?$stream_output_adapter@D@__crt_stdio_output@@@__crt_stdio_output@@QAE@XZ 10027673 f i libucrt:output.obj
 0001:0002667d       ??1?$format_validation_base@DV?$string_output_adapter@D@__crt_stdio_output@@@__crt_stdio_output@@QAE@XZ 1002767d f i libucrt:output.obj
 0001:00026687       ??1?$format_validation_base@_WV?$stream_output_adapter@_W@__crt_stdio_output@@@__crt_stdio_output@@QAE@XZ 10027687 f i libucrt:output.obj
 0001:00026691       ??1?$format_validation_base@_WV?$string_output_adapter@_W@__crt_stdio_output@@@__crt_stdio_output@@QAE@XZ 10027691 f i libucrt:output.obj
 0001:0002669b       ??1?$output_adapter_data@DV?$stream_output_adapter@D@__crt_stdio_output@@@__crt_stdio_output@@QAE@XZ 1002769b f i libucrt:output.obj
 0001:000266a5       ??1?$output_adapter_data@DV?$string_output_adapter@D@__crt_stdio_output@@@__crt_stdio_output@@QAE@XZ 100276a5 f i libucrt:output.obj
 0001:000266af       ??1?$output_adapter_data@_WV?$stream_output_adapter@_W@__crt_stdio_output@@@__crt_stdio_output@@QAE@XZ 100276af f i libucrt:output.obj
 0001:000266b9       ??1?$output_adapter_data@_WV?$string_output_adapter@_W@__crt_stdio_output@@@__crt_stdio_output@@QAE@XZ 100276b9 f i libucrt:output.obj
 0001:000266c3       ??1?$output_processor@DV?$stream_output_adapter@D@__crt_stdio_output@@V?$format_validation_base@DV?$stream_output_adapter@D@__crt_stdio_output@@@2@@__crt_stdio_output@@QAE@XZ 100276c3 f i libucrt:output.obj
 0001:000266cd       ??1?$output_processor@DV?$stream_output_adapter@D@__crt_stdio_output@@V?$positional_parameter_base@DV?$stream_output_adapter@D@__crt_stdio_output@@@2@@__crt_stdio_output@@QAE@XZ 100276cd f i libucrt:output.obj
 0001:000266d7       ??1?$output_processor@DV?$stream_output_adapter@D@__crt_stdio_output@@V?$standard_base@DV?$stream_output_adapter@D@__crt_stdio_output@@@2@@__crt_stdio_output@@QAE@XZ 100276d7 f i libucrt:output.obj
 0001:000266e1       ??1?$output_processor@DV?$string_output_adapter@D@__crt_stdio_output@@V?$format_validation_base@DV?$string_output_adapter@D@__crt_stdio_output@@@2@@__crt_stdio_output@@QAE@XZ 100276e1 f i libucrt:output.obj
 0001:000266eb       ??1?$output_processor@DV?$string_output_adapter@D@__crt_stdio_output@@V?$positional_parameter_base@DV?$string_output_adapter@D@__crt_stdio_output@@@2@@__crt_stdio_output@@QAE@XZ 100276eb f i libucrt:output.obj
 0001:000266f5       ??1?$output_processor@DV?$string_output_adapter@D@__crt_stdio_output@@V?$standard_base@DV?$string_output_adapter@D@__crt_stdio_output@@@2@@__crt_stdio_output@@QAE@XZ 100276f5 f i libucrt:output.obj
 0001:000266ff       ??1?$output_processor@_WV?$stream_output_adapter@_W@__crt_stdio_output@@V?$format_validation_base@_WV?$stream_output_adapter@_W@__crt_stdio_output@@@2@@__crt_stdio_output@@QAE@XZ 100276ff f i libucrt:output.obj
 0001:00026709       ??1?$output_processor@_WV?$stream_output_adapter@_W@__crt_stdio_output@@V?$positional_parameter_base@_WV?$stream_output_adapter@_W@__crt_stdio_output@@@2@@__crt_stdio_output@@QAE@XZ 10027709 f i libucrt:output.obj
 0001:00026713       ??1?$output_processor@_WV?$stream_output_adapter@_W@__crt_stdio_output@@V?$standard_base@_WV?$stream_output_adapter@_W@__crt_stdio_output@@@2@@__crt_stdio_output@@QAE@XZ 10027713 f i libucrt:output.obj
 0001:0002671d       ??1?$output_processor@_WV?$string_output_adapter@_W@__crt_stdio_output@@V?$format_validation_base@_WV?$string_output_adapter@_W@__crt_stdio_output@@@2@@__crt_stdio_output@@QAE@XZ 1002771d f i libucrt:output.obj
 0001:00026727       ??1?$output_processor@_WV?$string_output_adapter@_W@__crt_stdio_output@@V?$positional_parameter_base@_WV?$string_output_adapter@_W@__crt_stdio_output@@@2@@__crt_stdio_output@@QAE@XZ 10027727 f i libucrt:output.obj
 0001:00026731       ??1?$output_processor@_WV?$string_output_adapter@_W@__crt_stdio_output@@V?$standard_base@_WV?$string_output_adapter@_W@__crt_stdio_output@@@2@@__crt_stdio_output@@QAE@XZ 10027731 f i libucrt:output.obj
 0001:0002673b       ??1?$positional_parameter_base@DV?$stream_output_adapter@D@__crt_stdio_output@@@__crt_stdio_output@@QAE@XZ 1002773b f i libucrt:output.obj
 0001:00026745       ??1?$positional_parameter_base@DV?$string_output_adapter@D@__crt_stdio_output@@@__crt_stdio_output@@QAE@XZ 10027745 f i libucrt:output.obj
 0001:0002674f       ??1?$positional_parameter_base@_WV?$stream_output_adapter@_W@__crt_stdio_output@@@__crt_stdio_output@@QAE@XZ 1002774f f i libucrt:output.obj
 0001:00026759       ??1?$positional_parameter_base@_WV?$string_output_adapter@_W@__crt_stdio_output@@@__crt_stdio_output@@QAE@XZ 10027759 f i libucrt:output.obj
 0001:00026763       ??1?$standard_base@DV?$stream_output_adapter@D@__crt_stdio_output@@@__crt_stdio_output@@QAE@XZ 10027763 f i libucrt:output.obj
 0001:0002676d       ??1?$standard_base@DV?$string_output_adapter@D@__crt_stdio_output@@@__crt_stdio_output@@QAE@XZ 1002776d f i libucrt:output.obj
 0001:00026777       ??1?$standard_base@_WV?$stream_output_adapter@_W@__crt_stdio_output@@@__crt_stdio_output@@QAE@XZ 10027777 f i libucrt:output.obj
 0001:00026781       ??1?$standard_base@_WV?$string_output_adapter@_W@__crt_stdio_output@@@__crt_stdio_output@@QAE@XZ 10027781 f i libucrt:output.obj
 0001:0002678b       ??1_LocaleUpdate@@QAE@XZ   1002778b f i libucrt:output.obj
 0001:0002679f       ??1__acrt_stdio_temporary_buffering_guard@@QAE@XZ 1002779f f i libucrt:output.obj
 0001:000267b1       ??1__crt_errno_guard@@QAE@XZ 100277b1 f i libucrt:output.obj
 0001:000267c6       ??1formatting_buffer@__crt_stdio_output@@QAE@XZ 100277c6 f i libucrt:output.obj
 0001:000267e6       ??4?$__crt_unique_heap_ptr@DU__crt_internal_free_policy@@@@QAEAAV0@$$QAV0@@Z 100277e6 f i libucrt:output.obj
 0001:00026ec9       ?GetLocaleT@_LocaleUpdate@@QAEPAU__crt_locale_pointers@@XZ 10027ec9 f i libucrt:output.obj
 0001:00026ecd       ?__crt_interlocked_read_32@@YAHPDH@Z 10027ecd f i libucrt:output.obj
 0001:00026edc       ?adjust_hexit@?$output_processor@DV?$stream_output_adapter@D@__crt_stdio_output@@V?$format_validation_base@DV?$stream_output_adapter@D@__crt_stdio_output@@@2@@__crt_stdio_output@@CADH_N@Z 10027edc f i libucrt:output.obj
 0001:00026f01       ?adjust_hexit@?$output_processor@DV?$stream_output_adapter@D@__crt_stdio_output@@V?$positional_parameter_base@DV?$stream_output_adapter@D@__crt_stdio_output@@@2@@__crt_stdio_output@@CADH_N@Z 10027f01 f i libucrt:output.obj
 0001:00026f26       ?adjust_hexit@?$output_processor@DV?$stream_output_adapter@D@__crt_stdio_output@@V?$standard_base@DV?$stream_output_adapter@D@__crt_stdio_output@@@2@@__crt_stdio_output@@CADH_N@Z 10027f26 f i libucrt:output.obj
 0001:00026f4b       ?adjust_hexit@?$output_processor@DV?$string_output_adapter@D@__crt_stdio_output@@V?$format_validation_base@DV?$string_output_adapter@D@__crt_stdio_output@@@2@@__crt_stdio_output@@CADH_N@Z 10027f4b f i libucrt:output.obj
 0001:00026f70       ?adjust_hexit@?$output_processor@DV?$string_output_adapter@D@__crt_stdio_output@@V?$positional_parameter_base@DV?$string_output_adapter@D@__crt_stdio_output@@@2@@__crt_stdio_output@@CADH_N@Z 10027f70 f i libucrt:output.obj
 0001:00026f95       ?adjust_hexit@?$output_processor@DV?$string_output_adapter@D@__crt_stdio_output@@V?$standard_base@DV?$string_output_adapter@D@__crt_stdio_output@@@2@@__crt_stdio_output@@CADH_N@Z 10027f95 f i libucrt:output.obj
 0001:00026fba       ?adjust_hexit@?$output_processor@_WV?$stream_output_adapter@_W@__crt_stdio_output@@V?$format_validation_base@_WV?$stream_output_adapter@_W@__crt_stdio_output@@@2@@__crt_stdio_output@@CADH_N@Z 10027fba f i libucrt:output.obj
 0001:00026fdf       ?adjust_hexit@?$output_processor@_WV?$stream_output_adapter@_W@__crt_stdio_output@@V?$positional_parameter_base@_WV?$stream_output_adapter@_W@__crt_stdio_output@@@2@@__crt_stdio_output@@CADH_N@Z 10027fdf f i libucrt:output.obj
 0001:00027004       ?adjust_hexit@?$output_processor@_WV?$stream_output_adapter@_W@__crt_stdio_output@@V?$standard_base@_WV?$stream_output_adapter@_W@__crt_stdio_output@@@2@@__crt_stdio_output@@CADH_N@Z 10028004 f i libucrt:output.obj
 0001:00027029       ?adjust_hexit@?$output_processor@_WV?$string_output_adapter@_W@__crt_stdio_output@@V?$format_validation_base@_WV?$string_output_adapter@_W@__crt_stdio_output@@@2@@__crt_stdio_output@@CADH_N@Z 10028029 f i libucrt:output.obj
 0001:0002704e       ?adjust_hexit@?$output_processor@_WV?$string_output_adapter@_W@__crt_stdio_output@@V?$positional_parameter_base@_WV?$string_output_adapter@_W@__crt_stdio_output@@@2@@__crt_stdio_output@@CADH_N@Z 1002804e f i libucrt:output.obj
 0001:00027073       ?adjust_hexit@?$output_processor@_WV?$string_output_adapter@_W@__crt_stdio_output@@V?$standard_base@_WV?$string_output_adapter@_W@__crt_stdio_output@@@2@@__crt_stdio_output@@CADH_N@Z 10028073 f i libucrt:output.obj
 0001:00027098       ?advance_to_next_pass@?$positional_parameter_base@DV?$stream_output_adapter@D@__crt_stdio_output@@@__crt_stdio_output@@IAE_NXZ 10028098 f i libucrt:output.obj
 0001:000270f7       ?advance_to_next_pass@?$positional_parameter_base@DV?$string_output_adapter@D@__crt_stdio_output@@@__crt_stdio_output@@IAE_NXZ 100280f7 f i libucrt:output.obj
 0001:00027156       ?advance_to_next_pass@?$positional_parameter_base@_WV?$stream_output_adapter@_W@__crt_stdio_output@@@__crt_stdio_output@@IAE_NXZ 10028156 f i libucrt:output.obj
 0001:000271b5       ?advance_to_next_pass@?$positional_parameter_base@_WV?$string_output_adapter@_W@__crt_stdio_output@@@__crt_stdio_output@@IAE_NXZ 100281b5 f i libucrt:output.obj
 0001:00027214       ?advance_to_next_pass@?$standard_base@DV?$stream_output_adapter@D@__crt_stdio_output@@@__crt_stdio_output@@IAE_NXZ 10028214 f i libucrt:output.obj
 0001:0002722b       ?advance_to_next_pass@?$standard_base@DV?$string_output_adapter@D@__crt_stdio_output@@@__crt_stdio_output@@IAE_NXZ 1002822b f i libucrt:output.obj
 0001:00027242       ?advance_to_next_pass@?$standard_base@_WV?$stream_output_adapter@_W@__crt_stdio_output@@@__crt_stdio_output@@IAE_NXZ 10028242 f i libucrt:output.obj
 0001:00027259       ?advance_to_next_pass@?$standard_base@_WV?$string_output_adapter@_W@__crt_stdio_output@@@__crt_stdio_output@@IAE_NXZ 10028259 f i libucrt:output.obj
 0001:00027270       ?crop_zeroes@__crt_stdio_output@@YAXPADQAU__crt_locale_pointers@@@Z 10028270 f i libucrt:output.obj
 0001:000272dc       ?find_next_state@?$output_processor@DV?$stream_output_adapter@D@__crt_stdio_output@@V?$format_validation_base@DV?$stream_output_adapter@D@__crt_stdio_output@@@2@@__crt_stdio_output@@ABE?AW4state@2@DW432@@Z 100282dc f i libucrt:output.obj
 0001:0002731e       ?find_next_state@?$output_processor@DV?$stream_output_adapter@D@__crt_stdio_output@@V?$positional_parameter_base@DV?$stream_output_adapter@D@__crt_stdio_output@@@2@@__crt_stdio_output@@ABE?AW4state@2@DW432@@Z 1002831e f i libucrt:output.obj
 0001:00027360       ?find_next_state@?$output_processor@DV?$stream_output_adapter@D@__crt_stdio_output@@V?$standard_base@DV?$stream_output_adapter@D@__crt_stdio_output@@@2@@__crt_stdio_output@@ABE?AW4state@2@DW432@@Z 10028360 f i libucrt:output.obj
 0001:0002739e       ?find_next_state@?$output_processor@DV?$string_output_adapter@D@__crt_stdio_output@@V?$format_validation_base@DV?$string_output_adapter@D@__crt_stdio_output@@@2@@__crt_stdio_output@@ABE?AW4state@2@DW432@@Z 1002839e f i libucrt:output.obj
 0001:000273e0       ?find_next_state@?$output_processor@DV?$string_output_adapter@D@__crt_stdio_output@@V?$positional_parameter_base@DV?$string_output_adapter@D@__crt_stdio_output@@@2@@__crt_stdio_output@@ABE?AW4state@2@DW432@@Z 100283e0 f i libucrt:output.obj
 0001:00027422       ?find_next_state@?$output_processor@DV?$string_output_adapter@D@__crt_stdio_output@@V?$standard_base@DV?$string_output_adapter@D@__crt_stdio_output@@@2@@__crt_stdio_output@@ABE?AW4state@2@DW432@@Z 10028422 f i libucrt:output.obj
 0001:00027460       ?find_next_state@?$output_processor@_WV?$stream_output_adapter@_W@__crt_stdio_output@@V?$format_validation_base@_WV?$stream_output_adapter@_W@__crt_stdio_output@@@2@@__crt_stdio_output@@ABE?AW4state@2@_WW432@@Z 10028460 f i libucrt:output.obj
 0001:000274a4       ?find_next_state@?$output_processor@_WV?$stream_output_adapter@_W@__crt_stdio_output@@V?$positional_parameter_base@_WV?$stream_output_adapter@_W@__crt_stdio_output@@@2@@__crt_stdio_output@@ABE?AW4state@2@_WW432@@Z 100284a4 f i libucrt:output.obj
 0001:000274e8       ?find_next_state@?$output_processor@_WV?$stream_output_adapter@_W@__crt_stdio_output@@V?$standard_base@_WV?$stream_output_adapter@_W@__crt_stdio_output@@@2@@__crt_stdio_output@@ABE?AW4state@2@_WW432@@Z 100284e8 f i libucrt:output.obj
 0001:00027529       ?find_next_state@?$output_processor@_WV?$string_output_adapter@_W@__crt_stdio_output@@V?$format_validation_base@_WV?$string_output_adapter@_W@__crt_stdio_output@@@2@@__crt_stdio_output@@ABE?AW4state@2@_WW432@@Z 10028529 f i libucrt:output.obj
 0001:0002756d       ?find_next_state@?$output_processor@_WV?$string_output_adapter@_W@__crt_stdio_output@@V?$positional_parameter_base@_WV?$string_output_adapter@_W@__crt_stdio_output@@@2@@__crt_stdio_output@@ABE?AW4state@2@_WW432@@Z 1002856d f i libucrt:output.obj
 0001:000275b1       ?find_next_state@?$output_processor@_WV?$string_output_adapter@_W@__crt_stdio_output@@V?$standard_base@_WV?$string_output_adapter@_W@__crt_stdio_output@@@2@@__crt_stdio_output@@ABE?AW4state@2@_WW432@@Z 100285b1 f i libucrt:output.obj
 0001:000275f2       ?force_decimal_point@__crt_stdio_output@@YAXPADQAU__crt_locale_pointers@@@Z 100285f2 f i libucrt:output.obj
 0001:00027665       ?get_flags@__crt_stdio_stream@@QBEJXZ 10028665 f i libucrt:output.obj
 0001:0002766b       ?get_parameter_type@?$positional_parameter_base@DV?$stream_output_adapter@D@__crt_stdio_output@@@__crt_stdio_output@@CA?AW4parameter_type@12@F@Z 1002866b f i libucrt:output.obj
 0001:0002766f       ?get_parameter_type@?$positional_parameter_base@DV?$stream_output_adapter@D@__crt_stdio_output@@@__crt_stdio_output@@CA?AW4parameter_type@12@G@Z 1002866f f i libucrt:output.obj
 0001:00027673       ?get_parameter_type@?$positional_parameter_base@DV?$stream_output_adapter@D@__crt_stdio_output@@@__crt_stdio_output@@CA?AW4parameter_type@12@H@Z 10028673 f i libucrt:output.obj
 0001:00027677       ?get_parameter_type@?$positional_parameter_base@DV?$stream_output_adapter@D@__crt_stdio_output@@@__crt_stdio_output@@CA?AW4parameter_type@12@I@Z 10028677 f i libucrt:output.obj
 0001:0002767b       ?get_parameter_type@?$positional_parameter_base@DV?$stream_output_adapter@D@__crt_stdio_output@@@__crt_stdio_output@@CA?AW4parameter_type@12@U_CRT_DOUBLE@@@Z 1002867b f i libucrt:output.obj
 0001:0002767f       ?get_parameter_type@?$positional_parameter_base@DV?$stream_output_adapter@D@__crt_stdio_output@@@__crt_stdio_output@@CA?AW4parameter_type@12@_J@Z 1002867f f i libucrt:output.obj
 0001:00027683       ?get_parameter_type@?$positional_parameter_base@DV?$stream_output_adapter@D@__crt_stdio_output@@@__crt_stdio_output@@CA?AW4parameter_type@12@_K@Z 10028683 f i libucrt:output.obj
 0001:00027687       ?get_parameter_type@?$positional_parameter_base@DV?$stream_output_adapter@D@__crt_stdio_output@@@__crt_stdio_output@@CA?AW4parameter_type@12@_W@Z 10028687 f i libucrt:output.obj
 0001:0002768b       ?get_parameter_type@?$positional_parameter_base@DV?$string_output_adapter@D@__crt_stdio_output@@@__crt_stdio_output@@CA?AW4parameter_type@12@F@Z 1002868b f i libucrt:output.obj
 0001:0002768f       ?get_parameter_type@?$positional_parameter_base@DV?$string_output_adapter@D@__crt_stdio_output@@@__crt_stdio_output@@CA?AW4parameter_type@12@G@Z 1002868f f i libucrt:output.obj
 0001:00027693       ?get_parameter_type@?$positional_parameter_base@DV?$string_output_adapter@D@__crt_stdio_output@@@__crt_stdio_output@@CA?AW4parameter_type@12@H@Z 10028693 f i libucrt:output.obj
 0001:00027697       ?get_parameter_type@?$positional_parameter_base@DV?$string_output_adapter@D@__crt_stdio_output@@@__crt_stdio_output@@CA?AW4parameter_type@12@I@Z 10028697 f i libucrt:output.obj
 0001:0002769b       ?get_parameter_type@?$positional_parameter_base@DV?$string_output_adapter@D@__crt_stdio_output@@@__crt_stdio_output@@CA?AW4parameter_type@12@U_CRT_DOUBLE@@@Z 1002869b f i libucrt:output.obj
 0001:0002769f       ?get_parameter_type@?$positional_parameter_base@DV?$string_output_adapter@D@__crt_stdio_output@@@__crt_stdio_output@@CA?AW4parameter_type@12@_J@Z 1002869f f i libucrt:output.obj
 0001:000276a3       ?get_parameter_type@?$positional_parameter_base@DV?$string_output_adapter@D@__crt_stdio_output@@@__crt_stdio_output@@CA?AW4parameter_type@12@_K@Z 100286a3 f i libucrt:output.obj
 0001:000276a7       ?get_parameter_type@?$positional_parameter_base@DV?$string_output_adapter@D@__crt_stdio_output@@@__crt_stdio_output@@CA?AW4parameter_type@12@_W@Z 100286a7 f i libucrt:output.obj
 0001:000276ab       ?get_parameter_type@?$positional_parameter_base@_WV?$stream_output_adapter@_W@__crt_stdio_output@@@__crt_stdio_output@@CA?AW4parameter_type@12@F@Z 100286ab f i libucrt:output.obj
 0001:000276af       ?get_parameter_type@?$positional_parameter_base@_WV?$stream_output_adapter@_W@__crt_stdio_output@@@__crt_stdio_output@@CA?AW4parameter_type@12@G@Z 100286af f i libucrt:output.obj
 0001:000276b3       ?get_parameter_type@?$positional_parameter_base@_WV?$stream_output_adapter@_W@__crt_stdio_output@@@__crt_stdio_output@@CA?AW4parameter_type@12@H@Z 100286b3 f i libucrt:output.obj
 0001:000276b7       ?get_parameter_type@?$positional_parameter_base@_WV?$stream_output_adapter@_W@__crt_stdio_output@@@__crt_stdio_output@@CA?AW4parameter_type@12@I@Z 100286b7 f i libucrt:output.obj
 0001:000276bb       ?get_parameter_type@?$positional_parameter_base@_WV?$stream_output_adapter@_W@__crt_stdio_output@@@__crt_stdio_output@@CA?AW4parameter_type@12@U_CRT_DOUBLE@@@Z 100286bb f i libucrt:output.obj
 0001:000276bf       ?get_parameter_type@?$positional_parameter_base@_WV?$stream_output_adapter@_W@__crt_stdio_output@@@__crt_stdio_output@@CA?AW4parameter_type@12@_J@Z 100286bf f i libucrt:output.obj
 0001:000276c3       ?get_parameter_type@?$positional_parameter_base@_WV?$stream_output_adapter@_W@__crt_stdio_output@@@__crt_stdio_output@@CA?AW4parameter_type@12@_K@Z 100286c3 f i libucrt:output.obj
 0001:000276c7       ?get_parameter_type@?$positional_parameter_base@_WV?$stream_output_adapter@_W@__crt_stdio_output@@@__crt_stdio_output@@CA?AW4parameter_type@12@_W@Z 100286c7 f i libucrt:output.obj
 0001:000276cb       ?get_parameter_type@?$positional_parameter_base@_WV?$string_output_adapter@_W@__crt_stdio_output@@@__crt_stdio_output@@CA?AW4parameter_type@12@F@Z 100286cb f i libucrt:output.obj
 0001:000276cf       ?get_parameter_type@?$positional_parameter_base@_WV?$string_output_adapter@_W@__crt_stdio_output@@@__crt_stdio_output@@CA?AW4parameter_type@12@G@Z 100286cf f i libucrt:output.obj
 0001:000276d3       ?get_parameter_type@?$positional_parameter_base@_WV?$string_output_adapter@_W@__crt_stdio_output@@@__crt_stdio_output@@CA?AW4parameter_type@12@H@Z 100286d3 f i libucrt:output.obj
 0001:000276d7       ?get_parameter_type@?$positional_parameter_base@_WV?$string_output_adapter@_W@__crt_stdio_output@@@__crt_stdio_output@@CA?AW4parameter_type@12@I@Z 100286d7 f i libucrt:output.obj
 0001:000276db       ?get_parameter_type@?$positional_parameter_base@_WV?$string_output_adapter@_W@__crt_stdio_output@@@__crt_stdio_output@@CA?AW4parameter_type@12@U_CRT_DOUBLE@@@Z 100286db f i libucrt:output.obj
 0001:000276df       ?get_parameter_type@?$positional_parameter_base@_WV?$string_output_adapter@_W@__crt_stdio_output@@@__crt_stdio_output@@CA?AW4parameter_type@12@_J@Z 100286df f i libucrt:output.obj
 0001:000276e3       ?get_parameter_type@?$positional_parameter_base@_WV?$string_output_adapter@_W@__crt_stdio_output@@@__crt_stdio_output@@CA?AW4parameter_type@12@_K@Z 100286e3 f i libucrt:output.obj
 0001:000276e7       ?get_parameter_type@?$positional_parameter_base@_WV?$string_output_adapter@_W@__crt_stdio_output@@@__crt_stdio_output@@CA?AW4parameter_type@12@_W@Z 100286e7 f i libucrt:output.obj
 0001:000276eb       ?has_flag@?$output_processor@DV?$stream_output_adapter@D@__crt_stdio_output@@V?$format_validation_base@DV?$stream_output_adapter@D@__crt_stdio_output@@@2@@__crt_stdio_output@@ABE_NI@Z 100286eb f i libucrt:output.obj
 0001:00027705       ?has_flag@?$output_processor@DV?$stream_output_adapter@D@__crt_stdio_output@@V?$positional_parameter_base@DV?$stream_output_adapter@D@__crt_stdio_output@@@2@@__crt_stdio_output@@ABE_NI@Z 10028705 f i libucrt:output.obj
 0001:0002771f       ?has_flag@?$output_processor@DV?$stream_output_adapter@D@__crt_stdio_output@@V?$standard_base@DV?$stream_output_adapter@D@__crt_stdio_output@@@2@@__crt_stdio_output@@ABE_NI@Z 1002871f f i libucrt:output.obj
 0001:00027739       ?has_flag@?$output_processor@DV?$string_output_adapter@D@__crt_stdio_output@@V?$format_validation_base@DV?$string_output_adapter@D@__crt_stdio_output@@@2@@__crt_stdio_output@@ABE_NI@Z 10028739 f i libucrt:output.obj
 0001:00027753       ?has_flag@?$output_processor@DV?$string_output_adapter@D@__crt_stdio_output@@V?$positional_parameter_base@DV?$string_output_adapter@D@__crt_stdio_output@@@2@@__crt_stdio_output@@ABE_NI@Z 10028753 f i libucrt:output.obj
 0001:0002776d       ?has_flag@?$output_processor@DV?$string_output_adapter@D@__crt_stdio_output@@V?$standard_base@DV?$string_output_adapter@D@__crt_stdio_output@@@2@@__crt_stdio_output@@ABE_NI@Z 1002876d f i libucrt:output.obj
 0001:00027787       ?has_flag@?$output_processor@_WV?$stream_output_adapter@_W@__crt_stdio_output@@V?$format_validation_base@_WV?$stream_output_adapter@_W@__crt_stdio_output@@@2@@__crt_stdio_output@@ABE_NI@Z 10028787 f i libucrt:output.obj
 0001:000277a1       ?has_flag@?$output_processor@_WV?$stream_output_adapter@_W@__crt_stdio_output@@V?$positional_parameter_base@_WV?$stream_output_adapter@_W@__crt_stdio_output@@@2@@__crt_stdio_output@@ABE_NI@Z 100287a1 f i libucrt:output.obj
 0001:000277bb       ?has_flag@?$output_processor@_WV?$stream_output_adapter@_W@__crt_stdio_output@@V?$standard_base@_WV?$stream_output_adapter@_W@__crt_stdio_output@@@2@@__crt_stdio_output@@ABE_NI@Z 100287bb f i libucrt:output.obj
 0001:000277d5       ?has_flag@?$output_processor@_WV?$string_output_adapter@_W@__crt_stdio_output@@V?$format_validation_base@_WV?$string_output_adapter@_W@__crt_stdio_output@@@2@@__crt_stdio_output@@ABE_NI@Z 100287d5 f i libucrt:output.obj
 0001:000277ef       ?has_flag@?$output_processor@_WV?$string_output_adapter@_W@__crt_stdio_output@@V?$positional_parameter_base@_WV?$string_output_adapter@_W@__crt_stdio_output@@@2@@__crt_stdio_output@@ABE_NI@Z 100287ef f i libucrt:output.obj
 0001:00027809       ?has_flag@?$output_processor@_WV?$string_output_adapter@_W@__crt_stdio_output@@V?$standard_base@_WV?$string_output_adapter@_W@__crt_stdio_output@@@2@@__crt_stdio_output@@ABE_NI@Z 10028809 f i libucrt:output.obj
 0001:00027823       ?is_positional_parameter_reappearance_consistent@?$positional_parameter_base@DV?$stream_output_adapter@D@__crt_stdio_output@@@__crt_stdio_output@@AAE_NABUparameter_data@12@W4parameter_type@12@DW4length_modifier@2@@Z 10028823 f i libucrt:output.obj
 0001:0002799c       ?is_positional_parameter_reappearance_consistent@?$positional_parameter_base@DV?$string_output_adapter@D@__crt_stdio_output@@@__crt_stdio_output@@AAE_NABUparameter_data@12@W4parameter_type@12@DW4length_modifier@2@@Z 1002899c f i libucrt:output.obj
 0001:00027b15       ?is_positional_parameter_reappearance_consistent@?$positional_parameter_base@_WV?$stream_output_adapter@_W@__crt_stdio_output@@@__crt_stdio_output@@AAE_NABUparameter_data@12@W4parameter_type@12@_WW4length_modifier@2@@Z 10028b15 f i libucrt:output.obj
 0001:00027c80       ?is_positional_parameter_reappearance_consistent@?$positional_parameter_base@_WV?$string_output_adapter@_W@__crt_stdio_output@@@__crt_stdio_output@@AAE_NABUparameter_data@12@W4parameter_type@12@_WW4length_modifier@2@@Z 10028c80 f i libucrt:output.obj
 0001:00027deb       ?is_string_backed@__crt_stdio_stream@@QBE_NXZ 10028deb f i libucrt:output.obj
 0001:00027dfa       ?narrow_null_string@?$output_processor@DV?$stream_output_adapter@D@__crt_stdio_output@@V?$format_validation_base@DV?$stream_output_adapter@D@__crt_stdio_output@@@2@@__crt_stdio_output@@CAPADXZ 10028dfa f i libucrt:output.obj
 0001:00027e00       ?narrow_null_string@?$output_processor@DV?$stream_output_adapter@D@__crt_stdio_output@@V?$positional_parameter_base@DV?$stream_output_adapter@D@__crt_stdio_output@@@2@@__crt_stdio_output@@CAPADXZ 10028e00 f i libucrt:output.obj
 0001:00027e06       ?narrow_null_string@?$output_processor@DV?$stream_output_adapter@D@__crt_stdio_output@@V?$standard_base@DV?$stream_output_adapter@D@__crt_stdio_output@@@2@@__crt_stdio_output@@CAPADXZ 10028e06 f i libucrt:output.obj
 0001:00027e0c       ?narrow_null_string@?$output_processor@DV?$string_output_adapter@D@__crt_stdio_output@@V?$format_validation_base@DV?$string_output_adapter@D@__crt_stdio_output@@@2@@__crt_stdio_output@@CAPADXZ 10028e0c f i libucrt:output.obj
 0001:00027e12       ?narrow_null_string@?$output_processor@DV?$string_output_adapter@D@__crt_stdio_output@@V?$positional_parameter_base@DV?$string_output_adapter@D@__crt_stdio_output@@@2@@__crt_stdio_output@@CAPADXZ 10028e12 f i libucrt:output.obj
 0001:00027e18       ?narrow_null_string@?$output_processor@DV?$string_output_adapter@D@__crt_stdio_output@@V?$standard_base@DV?$string_output_adapter@D@__crt_stdio_output@@@2@@__crt_stdio_output@@CAPADXZ 10028e18 f i libucrt:output.obj
 0001:00027e1e       ?narrow_null_string@?$output_processor@_WV?$stream_output_adapter@_W@__crt_stdio_output@@V?$format_validation_base@_WV?$stream_output_adapter@_W@__crt_stdio_output@@@2@@__crt_stdio_output@@CAPADXZ 10028e1e f i libucrt:output.obj
 0001:00027e24       ?narrow_null_string@?$output_processor@_WV?$stream_output_adapter@_W@__crt_stdio_output@@V?$positional_parameter_base@_WV?$stream_output_adapter@_W@__crt_stdio_output@@@2@@__crt_stdio_output@@CAPADXZ 10028e24 f i libucrt:output.obj
 0001:00027e2a       ?narrow_null_string@?$output_processor@_WV?$stream_output_adapter@_W@__crt_stdio_output@@V?$standard_base@_WV?$stream_output_adapter@_W@__crt_stdio_output@@@2@@__crt_stdio_output@@CAPADXZ 10028e2a f i libucrt:output.obj
 0001:00027e30       ?narrow_null_string@?$output_processor@_WV?$string_output_adapter@_W@__crt_stdio_output@@V?$format_validation_base@_WV?$string_output_adapter@_W@__crt_stdio_output@@@2@@__crt_stdio_output@@CAPADXZ 10028e30 f i libucrt:output.obj
 0001:00027e36       ?narrow_null_string@?$output_processor@_WV?$string_output_adapter@_W@__crt_stdio_output@@V?$positional_parameter_base@_WV?$string_output_adapter@_W@__crt_stdio_output@@@2@@__crt_stdio_output@@CAPADXZ 10028e36 f i libucrt:output.obj
 0001:00027e3c       ?narrow_null_string@?$output_processor@_WV?$string_output_adapter@_W@__crt_stdio_output@@V?$standard_base@_WV?$string_output_adapter@_W@__crt_stdio_output@@@2@@__crt_stdio_output@@CAPADXZ 10028e3c f i libucrt:output.obj
 0001:00027e42       ?parse_int_from_format_string@?$output_processor@DV?$stream_output_adapter@D@__crt_stdio_output@@V?$format_validation_base@DV?$stream_output_adapter@D@__crt_stdio_output@@@2@@__crt_stdio_output@@AAE_NQAH@Z 10028e42 f i libucrt:output.obj
 0001:00027eb5       ?parse_int_from_format_string@?$output_processor@DV?$stream_output_adapter@D@__crt_stdio_output@@V?$positional_parameter_base@DV?$stream_output_adapter@D@__crt_stdio_output@@@2@@__crt_stdio_output@@AAE_NQAH@Z 10028eb5 f i libucrt:output.obj
 0001:00027f28       ?parse_int_from_format_string@?$output_processor@DV?$stream_output_adapter@D@__crt_stdio_output@@V?$standard_base@DV?$stream_output_adapter@D@__crt_stdio_output@@@2@@__crt_stdio_output@@AAE_NQAH@Z 10028f28 f i libucrt:output.obj
 0001:00027f9b       ?parse_int_from_format_string@?$output_processor@DV?$string_output_adapter@D@__crt_stdio_output@@V?$format_validation_base@DV?$string_output_adapter@D@__crt_stdio_output@@@2@@__crt_stdio_output@@AAE_NQAH@Z 10028f9b f i libucrt:output.obj
 0001:0002800e       ?parse_int_from_format_string@?$output_processor@DV?$string_output_adapter@D@__crt_stdio_output@@V?$positional_parameter_base@DV?$string_output_adapter@D@__crt_stdio_output@@@2@@__crt_stdio_output@@AAE_NQAH@Z 1002900e f i libucrt:output.obj
 0001:00028081       ?parse_int_from_format_string@?$output_processor@DV?$string_output_adapter@D@__crt_stdio_output@@V?$standard_base@DV?$string_output_adapter@D@__crt_stdio_output@@@2@@__crt_stdio_output@@AAE_NQAH@Z 10029081 f i libucrt:output.obj
 0001:000280f4       ?parse_int_from_format_string@?$output_processor@_WV?$stream_output_adapter@_W@__crt_stdio_output@@V?$format_validation_base@_WV?$stream_output_adapter@_W@__crt_stdio_output@@@2@@__crt_stdio_output@@AAE_NQAH@Z 100290f4 f i libucrt:output.obj
 0001:00028169       ?parse_int_from_format_string@?$output_processor@_WV?$stream_output_adapter@_W@__crt_stdio_output@@V?$positional_parameter_base@_WV?$stream_output_adapter@_W@__crt_stdio_output@@@2@@__crt_stdio_output@@AAE_NQAH@Z 10029169 f i libucrt:output.obj
 0001:000281de       ?parse_int_from_format_string@?$output_processor@_WV?$stream_output_adapter@_W@__crt_stdio_output@@V?$standard_base@_WV?$stream_output_adapter@_W@__crt_stdio_output@@@2@@__crt_stdio_output@@AAE_NQAH@Z 100291de f i libucrt:output.obj
 0001:00028253       ?parse_int_from_format_string@?$output_processor@_WV?$string_output_adapter@_W@__crt_stdio_output@@V?$format_validation_base@_WV?$string_output_adapter@_W@__crt_stdio_output@@@2@@__crt_stdio_output@@AAE_NQAH@Z 10029253 f i libucrt:output.obj
 0001:000282c8       ?parse_int_from_format_string@?$output_processor@_WV?$string_output_adapter@_W@__crt_stdio_output@@V?$positional_parameter_base@_WV?$string_output_adapter@_W@__crt_stdio_output@@@2@@__crt_stdio_output@@AAE_NQAH@Z 100292c8 f i libucrt:output.obj
 0001:0002833d       ?parse_int_from_format_string@?$output_processor@_WV?$string_output_adapter@_W@__crt_stdio_output@@V?$standard_base@_WV?$string_output_adapter@_W@__crt_stdio_output@@@2@@__crt_stdio_output@@AAE_NQAH@Z 1002933d f i libucrt:output.obj
 0001:000283b2       ?process@?$output_processor@DV?$stream_output_adapter@D@__crt_stdio_output@@V?$format_validation_base@DV?$stream_output_adapter@D@__crt_stdio_output@@@2@@__crt_stdio_output@@QAEHXZ 100293b2 f i libucrt:output.obj
 0001:00028524       ?process@?$output_processor@DV?$stream_output_adapter@D@__crt_stdio_output@@V?$positional_parameter_base@DV?$stream_output_adapter@D@__crt_stdio_output@@@2@@__crt_stdio_output@@QAEHXZ 10029524 f i libucrt:output.obj
 0001:000286d7       ?process@?$output_processor@DV?$stream_output_adapter@D@__crt_stdio_output@@V?$standard_base@DV?$stream_output_adapter@D@__crt_stdio_output@@@2@@__crt_stdio_output@@QAEHXZ 100296d7 f i libucrt:output.obj
 0001:0002883a       ?process@?$output_processor@DV?$string_output_adapter@D@__crt_stdio_output@@V?$format_validation_base@DV?$string_output_adapter@D@__crt_stdio_output@@@2@@__crt_stdio_output@@QAEHXZ 1002983a f i libucrt:output.obj
 0001:000289ac       ?process@?$output_processor@DV?$string_output_adapter@D@__crt_stdio_output@@V?$positional_parameter_base@DV?$string_output_adapter@D@__crt_stdio_output@@@2@@__crt_stdio_output@@QAEHXZ 100299ac f i libucrt:output.obj
 0001:00028b5f       ?process@?$output_processor@DV?$string_output_adapter@D@__crt_stdio_output@@V?$standard_base@DV?$string_output_adapter@D@__crt_stdio_output@@@2@@__crt_stdio_output@@QAEHXZ 10029b5f f i libucrt:output.obj
 0001:00028cc2       ?process@?$output_processor@_WV?$stream_output_adapter@_W@__crt_stdio_output@@V?$format_validation_base@_WV?$stream_output_adapter@_W@__crt_stdio_output@@@2@@__crt_stdio_output@@QAEHXZ 10029cc2 f i libucrt:output.obj
 0001:00028e3e       ?process@?$output_processor@_WV?$stream_output_adapter@_W@__crt_stdio_output@@V?$positional_parameter_base@_WV?$stream_output_adapter@_W@__crt_stdio_output@@@2@@__crt_stdio_output@@QAEHXZ 10029e3e f i libucrt:output.obj
 0001:00028ff6       ?process@?$output_processor@_WV?$stream_output_adapter@_W@__crt_stdio_output@@V?$standard_base@_WV?$stream_output_adapter@_W@__crt_stdio_output@@@2@@__crt_stdio_output@@QAEHXZ 10029ff6 f i libucrt:output.obj
 0001:0002915e       ?process@?$output_processor@_WV?$string_output_adapter@_W@__crt_stdio_output@@V?$format_validation_base@_WV?$string_output_adapter@_W@__crt_stdio_output@@@2@@__crt_stdio_output@@QAEHXZ 1002a15e f i libucrt:output.obj
 0001:000292da       ?process@?$output_processor@_WV?$string_output_adapter@_W@__crt_stdio_output@@V?$positional_parameter_base@_WV?$string_output_adapter@_W@__crt_stdio_output@@@2@@__crt_stdio_output@@QAEHXZ 1002a2da f i libucrt:output.obj
 0001:00029492       ?process@?$output_processor@_WV?$string_output_adapter@_W@__crt_stdio_output@@V?$standard_base@_WV?$string_output_adapter@_W@__crt_stdio_output@@@2@@__crt_stdio_output@@QAEHXZ 1002a492 f i libucrt:output.obj
 0001:000295fa       ?public_stream@__crt_stdio_stream@@QBEPAU_iobuf@@XZ 1002a5fa f i libucrt:output.obj
 0001:000295fd       ?set_flag@?$output_processor@DV?$stream_output_adapter@D@__crt_stdio_output@@V?$format_validation_base@DV?$stream_output_adapter@D@__crt_stdio_output@@@2@@__crt_stdio_output@@AAEXI@Z 1002a5fd f i libucrt:output.obj
 0001:0002960f       ?set_flag@?$output_processor@DV?$stream_output_adapter@D@__crt_stdio_output@@V?$positional_parameter_base@DV?$stream_output_adapter@D@__crt_stdio_output@@@2@@__crt_stdio_output@@AAEXI@Z 1002a60f f i libucrt:output.obj
 0001:00029621       ?set_flag@?$output_processor@DV?$stream_output_adapter@D@__crt_stdio_output@@V?$standard_base@DV?$stream_output_adapter@D@__crt_stdio_output@@@2@@__crt_stdio_output@@AAEXI@Z 1002a621 f i libucrt:output.obj
 0001:00029633       ?set_flag@?$output_processor@DV?$string_output_adapter@D@__crt_stdio_output@@V?$format_validation_base@DV?$string_output_adapter@D@__crt_stdio_output@@@2@@__crt_stdio_output@@AAEXI@Z 1002a633 f i libucrt:output.obj
 0001:00029645       ?set_flag@?$output_processor@DV?$string_output_adapter@D@__crt_stdio_output@@V?$positional_parameter_base@DV?$string_output_adapter@D@__crt_stdio_output@@@2@@__crt_stdio_output@@AAEXI@Z 1002a645 f i libucrt:output.obj
 0001:00029657       ?set_flag@?$output_processor@DV?$string_output_adapter@D@__crt_stdio_output@@V?$standard_base@DV?$string_output_adapter@D@__crt_stdio_output@@@2@@__crt_stdio_output@@AAEXI@Z 1002a657 f i libucrt:output.obj
 0001:00029669       ?set_flag@?$output_processor@_WV?$stream_output_adapter@_W@__crt_stdio_output@@V?$format_validation_base@_WV?$stream_output_adapter@_W@__crt_stdio_output@@@2@@__crt_stdio_output@@AAEXI@Z 1002a669 f i libucrt:output.obj
 0001:0002967b       ?set_flag@?$output_processor@_WV?$stream_output_adapter@_W@__crt_stdio_output@@V?$positional_parameter_base@_WV?$stream_output_adapter@_W@__crt_stdio_output@@@2@@__crt_stdio_output@@AAEXI@Z 1002a67b f i libucrt:output.obj
 0001:0002968d       ?set_flag@?$output_processor@_WV?$stream_output_adapter@_W@__crt_stdio_output@@V?$standard_base@_WV?$stream_output_adapter@_W@__crt_stdio_output@@@2@@__crt_stdio_output@@AAEXI@Z 1002a68d f i libucrt:output.obj
 0001:0002969f       ?set_flag@?$output_processor@_WV?$string_output_adapter@_W@__crt_stdio_output@@V?$format_validation_base@_WV?$string_output_adapter@_W@__crt_stdio_output@@@2@@__crt_stdio_output@@AAEXI@Z 1002a69f f i libucrt:output.obj
 0001:000296b1       ?set_flag@?$output_processor@_WV?$string_output_adapter@_W@__crt_stdio_output@@V?$positional_parameter_base@_WV?$string_output_adapter@_W@__crt_stdio_output@@@2@@__crt_stdio_output@@AAEXI@Z 1002a6b1 f i libucrt:output.obj
 0001:000296c3       ?set_flag@?$output_processor@_WV?$string_output_adapter@_W@__crt_stdio_output@@V?$standard_base@_WV?$string_output_adapter@_W@__crt_stdio_output@@@2@@__crt_stdio_output@@AAEXI@Z 1002a6c3 f i libucrt:output.obj
 0001:000296d5       ?should_format@?$positional_parameter_base@DV?$stream_output_adapter@D@__crt_stdio_output@@@__crt_stdio_output@@IAE_NXZ 1002a6d5 f i libucrt:output.obj
 0001:000296f0       ?should_format@?$positional_parameter_base@DV?$string_output_adapter@D@__crt_stdio_output@@@__crt_stdio_output@@IAE_NXZ 1002a6f0 f i libucrt:output.obj
 0001:0002970b       ?should_format@?$positional_parameter_base@_WV?$stream_output_adapter@_W@__crt_stdio_output@@@__crt_stdio_output@@IAE_NXZ 1002a70b f i libucrt:output.obj
 0001:00029726       ?should_format@?$positional_parameter_base@_WV?$string_output_adapter@_W@__crt_stdio_output@@@__crt_stdio_output@@IAE_NXZ 1002a726 f i libucrt:output.obj
 0001:00029741       ?should_format@?$standard_base@DV?$stream_output_adapter@D@__crt_stdio_output@@@__crt_stdio_output@@IAE_NXZ 1002a741 f i libucrt:output.obj
 0001:00029744       ?should_format@?$standard_base@DV?$string_output_adapter@D@__crt_stdio_output@@@__crt_stdio_output@@IAE_NXZ 1002a744 f i libucrt:output.obj
 0001:00029747       ?should_format@?$standard_base@_WV?$stream_output_adapter@_W@__crt_stdio_output@@@__crt_stdio_output@@IAE_NXZ 1002a747 f i libucrt:output.obj
 0001:0002974a       ?should_format@?$standard_base@_WV?$string_output_adapter@_W@__crt_stdio_output@@@__crt_stdio_output@@IAE_NXZ 1002a74a f i libucrt:output.obj
 0001:0002974d       ?should_skip_normal_state_processing@?$positional_parameter_base@DV?$stream_output_adapter@D@__crt_stdio_output@@@__crt_stdio_output@@IAE_NXZ 1002a74d f i libucrt:output.obj
 0001:0002977f       ?should_skip_normal_state_processing@?$positional_parameter_base@DV?$string_output_adapter@D@__crt_stdio_output@@@__crt_stdio_output@@IAE_NXZ 1002a77f f i libucrt:output.obj
 0001:000297b1       ?should_skip_normal_state_processing@?$positional_parameter_base@_WV?$stream_output_adapter@_W@__crt_stdio_output@@@__crt_stdio_output@@IAE_NXZ 1002a7b1 f i libucrt:output.obj
 0001:000297e3       ?should_skip_normal_state_processing@?$positional_parameter_base@_WV?$string_output_adapter@_W@__crt_stdio_output@@@__crt_stdio_output@@IAE_NXZ 1002a7e3 f i libucrt:output.obj
 0001:00029815       ?should_skip_normal_state_processing@?$standard_base@DV?$stream_output_adapter@D@__crt_stdio_output@@@__crt_stdio_output@@IAE_NXZ 1002a815 f i libucrt:output.obj
 0001:00029818       ?should_skip_normal_state_processing@?$standard_base@DV?$string_output_adapter@D@__crt_stdio_output@@@__crt_stdio_output@@IAE_NXZ 1002a818 f i libucrt:output.obj
 0001:0002981b       ?should_skip_normal_state_processing@?$standard_base@_WV?$stream_output_adapter@_W@__crt_stdio_output@@@__crt_stdio_output@@IAE_NXZ 1002a81b f i libucrt:output.obj
 0001:0002981e       ?should_skip_normal_state_processing@?$standard_base@_WV?$string_output_adapter@_W@__crt_stdio_output@@@__crt_stdio_output@@IAE_NXZ 1002a81e f i libucrt:output.obj
 0001:00029821       ?should_skip_type_state_output@?$positional_parameter_base@DV?$stream_output_adapter@D@__crt_stdio_output@@@__crt_stdio_output@@IBE_NXZ 1002a821 f i libucrt:output.obj
 0001:0002983d       ?should_skip_type_state_output@?$positional_parameter_base@DV?$string_output_adapter@D@__crt_stdio_output@@@__crt_stdio_output@@IBE_NXZ 1002a83d f i libucrt:output.obj
 0001:00029859       ?should_skip_type_state_output@?$positional_parameter_base@_WV?$stream_output_adapter@_W@__crt_stdio_output@@@__crt_stdio_output@@IBE_NXZ 1002a859 f i libucrt:output.obj
 0001:00029875       ?should_skip_type_state_output@?$positional_parameter_base@_WV?$string_output_adapter@_W@__crt_stdio_output@@@__crt_stdio_output@@IBE_NXZ 1002a875 f i libucrt:output.obj
 0001:00029891       ?should_skip_type_state_output@?$standard_base@DV?$stream_output_adapter@D@__crt_stdio_output@@@__crt_stdio_output@@IBE_NXZ 1002a891 f i libucrt:output.obj
 0001:00029894       ?should_skip_type_state_output@?$standard_base@DV?$string_output_adapter@D@__crt_stdio_output@@@__crt_stdio_output@@IBE_NXZ 1002a894 f i libucrt:output.obj
 0001:00029897       ?should_skip_type_state_output@?$standard_base@_WV?$stream_output_adapter@_W@__crt_stdio_output@@@__crt_stdio_output@@IBE_NXZ 1002a897 f i libucrt:output.obj
 0001:0002989a       ?should_skip_type_state_output@?$standard_base@_WV?$string_output_adapter@_W@__crt_stdio_output@@@__crt_stdio_output@@IBE_NXZ 1002a89a f i libucrt:output.obj
 0001:0002989d       ?state_case_dot@?$output_processor@DV?$stream_output_adapter@D@__crt_stdio_output@@V?$format_validation_base@DV?$stream_output_adapter@D@__crt_stdio_output@@@2@@__crt_stdio_output@@AAE_NXZ 1002a89d f i libucrt:output.obj
 0001:000298a4       ?state_case_dot@?$output_processor@DV?$stream_output_adapter@D@__crt_stdio_output@@V?$positional_parameter_base@DV?$stream_output_adapter@D@__crt_stdio_output@@@2@@__crt_stdio_output@@AAE_NXZ 1002a8a4 f i libucrt:output.obj
 0001:000298ab       ?state_case_dot@?$output_processor@DV?$stream_output_adapter@D@__crt_stdio_output@@V?$standard_base@DV?$stream_output_adapter@D@__crt_stdio_output@@@2@@__crt_stdio_output@@AAE_NXZ 1002a8ab f i libucrt:output.obj
 0001:000298b2       ?state_case_dot@?$output_processor@DV?$string_output_adapter@D@__crt_stdio_output@@V?$format_validation_base@DV?$string_output_adapter@D@__crt_stdio_output@@@2@@__crt_stdio_output@@AAE_NXZ 1002a8b2 f i libucrt:output.obj
 0001:000298b9       ?state_case_dot@?$output_processor@DV?$string_output_adapter@D@__crt_stdio_output@@V?$positional_parameter_base@DV?$string_output_adapter@D@__crt_stdio_output@@@2@@__crt_stdio_output@@AAE_NXZ 1002a8b9 f i libucrt:output.obj
 0001:000298c0       ?state_case_dot@?$output_processor@DV?$string_output_adapter@D@__crt_stdio_output@@V?$standard_base@DV?$string_output_adapter@D@__crt_stdio_output@@@2@@__crt_stdio_output@@AAE_NXZ 1002a8c0 f i libucrt:output.obj
 0001:000298c7       ?state_case_dot@?$output_processor@_WV?$stream_output_adapter@_W@__crt_stdio_output@@V?$format_validation_base@_WV?$stream_output_adapter@_W@__crt_stdio_output@@@2@@__crt_stdio_output@@AAE_NXZ 1002a8c7 f i libucrt:output.obj
 0001:000298ce       ?state_case_dot@?$output_processor@_WV?$stream_output_adapter@_W@__crt_stdio_output@@V?$positional_parameter_base@_WV?$stream_output_adapter@_W@__crt_stdio_output@@@2@@__crt_stdio_output@@AAE_NXZ 1002a8ce f i libucrt:output.obj
 0001:000298d5       ?state_case_dot@?$output_processor@_WV?$stream_output_adapter@_W@__crt_stdio_output@@V?$standard_base@_WV?$stream_output_adapter@_W@__crt_stdio_output@@@2@@__crt_stdio_output@@AAE_NXZ 1002a8d5 f i libucrt:output.obj
 0001:000298dc       ?state_case_dot@?$output_processor@_WV?$string_output_adapter@_W@__crt_stdio_output@@V?$format_validation_base@_WV?$string_output_adapter@_W@__crt_stdio_output@@@2@@__crt_stdio_output@@AAE_NXZ 1002a8dc f i libucrt:output.obj
 0001:000298e3       ?state_case_dot@?$output_processor@_WV?$string_output_adapter@_W@__crt_stdio_output@@V?$positional_parameter_base@_WV?$string_output_adapter@_W@__crt_stdio_output@@@2@@__crt_stdio_output@@AAE_NXZ 1002a8e3 f i libucrt:output.obj
 0001:000298ea       ?state_case_dot@?$output_processor@_WV?$string_output_adapter@_W@__crt_stdio_output@@V?$standard_base@_WV?$string_output_adapter@_W@__crt_stdio_output@@@2@@__crt_stdio_output@@AAE_NXZ 1002a8ea f i libucrt:output.obj
 0001:000298f1       ?state_case_flag@?$output_processor@DV?$stream_output_adapter@D@__crt_stdio_output@@V?$format_validation_base@DV?$stream_output_adapter@D@__crt_stdio_output@@@2@@__crt_stdio_output@@AAE_NXZ 1002a8f1 f i libucrt:output.obj
 0001:0002993d       ?state_case_flag@?$output_processor@DV?$stream_output_adapter@D@__crt_stdio_output@@V?$positional_parameter_base@DV?$stream_output_adapter@D@__crt_stdio_output@@@2@@__crt_stdio_output@@AAE_NXZ 1002a93d f i libucrt:output.obj
 0001:00029989       ?state_case_flag@?$output_processor@DV?$stream_output_adapter@D@__crt_stdio_output@@V?$standard_base@DV?$stream_output_adapter@D@__crt_stdio_output@@@2@@__crt_stdio_output@@AAE_NXZ 1002a989 f i libucrt:output.obj
 0001:000299d5       ?state_case_flag@?$output_processor@DV?$string_output_adapter@D@__crt_stdio_output@@V?$format_validation_base@DV?$string_output_adapter@D@__crt_stdio_output@@@2@@__crt_stdio_output@@AAE_NXZ 1002a9d5 f i libucrt:output.obj
 0001:00029a21       ?state_case_flag@?$output_processor@DV?$string_output_adapter@D@__crt_stdio_output@@V?$positional_parameter_base@DV?$string_output_adapter@D@__crt_stdio_output@@@2@@__crt_stdio_output@@AAE_NXZ 1002aa21 f i libucrt:output.obj
 0001:00029a6d       ?state_case_flag@?$output_processor@DV?$string_output_adapter@D@__crt_stdio_output@@V?$standard_base@DV?$string_output_adapter@D@__crt_stdio_output@@@2@@__crt_stdio_output@@AAE_NXZ 1002aa6d f i libucrt:output.obj
 0001:00029ab9       ?state_case_flag@?$output_processor@_WV?$stream_output_adapter@_W@__crt_stdio_output@@V?$format_validation_base@_WV?$stream_output_adapter@_W@__crt_stdio_output@@@2@@__crt_stdio_output@@AAE_NXZ 1002aab9 f i libucrt:output.obj
 0001:00029b05       ?state_case_flag@?$output_processor@_WV?$stream_output_adapter@_W@__crt_stdio_output@@V?$positional_parameter_base@_WV?$stream_output_adapter@_W@__crt_stdio_output@@@2@@__crt_stdio_output@@AAE_NXZ 1002ab05 f i libucrt:output.obj
 0001:00029b51       ?state_case_flag@?$output_processor@_WV?$stream_output_adapter@_W@__crt_stdio_output@@V?$standard_base@_WV?$stream_output_adapter@_W@__crt_stdio_output@@@2@@__crt_stdio_output@@AAE_NXZ 1002ab51 f i libucrt:output.obj
 0001:00029b9d       ?state_case_flag@?$output_processor@_WV?$string_output_adapter@_W@__crt_stdio_output@@V?$format_validation_base@_WV?$string_output_adapter@_W@__crt_stdio_output@@@2@@__crt_stdio_output@@AAE_NXZ 1002ab9d f i libucrt:output.obj
 0001:00029be9       ?state_case_flag@?$output_processor@_WV?$string_output_adapter@_W@__crt_stdio_output@@V?$positional_parameter_base@_WV?$string_output_adapter@_W@__crt_stdio_output@@@2@@__crt_stdio_output@@AAE_NXZ 1002abe9 f i libucrt:output.obj
 0001:00029c35       ?state_case_flag@?$output_processor@_WV?$string_output_adapter@_W@__crt_stdio_output@@V?$standard_base@_WV?$string_output_adapter@_W@__crt_stdio_output@@@2@@__crt_stdio_output@@AAE_NXZ 1002ac35 f i libucrt:output.obj
 0001:00029c81       ?state_case_normal@?$output_processor@DV?$stream_output_adapter@D@__crt_stdio_output@@V?$format_validation_base@DV?$stream_output_adapter@D@__crt_stdio_output@@@2@@__crt_stdio_output@@AAE_NXZ 1002ac81 f i libucrt:output.obj
 0001:00029ca7       ?state_case_normal@?$output_processor@DV?$stream_output_adapter@D@__crt_stdio_output@@V?$positional_parameter_base@DV?$stream_output_adapter@D@__crt_stdio_output@@@2@@__crt_stdio_output@@AAE_NXZ 1002aca7 f i libucrt:output.obj
 0001:00029ce4       ?state_case_normal@?$output_processor@DV?$stream_output_adapter@D@__crt_stdio_output@@V?$standard_base@DV?$stream_output_adapter@D@__crt_stdio_output@@@2@@__crt_stdio_output@@AAE_NXZ 1002ace4 f i libucrt:output.obj
 0001:00029d0a       ?state_case_normal@?$output_processor@DV?$string_output_adapter@D@__crt_stdio_output@@V?$format_validation_base@DV?$string_output_adapter@D@__crt_stdio_output@@@2@@__crt_stdio_output@@AAE_NXZ 1002ad0a f i libucrt:output.obj
 0001:00029d30       ?state_case_normal@?$output_processor@DV?$string_output_adapter@D@__crt_stdio_output@@V?$positional_parameter_base@DV?$string_output_adapter@D@__crt_stdio_output@@@2@@__crt_stdio_output@@AAE_NXZ 1002ad30 f i libucrt:output.obj
 0001:00029d6d       ?state_case_normal@?$output_processor@DV?$string_output_adapter@D@__crt_stdio_output@@V?$standard_base@DV?$string_output_adapter@D@__crt_stdio_output@@@2@@__crt_stdio_output@@AAE_NXZ 1002ad6d f i libucrt:output.obj
 0001:00029d93       ?state_case_normal@?$output_processor@_WV?$stream_output_adapter@_W@__crt_stdio_output@@V?$format_validation_base@_WV?$stream_output_adapter@_W@__crt_stdio_output@@@2@@__crt_stdio_output@@AAE_NXZ 1002ad93 f i libucrt:output.obj
 0001:00029db9       ?state_case_normal@?$output_processor@_WV?$stream_output_adapter@_W@__crt_stdio_output@@V?$positional_parameter_base@_WV?$stream_output_adapter@_W@__crt_stdio_output@@@2@@__crt_stdio_output@@AAE_NXZ 1002adb9 f i libucrt:output.obj
 0001:00029df6       ?state_case_normal@?$output_processor@_WV?$stream_output_adapter@_W@__crt_stdio_output@@V?$standard_base@_WV?$stream_output_adapter@_W@__crt_stdio_output@@@2@@__crt_stdio_output@@AAE_NXZ 1002adf6 f i libucrt:output.obj
 0001:00029e1c       ?state_case_normal@?$output_processor@_WV?$string_output_adapter@_W@__crt_stdio_output@@V?$format_validation_base@_WV?$string_output_adapter@_W@__crt_stdio_output@@@2@@__crt_stdio_output@@AAE_NXZ 1002ae1c f i libucrt:output.obj
 0001:00029e42       ?state_case_normal@?$output_processor@_WV?$string_output_adapter@_W@__crt_stdio_output@@V?$positional_parameter_base@_WV?$string_output_adapter@_W@__crt_stdio_output@@@2@@__crt_stdio_output@@AAE_NXZ 1002ae42 f i libucrt:output.obj
 0001:00029e7f       ?state_case_normal@?$output_processor@_WV?$string_output_adapter@_W@__crt_stdio_output@@V?$standard_base@_WV?$string_output_adapter@_W@__crt_stdio_output@@@2@@__crt_stdio_output@@AAE_NXZ 1002ae7f f i libucrt:output.obj
 0001:00029ea5       ?state_case_normal_common@?$output_processor@DV?$stream_output_adapter@D@__crt_stdio_output@@V?$format_validation_base@DV?$stream_output_adapter@D@__crt_stdio_output@@@2@@__crt_stdio_output@@AAE_NXZ 1002aea5 f i libucrt:output.obj
 0001:00029ed9       ?state_case_normal_common@?$output_processor@DV?$stream_output_adapter@D@__crt_stdio_output@@V?$positional_parameter_base@DV?$stream_output_adapter@D@__crt_stdio_output@@@2@@__crt_stdio_output@@AAE_NXZ 1002aed9 f i libucrt:output.obj
 0001:00029f0d       ?state_case_normal_common@?$output_processor@DV?$stream_output_adapter@D@__crt_stdio_output@@V?$standard_base@DV?$stream_output_adapter@D@__crt_stdio_output@@@2@@__crt_stdio_output@@AAE_NXZ 1002af0d f i libucrt:output.obj
 0001:00029f41       ?state_case_normal_common@?$output_processor@DV?$string_output_adapter@D@__crt_stdio_output@@V?$format_validation_base@DV?$string_output_adapter@D@__crt_stdio_output@@@2@@__crt_stdio_output@@AAE_NXZ 1002af41 f i libucrt:output.obj
 0001:00029f75       ?state_case_normal_common@?$output_processor@DV?$string_output_adapter@D@__crt_stdio_output@@V?$positional_parameter_base@DV?$string_output_adapter@D@__crt_stdio_output@@@2@@__crt_stdio_output@@AAE_NXZ 1002af75 f i libucrt:output.obj
 0001:00029fa9       ?state_case_normal_common@?$output_processor@DV?$string_output_adapter@D@__crt_stdio_output@@V?$standard_base@DV?$string_output_adapter@D@__crt_stdio_output@@@2@@__crt_stdio_output@@AAE_NXZ 1002afa9 f i libucrt:output.obj
 0001:00029fdd       ?state_case_normal_common@?$output_processor@_WV?$stream_output_adapter@_W@__crt_stdio_output@@V?$format_validation_base@_WV?$stream_output_adapter@_W@__crt_stdio_output@@@2@@__crt_stdio_output@@AAE_NXZ 1002afdd f i libucrt:output.obj
 0001:00029ffe       ?state_case_normal_common@?$output_processor@_WV?$stream_output_adapter@_W@__crt_stdio_output@@V?$positional_parameter_base@_WV?$stream_output_adapter@_W@__crt_stdio_output@@@2@@__crt_stdio_output@@AAE_NXZ 1002affe f i libucrt:output.obj
 0001:0002a01f       ?state_case_normal_common@?$output_processor@_WV?$stream_output_adapter@_W@__crt_stdio_output@@V?$standard_base@_WV?$stream_output_adapter@_W@__crt_stdio_output@@@2@@__crt_stdio_output@@AAE_NXZ 1002b01f f i libucrt:output.obj
 0001:0002a040       ?state_case_normal_common@?$output_processor@_WV?$string_output_adapter@_W@__crt_stdio_output@@V?$format_validation_base@_WV?$string_output_adapter@_W@__crt_stdio_output@@@2@@__crt_stdio_output@@AAE_NXZ 1002b040 f i libucrt:output.obj
 0001:0002a061       ?state_case_normal_common@?$output_processor@_WV?$string_output_adapter@_W@__crt_stdio_output@@V?$positional_parameter_base@_WV?$string_output_adapter@_W@__crt_stdio_output@@@2@@__crt_stdio_output@@AAE_NXZ 1002b061 f i libucrt:output.obj
 0001:0002a082       ?state_case_normal_common@?$output_processor@_WV?$string_output_adapter@_W@__crt_stdio_output@@V?$standard_base@_WV?$string_output_adapter@_W@__crt_stdio_output@@@2@@__crt_stdio_output@@AAE_NXZ 1002b082 f i libucrt:output.obj
 0001:0002a0a3       ?state_case_normal_tchar@?$output_processor@DV?$stream_output_adapter@D@__crt_stdio_output@@V?$format_validation_base@DV?$stream_output_adapter@D@__crt_stdio_output@@@2@@__crt_stdio_output@@AAE_ND@Z 1002b0a3 f i libucrt:output.obj
 0001:0002a11c       ?state_case_normal_tchar@?$output_processor@DV?$stream_output_adapter@D@__crt_stdio_output@@V?$positional_parameter_base@DV?$stream_output_adapter@D@__crt_stdio_output@@@2@@__crt_stdio_output@@AAE_ND@Z 1002b11c f i libucrt:output.obj
 0001:0002a195       ?state_case_normal_tchar@?$output_processor@DV?$stream_output_adapter@D@__crt_stdio_output@@V?$standard_base@DV?$stream_output_adapter@D@__crt_stdio_output@@@2@@__crt_stdio_output@@AAE_ND@Z 1002b195 f i libucrt:output.obj
 0001:0002a20e       ?state_case_normal_tchar@?$output_processor@DV?$string_output_adapter@D@__crt_stdio_output@@V?$format_validation_base@DV?$string_output_adapter@D@__crt_stdio_output@@@2@@__crt_stdio_output@@AAE_ND@Z 1002b20e f i libucrt:output.obj
 0001:0002a287       ?state_case_normal_tchar@?$output_processor@DV?$string_output_adapter@D@__crt_stdio_output@@V?$positional_parameter_base@DV?$string_output_adapter@D@__crt_stdio_output@@@2@@__crt_stdio_output@@AAE_ND@Z 1002b287 f i libucrt:output.obj
 0001:0002a300       ?state_case_normal_tchar@?$output_processor@DV?$string_output_adapter@D@__crt_stdio_output@@V?$standard_base@DV?$string_output_adapter@D@__crt_stdio_output@@@2@@__crt_stdio_output@@AAE_ND@Z 1002b300 f i libucrt:output.obj
 0001:0002a379       ?state_case_normal_tchar@?$output_processor@_WV?$stream_output_adapter@_W@__crt_stdio_output@@V?$format_validation_base@_WV?$stream_output_adapter@_W@__crt_stdio_output@@@2@@__crt_stdio_output@@AAE_N_W@Z 1002b379 f i libucrt:output.obj
 0001:0002a384       ?state_case_normal_tchar@?$output_processor@_WV?$stream_output_adapter@_W@__crt_stdio_output@@V?$positional_parameter_base@_WV?$stream_output_adapter@_W@__crt_stdio_output@@@2@@__crt_stdio_output@@AAE_N_W@Z 1002b384 f i libucrt:output.obj
 0001:0002a38f       ?state_case_normal_tchar@?$output_processor@_WV?$stream_output_adapter@_W@__crt_stdio_output@@V?$standard_base@_WV?$stream_output_adapter@_W@__crt_stdio_output@@@2@@__crt_stdio_output@@AAE_N_W@Z 1002b38f f i libucrt:output.obj
 0001:0002a39a       ?state_case_normal_tchar@?$output_processor@_WV?$string_output_adapter@_W@__crt_stdio_output@@V?$format_validation_base@_WV?$string_output_adapter@_W@__crt_stdio_output@@@2@@__crt_stdio_output@@AAE_N_W@Z 1002b39a f i libucrt:output.obj
 0001:0002a3a5       ?state_case_normal_tchar@?$output_processor@_WV?$string_output_adapter@_W@__crt_stdio_output@@V?$positional_parameter_base@_WV?$string_output_adapter@_W@__crt_stdio_output@@@2@@__crt_stdio_output@@AAE_N_W@Z 1002b3a5 f i libucrt:output.obj
 0001:0002a3b0       ?state_case_normal_tchar@?$output_processor@_WV?$string_output_adapter@_W@__crt_stdio_output@@V?$standard_base@_WV?$string_output_adapter@_W@__crt_stdio_output@@@2@@__crt_stdio_output@@AAE_N_W@Z 1002b3b0 f i libucrt:output.obj
 0001:0002a3bb       ?state_case_percent@?$output_processor@DV?$stream_output_adapter@D@__crt_stdio_output@@V?$format_validation_base@DV?$stream_output_adapter@D@__crt_stdio_output@@@2@@__crt_stdio_output@@AAE_NXZ 1002b3bb f i libucrt:output.obj
 0001:0002a3d9       ?state_case_percent@?$output_processor@DV?$stream_output_adapter@D@__crt_stdio_output@@V?$positional_parameter_base@DV?$stream_output_adapter@D@__crt_stdio_output@@@2@@__crt_stdio_output@@AAE_NXZ 1002b3d9 f i libucrt:output.obj
 0001:0002a3f7       ?state_case_percent@?$output_processor@DV?$stream_output_adapter@D@__crt_stdio_output@@V?$standard_base@DV?$stream_output_adapter@D@__crt_stdio_output@@@2@@__crt_stdio_output@@AAE_NXZ 1002b3f7 f i libucrt:output.obj
 0001:0002a415       ?state_case_percent@?$output_processor@DV?$string_output_adapter@D@__crt_stdio_output@@V?$format_validation_base@DV?$string_output_adapter@D@__crt_stdio_output@@@2@@__crt_stdio_output@@AAE_NXZ 1002b415 f i libucrt:output.obj
 0001:0002a433       ?state_case_percent@?$output_processor@DV?$string_output_adapter@D@__crt_stdio_output@@V?$positional_parameter_base@DV?$string_output_adapter@D@__crt_stdio_output@@@2@@__crt_stdio_output@@AAE_NXZ 1002b433 f i libucrt:output.obj
 0001:0002a451       ?state_case_percent@?$output_processor@DV?$string_output_adapter@D@__crt_stdio_output@@V?$standard_base@DV?$string_output_adapter@D@__crt_stdio_output@@@2@@__crt_stdio_output@@AAE_NXZ 1002b451 f i libucrt:output.obj
 0001:0002a46f       ?state_case_percent@?$output_processor@_WV?$stream_output_adapter@_W@__crt_stdio_output@@V?$format_validation_base@_WV?$stream_output_adapter@_W@__crt_stdio_output@@@2@@__crt_stdio_output@@AAE_NXZ 1002b46f f i libucrt:output.obj
 0001:0002a48d       ?state_case_percent@?$output_processor@_WV?$stream_output_adapter@_W@__crt_stdio_output@@V?$positional_parameter_base@_WV?$stream_output_adapter@_W@__crt_stdio_output@@@2@@__crt_stdio_output@@AAE_NXZ 1002b48d f i libucrt:output.obj
 0001:0002a4ab       ?state_case_percent@?$output_processor@_WV?$stream_output_adapter@_W@__crt_stdio_output@@V?$standard_base@_WV?$stream_output_adapter@_W@__crt_stdio_output@@@2@@__crt_stdio_output@@AAE_NXZ 1002b4ab f i libucrt:output.obj
 0001:0002a4c9       ?state_case_percent@?$output_processor@_WV?$string_output_adapter@_W@__crt_stdio_output@@V?$format_validation_base@_WV?$string_output_adapter@_W@__crt_stdio_output@@@2@@__crt_stdio_output@@AAE_NXZ 1002b4c9 f i libucrt:output.obj
 0001:0002a4e7       ?state_case_percent@?$output_processor@_WV?$string_output_adapter@_W@__crt_stdio_output@@V?$positional_parameter_base@_WV?$string_output_adapter@_W@__crt_stdio_output@@@2@@__crt_stdio_output@@AAE_NXZ 1002b4e7 f i libucrt:output.obj
 0001:0002a505       ?state_case_percent@?$output_processor@_WV?$string_output_adapter@_W@__crt_stdio_output@@V?$standard_base@_WV?$string_output_adapter@_W@__crt_stdio_output@@@2@@__crt_stdio_output@@AAE_NXZ 1002b505 f i libucrt:output.obj
 0001:0002a523       ?state_case_precision@?$output_processor@DV?$stream_output_adapter@D@__crt_stdio_output@@V?$format_validation_base@DV?$stream_output_adapter@D@__crt_stdio_output@@@2@@__crt_stdio_output@@AAE_NXZ 1002b523 f i libucrt:output.obj
 0001:0002a555       ?state_case_precision@?$output_processor@DV?$stream_output_adapter@D@__crt_stdio_output@@V?$positional_parameter_base@DV?$stream_output_adapter@D@__crt_stdio_output@@@2@@__crt_stdio_output@@AAE_NXZ 1002b555 f i libucrt:output.obj
 0001:0002a59d       ?state_case_precision@?$output_processor@DV?$stream_output_adapter@D@__crt_stdio_output@@V?$standard_base@DV?$stream_output_adapter@D@__crt_stdio_output@@@2@@__crt_stdio_output@@AAE_NXZ 1002b59d f i libucrt:output.obj
 0001:0002a5cf       ?state_case_precision@?$output_processor@DV?$string_output_adapter@D@__crt_stdio_output@@V?$format_validation_base@DV?$string_output_adapter@D@__crt_stdio_output@@@2@@__crt_stdio_output@@AAE_NXZ 1002b5cf f i libucrt:output.obj
 0001:0002a601       ?state_case_precision@?$output_processor@DV?$string_output_adapter@D@__crt_stdio_output@@V?$positional_parameter_base@DV?$string_output_adapter@D@__crt_stdio_output@@@2@@__crt_stdio_output@@AAE_NXZ 1002b601 f i libucrt:output.obj
 0001:0002a649       ?state_case_precision@?$output_processor@DV?$string_output_adapter@D@__crt_stdio_output@@V?$standard_base@DV?$string_output_adapter@D@__crt_stdio_output@@@2@@__crt_stdio_output@@AAE_NXZ 1002b649 f i libucrt:output.obj
 0001:0002a67b       ?state_case_precision@?$output_processor@_WV?$stream_output_adapter@_W@__crt_stdio_output@@V?$format_validation_base@_WV?$stream_output_adapter@_W@__crt_stdio_output@@@2@@__crt_stdio_output@@AAE_NXZ 1002b67b f i libucrt:output.obj
 0001:0002a6ae       ?state_case_precision@?$output_processor@_WV?$stream_output_adapter@_W@__crt_stdio_output@@V?$positional_parameter_base@_WV?$stream_output_adapter@_W@__crt_stdio_output@@@2@@__crt_stdio_output@@AAE_NXZ 1002b6ae f i libucrt:output.obj
 0001:0002a6f7       ?state_case_precision@?$output_processor@_WV?$stream_output_adapter@_W@__crt_stdio_output@@V?$standard_base@_WV?$stream_output_adapter@_W@__crt_stdio_output@@@2@@__crt_stdio_output@@AAE_NXZ 1002b6f7 f i libucrt:output.obj
 0001:0002a72a       ?state_case_precision@?$output_processor@_WV?$string_output_adapter@_W@__crt_stdio_output@@V?$format_validation_base@_WV?$string_output_adapter@_W@__crt_stdio_output@@@2@@__crt_stdio_output@@AAE_NXZ 1002b72a f i libucrt:output.obj
 0001:0002a75d       ?state_case_precision@?$output_processor@_WV?$string_output_adapter@_W@__crt_stdio_output@@V?$positional_parameter_base@_WV?$string_output_adapter@_W@__crt_stdio_output@@@2@@__crt_stdio_output@@AAE_NXZ 1002b75d f i libucrt:output.obj
 0001:0002a7a6       ?state_case_precision@?$output_processor@_WV?$string_output_adapter@_W@__crt_stdio_output@@V?$standard_base@_WV?$string_output_adapter@_W@__crt_stdio_output@@@2@@__crt_stdio_output@@AAE_NXZ 1002b7a6 f i libucrt:output.obj
 0001:0002a7d9       ?state_case_size@?$output_processor@DV?$stream_output_adapter@D@__crt_stdio_output@@V?$format_validation_base@DV?$stream_output_adapter@D@__crt_stdio_output@@@2@@__crt_stdio_output@@AAE_NXZ 1002b7d9 f i libucrt:output.obj
 0001:0002a99c       ?state_case_size@?$output_processor@DV?$stream_output_adapter@D@__crt_stdio_output@@V?$positional_parameter_base@DV?$stream_output_adapter@D@__crt_stdio_output@@@2@@__crt_stdio_output@@AAE_NXZ 1002b99c f i libucrt:output.obj
 0001:0002ab5f       ?state_case_size@?$output_processor@DV?$stream_output_adapter@D@__crt_stdio_output@@V?$standard_base@DV?$stream_output_adapter@D@__crt_stdio_output@@@2@@__crt_stdio_output@@AAE_NXZ 1002bb5f f i libucrt:output.obj
 0001:0002ad22       ?state_case_size@?$output_processor@DV?$string_output_adapter@D@__crt_stdio_output@@V?$format_validation_base@DV?$string_output_adapter@D@__crt_stdio_output@@@2@@__crt_stdio_output@@AAE_NXZ 1002bd22 f i libucrt:output.obj
 0001:0002aee5       ?state_case_size@?$output_processor@DV?$string_output_adapter@D@__crt_stdio_output@@V?$positional_parameter_base@DV?$string_output_adapter@D@__crt_stdio_output@@@2@@__crt_stdio_output@@AAE_NXZ 1002bee5 f i libucrt:output.obj
 0001:0002b0a8       ?state_case_size@?$output_processor@DV?$string_output_adapter@D@__crt_stdio_output@@V?$standard_base@DV?$string_output_adapter@D@__crt_stdio_output@@@2@@__crt_stdio_output@@AAE_NXZ 1002c0a8 f i libucrt:output.obj
 0001:0002b26b       ?state_case_size@?$output_processor@_WV?$stream_output_adapter@_W@__crt_stdio_output@@V?$format_validation_base@_WV?$stream_output_adapter@_W@__crt_stdio_output@@@2@@__crt_stdio_output@@AAE_NXZ 1002c26b f i libucrt:output.obj
 0001:0002b446       ?state_case_size@?$output_processor@_WV?$stream_output_adapter@_W@__crt_stdio_output@@V?$positional_parameter_base@_WV?$stream_output_adapter@_W@__crt_stdio_output@@@2@@__crt_stdio_output@@AAE_NXZ 1002c446 f i libucrt:output.obj
 0001:0002b621       ?state_case_size@?$output_processor@_WV?$stream_output_adapter@_W@__crt_stdio_output@@V?$standard_base@_WV?$stream_output_adapter@_W@__crt_stdio_output@@@2@@__crt_stdio_output@@AAE_NXZ 1002c621 f i libucrt:output.obj
 0001:0002b7fc       ?state_case_size@?$output_processor@_WV?$string_output_adapter@_W@__crt_stdio_output@@V?$format_validation_base@_WV?$string_output_adapter@_W@__crt_stdio_output@@@2@@__crt_stdio_output@@AAE_NXZ 1002c7fc f i libucrt:output.obj
 0001:0002b9d7       ?state_case_size@?$output_processor@_WV?$string_output_adapter@_W@__crt_stdio_output@@V?$positional_parameter_base@_WV?$string_output_adapter@_W@__crt_stdio_output@@@2@@__crt_stdio_output@@AAE_NXZ 1002c9d7 f i libucrt:output.obj
 0001:0002bbb2       ?state_case_size@?$output_processor@_WV?$string_output_adapter@_W@__crt_stdio_output@@V?$standard_base@_WV?$string_output_adapter@_W@__crt_stdio_output@@@2@@__crt_stdio_output@@AAE_NXZ 1002cbb2 f i libucrt:output.obj
 0001:0002bd8d       ?state_case_type@?$output_processor@DV?$stream_output_adapter@D@__crt_stdio_output@@V?$format_validation_base@DV?$stream_output_adapter@D@__crt_stdio_output@@@2@@__crt_stdio_output@@AAE_NXZ 1002cd8d f i libucrt:output.obj
 0001:0002c047       ?state_case_type@?$output_processor@DV?$stream_output_adapter@D@__crt_stdio_output@@V?$positional_parameter_base@DV?$stream_output_adapter@D@__crt_stdio_output@@@2@@__crt_stdio_output@@AAE_NXZ 1002d047 f i libucrt:output.obj
 0001:0002c30f       ?state_case_type@?$output_processor@DV?$stream_output_adapter@D@__crt_stdio_output@@V?$standard_base@DV?$stream_output_adapter@D@__crt_stdio_output@@@2@@__crt_stdio_output@@AAE_NXZ 1002d30f f i libucrt:output.obj
 0001:0002c5c9       ?state_case_type@?$output_processor@DV?$string_output_adapter@D@__crt_stdio_output@@V?$format_validation_base@DV?$string_output_adapter@D@__crt_stdio_output@@@2@@__crt_stdio_output@@AAE_NXZ 1002d5c9 f i libucrt:output.obj
 0001:0002c883       ?state_case_type@?$output_processor@DV?$string_output_adapter@D@__crt_stdio_output@@V?$positional_parameter_base@DV?$string_output_adapter@D@__crt_stdio_output@@@2@@__crt_stdio_output@@AAE_NXZ 1002d883 f i libucrt:output.obj
 0001:0002cb4b       ?state_case_type@?$output_processor@DV?$string_output_adapter@D@__crt_stdio_output@@V?$standard_base@DV?$string_output_adapter@D@__crt_stdio_output@@@2@@__crt_stdio_output@@AAE_NXZ 1002db4b f i libucrt:output.obj
 0001:0002ce05       ?state_case_type@?$output_processor@_WV?$stream_output_adapter@_W@__crt_stdio_output@@V?$format_validation_base@_WV?$stream_output_adapter@_W@__crt_stdio_output@@@2@@__crt_stdio_output@@AAE_NXZ 1002de05 f i libucrt:output.obj
 0001:0002d0f9       ?state_case_type@?$output_processor@_WV?$stream_output_adapter@_W@__crt_stdio_output@@V?$positional_parameter_base@_WV?$stream_output_adapter@_W@__crt_stdio_output@@@2@@__crt_stdio_output@@AAE_NXZ 1002e0f9 f i libucrt:output.obj
 0001:0002d400       ?state_case_type@?$output_processor@_WV?$stream_output_adapter@_W@__crt_stdio_output@@V?$standard_base@_WV?$stream_output_adapter@_W@__crt_stdio_output@@@2@@__crt_stdio_output@@AAE_NXZ 1002e400 f i libucrt:output.obj
 0001:0002d6f4       ?state_case_type@?$output_processor@_WV?$string_output_adapter@_W@__crt_stdio_output@@V?$format_validation_base@_WV?$string_output_adapter@_W@__crt_stdio_output@@@2@@__crt_stdio_output@@AAE_NXZ 1002e6f4 f i libucrt:output.obj
 0001:0002d9e8       ?state_case_type@?$output_processor@_WV?$string_output_adapter@_W@__crt_stdio_output@@V?$positional_parameter_base@_WV?$string_output_adapter@_W@__crt_stdio_output@@@2@@__crt_stdio_output@@AAE_NXZ 1002e9e8 f i libucrt:output.obj
 0001:0002dcef       ?state_case_type@?$output_processor@_WV?$string_output_adapter@_W@__crt_stdio_output@@V?$standard_base@_WV?$string_output_adapter@_W@__crt_stdio_output@@@2@@__crt_stdio_output@@AAE_NXZ 1002ecef f i libucrt:output.obj
 0001:0002dfe3       ?state_case_width@?$output_processor@DV?$stream_output_adapter@D@__crt_stdio_output@@V?$format_validation_base@DV?$stream_output_adapter@D@__crt_stdio_output@@@2@@__crt_stdio_output@@AAE_NXZ 1002efe3 f i libucrt:output.obj
 0001:0002e018       ?state_case_width@?$output_processor@DV?$stream_output_adapter@D@__crt_stdio_output@@V?$positional_parameter_base@DV?$stream_output_adapter@D@__crt_stdio_output@@@2@@__crt_stdio_output@@AAE_NXZ 1002f018 f i libucrt:output.obj
 0001:0002e068       ?state_case_width@?$output_processor@DV?$stream_output_adapter@D@__crt_stdio_output@@V?$standard_base@DV?$stream_output_adapter@D@__crt_stdio_output@@@2@@__crt_stdio_output@@AAE_NXZ 1002f068 f i libucrt:output.obj
 0001:0002e09d       ?state_case_width@?$output_processor@DV?$string_output_adapter@D@__crt_stdio_output@@V?$format_validation_base@DV?$string_output_adapter@D@__crt_stdio_output@@@2@@__crt_stdio_output@@AAE_NXZ 1002f09d f i libucrt:output.obj
 0001:0002e0d2       ?state_case_width@?$output_processor@DV?$string_output_adapter@D@__crt_stdio_output@@V?$positional_parameter_base@DV?$string_output_adapter@D@__crt_stdio_output@@@2@@__crt_stdio_output@@AAE_NXZ 1002f0d2 f i libucrt:output.obj
 0001:0002e122       ?state_case_width@?$output_processor@DV?$string_output_adapter@D@__crt_stdio_output@@V?$standard_base@DV?$string_output_adapter@D@__crt_stdio_output@@@2@@__crt_stdio_output@@AAE_NXZ 1002f122 f i libucrt:output.obj
 0001:0002e157       ?state_case_width@?$output_processor@_WV?$stream_output_adapter@_W@__crt_stdio_output@@V?$format_validation_base@_WV?$stream_output_adapter@_W@__crt_stdio_output@@@2@@__crt_stdio_output@@AAE_NXZ 1002f157 f i libucrt:output.obj
 0001:0002e18e       ?state_case_width@?$output_processor@_WV?$stream_output_adapter@_W@__crt_stdio_output@@V?$positional_parameter_base@_WV?$stream_output_adapter@_W@__crt_stdio_output@@@2@@__crt_stdio_output@@AAE_NXZ 1002f18e f i libucrt:output.obj
 0001:0002e1df       ?state_case_width@?$output_processor@_WV?$stream_output_adapter@_W@__crt_stdio_output@@V?$standard_base@_WV?$stream_output_adapter@_W@__crt_stdio_output@@@2@@__crt_stdio_output@@AAE_NXZ 1002f1df f i libucrt:output.obj
 0001:0002e216       ?state_case_width@?$output_processor@_WV?$string_output_adapter@_W@__crt_stdio_output@@V?$format_validation_base@_WV?$string_output_adapter@_W@__crt_stdio_output@@@2@@__crt_stdio_output@@AAE_NXZ 1002f216 f i libucrt:output.obj
 0001:0002e24d       ?state_case_width@?$output_processor@_WV?$string_output_adapter@_W@__crt_stdio_output@@V?$positional_parameter_base@_WV?$string_output_adapter@_W@__crt_stdio_output@@@2@@__crt_stdio_output@@AAE_NXZ 1002f24d f i libucrt:output.obj
 0001:0002e29e       ?state_case_width@?$output_processor@_WV?$string_output_adapter@_W@__crt_stdio_output@@V?$standard_base@_WV?$string_output_adapter@_W@__crt_stdio_output@@@2@@__crt_stdio_output@@AAE_NXZ 1002f29e f i libucrt:output.obj
 0001:0002e2d5       ?state_count@?$format_validation_base@DV?$stream_output_adapter@D@__crt_stdio_output@@@__crt_stdio_output@@KAIXZ 1002f2d5 f i libucrt:output.obj
 0001:0002e2d9       ?state_count@?$format_validation_base@DV?$string_output_adapter@D@__crt_stdio_output@@@__crt_stdio_output@@KAIXZ 1002f2d9 f i libucrt:output.obj
 0001:0002e2dd       ?state_count@?$format_validation_base@_WV?$stream_output_adapter@_W@__crt_stdio_output@@@__crt_stdio_output@@KAIXZ 1002f2dd f i libucrt:output.obj
 0001:0002e2e1       ?state_count@?$format_validation_base@_WV?$string_output_adapter@_W@__crt_stdio_output@@@__crt_stdio_output@@KAIXZ 1002f2e1 f i libucrt:output.obj
 0001:0002e2e5       ?state_count@?$standard_base@DV?$stream_output_adapter@D@__crt_stdio_output@@@__crt_stdio_output@@KAIXZ 1002f2e5 f i libucrt:output.obj
 0001:0002e2e9       ?state_count@?$standard_base@DV?$string_output_adapter@D@__crt_stdio_output@@@__crt_stdio_output@@KAIXZ 1002f2e9 f i libucrt:output.obj
 0001:0002e2ed       ?state_count@?$standard_base@_WV?$stream_output_adapter@_W@__crt_stdio_output@@@__crt_stdio_output@@KAIXZ 1002f2ed f i libucrt:output.obj
 0001:0002e2f1       ?state_count@?$standard_base@_WV?$string_output_adapter@_W@__crt_stdio_output@@@__crt_stdio_output@@KAIXZ 1002f2f1 f i libucrt:output.obj
 0001:0002e2f5       ?state_transition_table@?$format_validation_base@DV?$stream_output_adapter@D@__crt_stdio_output@@@__crt_stdio_output@@KAPBEXZ 1002f2f5 f i libucrt:output.obj
 0001:0002e2fb       ?state_transition_table@?$format_validation_base@DV?$string_output_adapter@D@__crt_stdio_output@@@__crt_stdio_output@@KAPBEXZ 1002f2fb f i libucrt:output.obj
 0001:0002e301       ?state_transition_table@?$format_validation_base@_WV?$stream_output_adapter@_W@__crt_stdio_output@@@__crt_stdio_output@@KAPBEXZ 1002f301 f i libucrt:output.obj
 0001:0002e307       ?state_transition_table@?$format_validation_base@_WV?$string_output_adapter@_W@__crt_stdio_output@@@__crt_stdio_output@@KAPBEXZ 1002f307 f i libucrt:output.obj
 0001:0002e30d       ?state_transition_table@?$standard_base@DV?$stream_output_adapter@D@__crt_stdio_output@@@__crt_stdio_output@@KAPBEXZ 1002f30d f i libucrt:output.obj
 0001:0002e313       ?state_transition_table@?$standard_base@DV?$string_output_adapter@D@__crt_stdio_output@@@__crt_stdio_output@@KAPBEXZ 1002f313 f i libucrt:output.obj
 0001:0002e319       ?state_transition_table@?$standard_base@_WV?$stream_output_adapter@_W@__crt_stdio_output@@@__crt_stdio_output@@KAPBEXZ 1002f319 f i libucrt:output.obj
 0001:0002e31f       ?state_transition_table@?$standard_base@_WV?$string_output_adapter@_W@__crt_stdio_output@@@__crt_stdio_output@@KAPBEXZ 1002f31f f i libucrt:output.obj
 0001:0002e325       ?to_integer_size@__crt_stdio_output@@YAIW4length_modifier@1@@Z 1002f325 f i libucrt:output.obj
 0001:0002e398       ?type_case_X@?$output_processor@DV?$stream_output_adapter@D@__crt_stdio_output@@V?$format_validation_base@DV?$stream_output_adapter@D@__crt_stdio_output@@@2@@__crt_stdio_output@@AAE_NXZ 1002f398 f i libucrt:output.obj
 0001:0002e3a4       ?type_case_X@?$output_processor@DV?$stream_output_adapter@D@__crt_stdio_output@@V?$positional_parameter_base@DV?$stream_output_adapter@D@__crt_stdio_output@@@2@@__crt_stdio_output@@AAE_NXZ 1002f3a4 f i libucrt:output.obj
 0001:0002e3b0       ?type_case_X@?$output_processor@DV?$stream_output_adapter@D@__crt_stdio_output@@V?$standard_base@DV?$stream_output_adapter@D@__crt_stdio_output@@@2@@__crt_stdio_output@@AAE_NXZ 1002f3b0 f i libucrt:output.obj
 0001:0002e3bc       ?type_case_X@?$output_processor@DV?$string_output_adapter@D@__crt_stdio_output@@V?$format_validation_base@DV?$string_output_adapter@D@__crt_stdio_output@@@2@@__crt_stdio_output@@AAE_NXZ 1002f3bc f i libucrt:output.obj
 0001:0002e3c8       ?type_case_X@?$output_processor@DV?$string_output_adapter@D@__crt_stdio_output@@V?$positional_parameter_base@DV?$string_output_adapter@D@__crt_stdio_output@@@2@@__crt_stdio_output@@AAE_NXZ 1002f3c8 f i libucrt:output.obj
 0001:0002e3d4       ?type_case_X@?$output_processor@DV?$string_output_adapter@D@__crt_stdio_output@@V?$standard_base@DV?$string_output_adapter@D@__crt_stdio_output@@@2@@__crt_stdio_output@@AAE_NXZ 1002f3d4 f i libucrt:output.obj
 0001:0002e3e0       ?type_case_X@?$output_processor@_WV?$stream_output_adapter@_W@__crt_stdio_output@@V?$format_validation_base@_WV?$stream_output_adapter@_W@__crt_stdio_output@@@2@@__crt_stdio_output@@AAE_NXZ 1002f3e0 f i libucrt:output.obj
 0001:0002e3ec       ?type_case_X@?$output_processor@_WV?$stream_output_adapter@_W@__crt_stdio_output@@V?$positional_parameter_base@_WV?$stream_output_adapter@_W@__crt_stdio_output@@@2@@__crt_stdio_output@@AAE_NXZ 1002f3ec f i libucrt:output.obj
 0001:0002e3f8       ?type_case_X@?$output_processor@_WV?$stream_output_adapter@_W@__crt_stdio_output@@V?$standard_base@_WV?$stream_output_adapter@_W@__crt_stdio_output@@@2@@__crt_stdio_output@@AAE_NXZ 1002f3f8 f i libucrt:output.obj
 0001:0002e404       ?type_case_X@?$output_processor@_WV?$string_output_adapter@_W@__crt_stdio_output@@V?$format_validation_base@_WV?$string_output_adapter@_W@__crt_stdio_output@@@2@@__crt_stdio_output@@AAE_NXZ 1002f404 f i libucrt:output.obj
 0001:0002e410       ?type_case_X@?$output_processor@_WV?$string_output_adapter@_W@__crt_stdio_output@@V?$positional_parameter_base@_WV?$string_output_adapter@_W@__crt_stdio_output@@@2@@__crt_stdio_output@@AAE_NXZ 1002f410 f i libucrt:output.obj
 0001:0002e41c       ?type_case_X@?$output_processor@_WV?$string_output_adapter@_W@__crt_stdio_output@@V?$standard_base@_WV?$string_output_adapter@_W@__crt_stdio_output@@@2@@__crt_stdio_output@@AAE_NXZ 1002f41c f i libucrt:output.obj
 0001:0002e428       ?type_case_Z@?$output_processor@DV?$stream_output_adapter@D@__crt_stdio_output@@V?$format_validation_base@DV?$stream_output_adapter@D@__crt_stdio_output@@@2@@__crt_stdio_output@@AAE_NXZ 1002f428 f i libucrt:output.obj
 0001:0002e4a3       ?type_case_Z@?$output_processor@DV?$stream_output_adapter@D@__crt_stdio_output@@V?$positional_parameter_base@DV?$stream_output_adapter@D@__crt_stdio_output@@@2@@__crt_stdio_output@@AAE_NXZ 1002f4a3 f i libucrt:output.obj
 0001:0002e541       ?type_case_Z@?$output_processor@DV?$stream_output_adapter@D@__crt_stdio_output@@V?$standard_base@DV?$stream_output_adapter@D@__crt_stdio_output@@@2@@__crt_stdio_output@@AAE_NXZ 1002f541 f i libucrt:output.obj
 0001:0002e5bc       ?type_case_Z@?$output_processor@DV?$string_output_adapter@D@__crt_stdio_output@@V?$format_validation_base@DV?$string_output_adapter@D@__crt_stdio_output@@@2@@__crt_stdio_output@@AAE_NXZ 1002f5bc f i libucrt:output.obj
 0001:0002e637       ?type_case_Z@?$output_processor@DV?$string_output_adapter@D@__crt_stdio_output@@V?$positional_parameter_base@DV?$string_output_adapter@D@__crt_stdio_output@@@2@@__crt_stdio_output@@AAE_NXZ 1002f637 f i libucrt:output.obj
 0001:0002e6d5       ?type_case_Z@?$output_processor@DV?$string_output_adapter@D@__crt_stdio_output@@V?$standard_base@DV?$string_output_adapter@D@__crt_stdio_output@@@2@@__crt_stdio_output@@AAE_NXZ 1002f6d5 f i libucrt:output.obj
 0001:0002e750       ?type_case_Z@?$output_processor@_WV?$stream_output_adapter@_W@__crt_stdio_output@@V?$format_validation_base@_WV?$stream_output_adapter@_W@__crt_stdio_output@@@2@@__crt_stdio_output@@AAE_NXZ 1002f750 f i libucrt:output.obj
 0001:0002e7cb       ?type_case_Z@?$output_processor@_WV?$stream_output_adapter@_W@__crt_stdio_output@@V?$positional_parameter_base@_WV?$stream_output_adapter@_W@__crt_stdio_output@@@2@@__crt_stdio_output@@AAE_NXZ 1002f7cb f i libucrt:output.obj
 0001:0002e869       ?type_case_Z@?$output_processor@_WV?$stream_output_adapter@_W@__crt_stdio_output@@V?$standard_base@_WV?$stream_output_adapter@_W@__crt_stdio_output@@@2@@__crt_stdio_output@@AAE_NXZ 1002f869 f i libucrt:output.obj
 0001:0002e8e4       ?type_case_Z@?$output_processor@_WV?$string_output_adapter@_W@__crt_stdio_output@@V?$format_validation_base@_WV?$string_output_adapter@_W@__crt_stdio_output@@@2@@__crt_stdio_output@@AAE_NXZ 1002f8e4 f i libucrt:output.obj
 0001:0002e95f       ?type_case_Z@?$output_processor@_WV?$string_output_adapter@_W@__crt_stdio_output@@V?$positional_parameter_base@_WV?$string_output_adapter@_W@__crt_stdio_output@@@2@@__crt_stdio_output@@AAE_NXZ 1002f95f f i libucrt:output.obj
 0001:0002e9fd       ?type_case_Z@?$output_processor@_WV?$string_output_adapter@_W@__crt_stdio_output@@V?$standard_base@_WV?$string_output_adapter@_W@__crt_stdio_output@@@2@@__crt_stdio_output@@AAE_NXZ 1002f9fd f i libucrt:output.obj
 0001:0002ea78       ?type_case_a@?$output_processor@DV?$stream_output_adapter@D@__crt_stdio_output@@V?$format_validation_base@DV?$stream_output_adapter@D@__crt_stdio_output@@@2@@__crt_stdio_output@@AAE_NXZ 1002fa78 f i libucrt:output.obj
 0001:0002ec28       ?type_case_a@?$output_processor@DV?$stream_output_adapter@D@__crt_stdio_output@@V?$positional_parameter_base@DV?$stream_output_adapter@D@__crt_stdio_output@@@2@@__crt_stdio_output@@AAE_NXZ 1002fc28 f i libucrt:output.obj
 0001:0002edff       ?type_case_a@?$output_processor@DV?$stream_output_adapter@D@__crt_stdio_output@@V?$standard_base@DV?$stream_output_adapter@D@__crt_stdio_output@@@2@@__crt_stdio_output@@AAE_NXZ 1002fdff f i libucrt:output.obj
 0001:0002efaf       ?type_case_a@?$output_processor@DV?$string_output_adapter@D@__crt_stdio_output@@V?$format_validation_base@DV?$string_output_adapter@D@__crt_stdio_output@@@2@@__crt_stdio_output@@AAE_NXZ 1002ffaf f i libucrt:output.obj
 0001:0002f15f       ?type_case_a@?$output_processor@DV?$string_output_adapter@D@__crt_stdio_output@@V?$positional_parameter_base@DV?$string_output_adapter@D@__crt_stdio_output@@@2@@__crt_stdio_output@@AAE_NXZ 1003015f f i libucrt:output.obj
 0001:0002f336       ?type_case_a@?$output_processor@DV?$string_output_adapter@D@__crt_stdio_output@@V?$standard_base@DV?$string_output_adapter@D@__crt_stdio_output@@@2@@__crt_stdio_output@@AAE_NXZ 10030336 f i libucrt:output.obj
 0001:0002f4e6       ?type_case_a@?$output_processor@_WV?$stream_output_adapter@_W@__crt_stdio_output@@V?$format_validation_base@_WV?$stream_output_adapter@_W@__crt_stdio_output@@@2@@__crt_stdio_output@@AAE_NXZ 100304e6 f i libucrt:output.obj
 0001:0002f6b4       ?type_case_a@?$output_processor@_WV?$stream_output_adapter@_W@__crt_stdio_output@@V?$positional_parameter_base@_WV?$stream_output_adapter@_W@__crt_stdio_output@@@2@@__crt_stdio_output@@AAE_NXZ 100306b4 f i libucrt:output.obj
 0001:0002f8a9       ?type_case_a@?$output_processor@_WV?$stream_output_adapter@_W@__crt_stdio_output@@V?$standard_base@_WV?$stream_output_adapter@_W@__crt_stdio_output@@@2@@__crt_stdio_output@@AAE_NXZ 100308a9 f i libucrt:output.obj
 0001:0002fa77       ?type_case_a@?$output_processor@_WV?$string_output_adapter@_W@__crt_stdio_output@@V?$format_validation_base@_WV?$string_output_adapter@_W@__crt_stdio_output@@@2@@__crt_stdio_output@@AAE_NXZ 10030a77 f i libucrt:output.obj
 0001:0002fc45       ?type_case_a@?$output_processor@_WV?$string_output_adapter@_W@__crt_stdio_output@@V?$positional_parameter_base@_WV?$string_output_adapter@_W@__crt_stdio_output@@@2@@__crt_stdio_output@@AAE_NXZ 10030c45 f i libucrt:output.obj
 0001:0002fe3a       ?type_case_a@?$output_processor@_WV?$string_output_adapter@_W@__crt_stdio_output@@V?$standard_base@_WV?$string_output_adapter@_W@__crt_stdio_output@@@2@@__crt_stdio_output@@AAE_NXZ 10030e3a f i libucrt:output.obj
 0001:00030008       ?type_case_c@?$output_processor@DV?$stream_output_adapter@D@__crt_stdio_output@@V?$format_validation_base@DV?$stream_output_adapter@D@__crt_stdio_output@@@2@@__crt_stdio_output@@AAE_NXZ 10031008 f i libucrt:output.obj
 0001:00030012       ?type_case_c@?$output_processor@DV?$stream_output_adapter@D@__crt_stdio_output@@V?$positional_parameter_base@DV?$stream_output_adapter@D@__crt_stdio_output@@@2@@__crt_stdio_output@@AAE_NXZ 10031012 f i libucrt:output.obj
 0001:0003001c       ?type_case_c@?$output_processor@DV?$stream_output_adapter@D@__crt_stdio_output@@V?$standard_base@DV?$stream_output_adapter@D@__crt_stdio_output@@@2@@__crt_stdio_output@@AAE_NXZ 1003101c f i libucrt:output.obj
 0001:00030026       ?type_case_c@?$output_processor@DV?$string_output_adapter@D@__crt_stdio_output@@V?$format_validation_base@DV?$string_output_adapter@D@__crt_stdio_output@@@2@@__crt_stdio_output@@AAE_NXZ 10031026 f i libucrt:output.obj
 0001:00030030       ?type_case_c@?$output_processor@DV?$string_output_adapter@D@__crt_stdio_output@@V?$positional_parameter_base@DV?$string_output_adapter@D@__crt_stdio_output@@@2@@__crt_stdio_output@@AAE_NXZ 10031030 f i libucrt:output.obj
 0001:0003003a       ?type_case_c@?$output_processor@DV?$string_output_adapter@D@__crt_stdio_output@@V?$standard_base@DV?$string_output_adapter@D@__crt_stdio_output@@@2@@__crt_stdio_output@@AAE_NXZ 1003103a f i libucrt:output.obj
 0001:00030044       ?type_case_c@?$output_processor@_WV?$stream_output_adapter@_W@__crt_stdio_output@@V?$format_validation_base@_WV?$stream_output_adapter@_W@__crt_stdio_output@@@2@@__crt_stdio_output@@AAE_NXZ 10031044 f i libucrt:output.obj
 0001:0003004e       ?type_case_c@?$output_processor@_WV?$stream_output_adapter@_W@__crt_stdio_output@@V?$positional_parameter_base@_WV?$stream_output_adapter@_W@__crt_stdio_output@@@2@@__crt_stdio_output@@AAE_NXZ 1003104e f i libucrt:output.obj
 0001:00030058       ?type_case_c@?$output_processor@_WV?$stream_output_adapter@_W@__crt_stdio_output@@V?$standard_base@_WV?$stream_output_adapter@_W@__crt_stdio_output@@@2@@__crt_stdio_output@@AAE_NXZ 10031058 f i libucrt:output.obj
 0001:00030062       ?type_case_c@?$output_processor@_WV?$string_output_adapter@_W@__crt_stdio_output@@V?$format_validation_base@_WV?$string_output_adapter@_W@__crt_stdio_output@@@2@@__crt_stdio_output@@AAE_NXZ 10031062 f i libucrt:output.obj
 0001:0003006c       ?type_case_c@?$output_processor@_WV?$string_output_adapter@_W@__crt_stdio_output@@V?$positional_parameter_base@_WV?$string_output_adapter@_W@__crt_stdio_output@@@2@@__crt_stdio_output@@AAE_NXZ 1003106c f i libucrt:output.obj
 0001:00030076       ?type_case_c@?$output_processor@_WV?$string_output_adapter@_W@__crt_stdio_output@@V?$standard_base@_WV?$string_output_adapter@_W@__crt_stdio_output@@@2@@__crt_stdio_output@@AAE_NXZ 10031076 f i libucrt:output.obj
 0001:00030080       ?type_case_c_tchar@?$output_processor@DV?$stream_output_adapter@D@__crt_stdio_output@@V?$format_validation_base@DV?$stream_output_adapter@D@__crt_stdio_output@@@2@@__crt_stdio_output@@AAE_ND@Z 10031080 f i libucrt:output.obj
 0001:00030134       ?type_case_c_tchar@?$output_processor@DV?$stream_output_adapter@D@__crt_stdio_output@@V?$positional_parameter_base@DV?$stream_output_adapter@D@__crt_stdio_output@@@2@@__crt_stdio_output@@AAE_ND@Z 10031134 f i libucrt:output.obj
 0001:00030224       ?type_case_c_tchar@?$output_processor@DV?$stream_output_adapter@D@__crt_stdio_output@@V?$standard_base@DV?$stream_output_adapter@D@__crt_stdio_output@@@2@@__crt_stdio_output@@AAE_ND@Z 10031224 f i libucrt:output.obj
 0001:000302d8       ?type_case_c_tchar@?$output_processor@DV?$string_output_adapter@D@__crt_stdio_output@@V?$format_validation_base@DV?$string_output_adapter@D@__crt_stdio_output@@@2@@__crt_stdio_output@@AAE_ND@Z 100312d8 f i libucrt:output.obj
 0001:0003038c       ?type_case_c_tchar@?$output_processor@DV?$string_output_adapter@D@__crt_stdio_output@@V?$positional_parameter_base@DV?$string_output_adapter@D@__crt_stdio_output@@@2@@__crt_stdio_output@@AAE_ND@Z 1003138c f i libucrt:output.obj
 0001:0003047c       ?type_case_c_tchar@?$output_processor@DV?$string_output_adapter@D@__crt_stdio_output@@V?$standard_base@DV?$string_output_adapter@D@__crt_stdio_output@@@2@@__crt_stdio_output@@AAE_ND@Z 1003147c f i libucrt:output.obj
 0001:00030530       ?type_case_c_tchar@?$output_processor@_WV?$stream_output_adapter@_W@__crt_stdio_output@@V?$format_validation_base@_WV?$stream_output_adapter@_W@__crt_stdio_output@@@2@@__crt_stdio_output@@AAE_N_W@Z 10031530 f i libucrt:output.obj
 0001:000305ee       ?type_case_c_tchar@?$output_processor@_WV?$stream_output_adapter@_W@__crt_stdio_output@@V?$positional_parameter_base@_WV?$stream_output_adapter@_W@__crt_stdio_output@@@2@@__crt_stdio_output@@AAE_N_W@Z 100315ee f i libucrt:output.obj
 0001:000306c8       ?type_case_c_tchar@?$output_processor@_WV?$stream_output_adapter@_W@__crt_stdio_output@@V?$standard_base@_WV?$stream_output_adapter@_W@__crt_stdio_output@@@2@@__crt_stdio_output@@AAE_N_W@Z 100316c8 f i libucrt:output.obj
 0001:00030786       ?type_case_c_tchar@?$output_processor@_WV?$string_output_adapter@_W@__crt_stdio_output@@V?$format_validation_base@_WV?$string_output_adapter@_W@__crt_stdio_output@@@2@@__crt_stdio_output@@AAE_N_W@Z 10031786 f i libucrt:output.obj
 0001:00030844       ?type_case_c_tchar@?$output_processor@_WV?$string_output_adapter@_W@__crt_stdio_output@@V?$positional_parameter_base@_WV?$string_output_adapter@_W@__crt_stdio_output@@@2@@__crt_stdio_output@@AAE_N_W@Z 10031844 f i libucrt:output.obj
 0001:0003091e       ?type_case_c_tchar@?$output_processor@_WV?$string_output_adapter@_W@__crt_stdio_output@@V?$standard_base@_WV?$string_output_adapter@_W@__crt_stdio_output@@@2@@__crt_stdio_output@@AAE_N_W@Z 1003191e f i libucrt:output.obj
 0001:000309dc       ?type_case_d@?$output_processor@DV?$stream_output_adapter@D@__crt_stdio_output@@V?$format_validation_base@DV?$stream_output_adapter@D@__crt_stdio_output@@@2@@__crt_stdio_output@@AAE_NXZ 100319dc f i libucrt:output.obj
 0001:000309ed       ?type_case_d@?$output_processor@DV?$stream_output_adapter@D@__crt_stdio_output@@V?$positional_parameter_base@DV?$stream_output_adapter@D@__crt_stdio_output@@@2@@__crt_stdio_output@@AAE_NXZ 100319ed f i libucrt:output.obj
 0001:000309fe       ?type_case_d@?$output_processor@DV?$stream_output_adapter@D@__crt_stdio_output@@V?$standard_base@DV?$stream_output_adapter@D@__crt_stdio_output@@@2@@__crt_stdio_output@@AAE_NXZ 100319fe f i libucrt:output.obj
 0001:00030a0f       ?type_case_d@?$output_processor@DV?$string_output_adapter@D@__crt_stdio_output@@V?$format_validation_base@DV?$string_output_adapter@D@__crt_stdio_output@@@2@@__crt_stdio_output@@AAE_NXZ 10031a0f f i libucrt:output.obj
 0001:00030a20       ?type_case_d@?$output_processor@DV?$string_output_adapter@D@__crt_stdio_output@@V?$positional_parameter_base@DV?$string_output_adapter@D@__crt_stdio_output@@@2@@__crt_stdio_output@@AAE_NXZ 10031a20 f i libucrt:output.obj
 0001:00030a31       ?type_case_d@?$output_processor@DV?$string_output_adapter@D@__crt_stdio_output@@V?$standard_base@DV?$string_output_adapter@D@__crt_stdio_output@@@2@@__crt_stdio_output@@AAE_NXZ 10031a31 f i libucrt:output.obj
 0001:00030a42       ?type_case_d@?$output_processor@_WV?$stream_output_adapter@_W@__crt_stdio_output@@V?$format_validation_base@_WV?$stream_output_adapter@_W@__crt_stdio_output@@@2@@__crt_stdio_output@@AAE_NXZ 10031a42 f i libucrt:output.obj
 0001:00030a53       ?type_case_d@?$output_processor@_WV?$stream_output_adapter@_W@__crt_stdio_output@@V?$positional_parameter_base@_WV?$stream_output_adapter@_W@__crt_stdio_output@@@2@@__crt_stdio_output@@AAE_NXZ 10031a53 f i libucrt:output.obj
 0001:00030a64       ?type_case_d@?$output_processor@_WV?$stream_output_adapter@_W@__crt_stdio_output@@V?$standard_base@_WV?$stream_output_adapter@_W@__crt_stdio_output@@@2@@__crt_stdio_output@@AAE_NXZ 10031a64 f i libucrt:output.obj
 0001:00030a75       ?type_case_d@?$output_processor@_WV?$string_output_adapter@_W@__crt_stdio_output@@V?$format_validation_base@_WV?$string_output_adapter@_W@__crt_stdio_output@@@2@@__crt_stdio_output@@AAE_NXZ 10031a75 f i libucrt:output.obj
 0001:00030a86       ?type_case_d@?$output_processor@_WV?$string_output_adapter@_W@__crt_stdio_output@@V?$positional_parameter_base@_WV?$string_output_adapter@_W@__crt_stdio_output@@@2@@__crt_stdio_output@@AAE_NXZ 10031a86 f i libucrt:output.obj
 0001:00030a97       ?type_case_d@?$output_processor@_WV?$string_output_adapter@_W@__crt_stdio_output@@V?$standard_base@_WV?$string_output_adapter@_W@__crt_stdio_output@@@2@@__crt_stdio_output@@AAE_NXZ 10031a97 f i libucrt:output.obj
 0001:00030aa8       ?type_case_integer@?$output_processor@DV?$stream_output_adapter@D@__crt_stdio_output@@V?$format_validation_base@DV?$stream_output_adapter@D@__crt_stdio_output@@@2@@__crt_stdio_output@@AAE_NI_N@Z 10031aa8 f i libucrt:output.obj
 0001:00030c44       ?type_case_integer@?$output_processor@DV?$stream_output_adapter@D@__crt_stdio_output@@V?$positional_parameter_base@DV?$stream_output_adapter@D@__crt_stdio_output@@@2@@__crt_stdio_output@@AAE_NI_N@Z 10031c44 f i libucrt:output.obj
 0001:00030e21       ?type_case_integer@?$output_processor@DV?$stream_output_adapter@D@__crt_stdio_output@@V?$standard_base@DV?$stream_output_adapter@D@__crt_stdio_output@@@2@@__crt_stdio_output@@AAE_NI_N@Z 10031e21 f i libucrt:output.obj
 0001:00030fbd       ?type_case_integer@?$output_processor@DV?$string_output_adapter@D@__crt_stdio_output@@V?$format_validation_base@DV?$string_output_adapter@D@__crt_stdio_output@@@2@@__crt_stdio_output@@AAE_NI_N@Z 10031fbd f i libucrt:output.obj
 0001:00031159       ?type_case_integer@?$output_processor@DV?$string_output_adapter@D@__crt_stdio_output@@V?$positional_parameter_base@DV?$string_output_adapter@D@__crt_stdio_output@@@2@@__crt_stdio_output@@AAE_NI_N@Z 10032159 f i libucrt:output.obj
 0001:00031336       ?type_case_integer@?$output_processor@DV?$string_output_adapter@D@__crt_stdio_output@@V?$standard_base@DV?$string_output_adapter@D@__crt_stdio_output@@@2@@__crt_stdio_output@@AAE_NI_N@Z 10032336 f i libucrt:output.obj
 0001:000314d2       ?type_case_integer@?$output_processor@_WV?$stream_output_adapter@_W@__crt_stdio_output@@V?$format_validation_base@_WV?$stream_output_adapter@_W@__crt_stdio_output@@@2@@__crt_stdio_output@@AAE_NI_N@Z 100324d2 f i libucrt:output.obj
 0001:0003166e       ?type_case_integer@?$output_processor@_WV?$stream_output_adapter@_W@__crt_stdio_output@@V?$positional_parameter_base@_WV?$stream_output_adapter@_W@__crt_stdio_output@@@2@@__crt_stdio_output@@AAE_NI_N@Z 1003266e f i libucrt:output.obj
 0001:0003184b       ?type_case_integer@?$output_processor@_WV?$stream_output_adapter@_W@__crt_stdio_output@@V?$standard_base@_WV?$stream_output_adapter@_W@__crt_stdio_output@@@2@@__crt_stdio_output@@AAE_NI_N@Z 1003284b f i libucrt:output.obj
 0001:000319e7       ?type_case_integer@?$output_processor@_WV?$string_output_adapter@_W@__crt_stdio_output@@V?$format_validation_base@_WV?$string_output_adapter@_W@__crt_stdio_output@@@2@@__crt_stdio_output@@AAE_NI_N@Z 100329e7 f i libucrt:output.obj
 0001:00031b83       ?type_case_integer@?$output_processor@_WV?$string_output_adapter@_W@__crt_stdio_output@@V?$positional_parameter_base@_WV?$string_output_adapter@_W@__crt_stdio_output@@@2@@__crt_stdio_output@@AAE_NI_N@Z 10032b83 f i libucrt:output.obj
 0001:00031d60       ?type_case_integer@?$output_processor@_WV?$string_output_adapter@_W@__crt_stdio_output@@V?$standard_base@_WV?$string_output_adapter@_W@__crt_stdio_output@@@2@@__crt_stdio_output@@AAE_NI_N@Z 10032d60 f i libucrt:output.obj
 0001:00031efc       ?type_case_n@?$output_processor@DV?$stream_output_adapter@D@__crt_stdio_output@@V?$format_validation_base@DV?$stream_output_adapter@D@__crt_stdio_output@@@2@@__crt_stdio_output@@AAE_NXZ 10032efc f i libucrt:output.obj
 0001:00031f8d       ?type_case_n@?$output_processor@DV?$stream_output_adapter@D@__crt_stdio_output@@V?$positional_parameter_base@DV?$stream_output_adapter@D@__crt_stdio_output@@@2@@__crt_stdio_output@@AAE_NXZ 10032f8d f i libucrt:output.obj
 0001:0003204c       ?type_case_n@?$output_processor@DV?$stream_output_adapter@D@__crt_stdio_output@@V?$standard_base@DV?$stream_output_adapter@D@__crt_stdio_output@@@2@@__crt_stdio_output@@AAE_NXZ 1003304c f i libucrt:output.obj
 0001:000320dd       ?type_case_n@?$output_processor@DV?$string_output_adapter@D@__crt_stdio_output@@V?$format_validation_base@DV?$string_output_adapter@D@__crt_stdio_output@@@2@@__crt_stdio_output@@AAE_NXZ 100330dd f i libucrt:output.obj
 0001:0003216e       ?type_case_n@?$output_processor@DV?$string_output_adapter@D@__crt_stdio_output@@V?$positional_parameter_base@DV?$string_output_adapter@D@__crt_stdio_output@@@2@@__crt_stdio_output@@AAE_NXZ 1003316e f i libucrt:output.obj
 0001:0003222d       ?type_case_n@?$output_processor@DV?$string_output_adapter@D@__crt_stdio_output@@V?$standard_base@DV?$string_output_adapter@D@__crt_stdio_output@@@2@@__crt_stdio_output@@AAE_NXZ 1003322d f i libucrt:output.obj
 0001:000322be       ?type_case_n@?$output_processor@_WV?$stream_output_adapter@_W@__crt_stdio_output@@V?$format_validation_base@_WV?$stream_output_adapter@_W@__crt_stdio_output@@@2@@__crt_stdio_output@@AAE_NXZ 100332be f i libucrt:output.obj
 0001:0003234f       ?type_case_n@?$output_processor@_WV?$stream_output_adapter@_W@__crt_stdio_output@@V?$positional_parameter_base@_WV?$stream_output_adapter@_W@__crt_stdio_output@@@2@@__crt_stdio_output@@AAE_NXZ 1003334f f i libucrt:output.obj
 0001:0003240e       ?type_case_n@?$output_processor@_WV?$stream_output_adapter@_W@__crt_stdio_output@@V?$standard_base@_WV?$stream_output_adapter@_W@__crt_stdio_output@@@2@@__crt_stdio_output@@AAE_NXZ 1003340e f i libucrt:output.obj
 0001:0003249f       ?type_case_n@?$output_processor@_WV?$string_output_adapter@_W@__crt_stdio_output@@V?$format_validation_base@_WV?$string_output_adapter@_W@__crt_stdio_output@@@2@@__crt_stdio_output@@AAE_NXZ 1003349f f i libucrt:output.obj
 0001:00032530       ?type_case_n@?$output_processor@_WV?$string_output_adapter@_W@__crt_stdio_output@@V?$positional_parameter_base@_WV?$string_output_adapter@_W@__crt_stdio_output@@@2@@__crt_stdio_output@@AAE_NXZ 10033530 f i libucrt:output.obj
 0001:000325ef       ?type_case_n@?$output_processor@_WV?$string_output_adapter@_W@__crt_stdio_output@@V?$standard_base@_WV?$string_output_adapter@_W@__crt_stdio_output@@@2@@__crt_stdio_output@@AAE_NXZ 100335ef f i libucrt:output.obj
 0001:00032680       ?type_case_o@?$output_processor@DV?$stream_output_adapter@D@__crt_stdio_output@@V?$format_validation_base@DV?$stream_output_adapter@D@__crt_stdio_output@@@2@@__crt_stdio_output@@AAE_NXZ 10033680 f i libucrt:output.obj
 0001:000326a6       ?type_case_o@?$output_processor@DV?$stream_output_adapter@D@__crt_stdio_output@@V?$positional_parameter_base@DV?$stream_output_adapter@D@__crt_stdio_output@@@2@@__crt_stdio_output@@AAE_NXZ 100336a6 f i libucrt:output.obj
 0001:000326cc       ?type_case_o@?$output_processor@DV?$stream_output_adapter@D@__crt_stdio_output@@V?$standard_base@DV?$stream_output_adapter@D@__crt_stdio_output@@@2@@__crt_stdio_output@@AAE_NXZ 100336cc f i libucrt:output.obj
 0001:000326f2       ?type_case_o@?$output_processor@DV?$string_output_adapter@D@__crt_stdio_output@@V?$format_validation_base@DV?$string_output_adapter@D@__crt_stdio_output@@@2@@__crt_stdio_output@@AAE_NXZ 100336f2 f i libucrt:output.obj
 0001:00032718       ?type_case_o@?$output_processor@DV?$string_output_adapter@D@__crt_stdio_output@@V?$positional_parameter_base@DV?$string_output_adapter@D@__crt_stdio_output@@@2@@__crt_stdio_output@@AAE_NXZ 10033718 f i libucrt:output.obj
 0001:0003273e       ?type_case_o@?$output_processor@DV?$string_output_adapter@D@__crt_stdio_output@@V?$standard_base@DV?$string_output_adapter@D@__crt_stdio_output@@@2@@__crt_stdio_output@@AAE_NXZ 1003373e f i libucrt:output.obj
 0001:00032764       ?type_case_o@?$output_processor@_WV?$stream_output_adapter@_W@__crt_stdio_output@@V?$format_validation_base@_WV?$stream_output_adapter@_W@__crt_stdio_output@@@2@@__crt_stdio_output@@AAE_NXZ 10033764 f i libucrt:output.obj
 0001:0003278a       ?type_case_o@?$output_processor@_WV?$stream_output_adapter@_W@__crt_stdio_output@@V?$positional_parameter_base@_WV?$stream_output_adapter@_W@__crt_stdio_output@@@2@@__crt_stdio_output@@AAE_NXZ 1003378a f i libucrt:output.obj
 0001:000327b0       ?type_case_o@?$output_processor@_WV?$stream_output_adapter@_W@__crt_stdio_output@@V?$standard_base@_WV?$stream_output_adapter@_W@__crt_stdio_output@@@2@@__crt_stdio_output@@AAE_NXZ 100337b0 f i libucrt:output.obj
 0001:000327d6       ?type_case_o@?$output_processor@_WV?$string_output_adapter@_W@__crt_stdio_output@@V?$format_validation_base@_WV?$string_output_adapter@_W@__crt_stdio_output@@@2@@__crt_stdio_output@@AAE_NXZ 100337d6 f i libucrt:output.obj
 0001:000327fc       ?type_case_o@?$output_processor@_WV?$string_output_adapter@_W@__crt_stdio_output@@V?$positional_parameter_base@_WV?$string_output_adapter@_W@__crt_stdio_output@@@2@@__crt_stdio_output@@AAE_NXZ 100337fc f i libucrt:output.obj
 0001:00032822       ?type_case_o@?$output_processor@_WV?$string_output_adapter@_W@__crt_stdio_output@@V?$standard_base@_WV?$string_output_adapter@_W@__crt_stdio_output@@@2@@__crt_stdio_output@@AAE_NXZ 10033822 f i libucrt:output.obj
 0001:00032848       ?type_case_p@?$output_processor@DV?$stream_output_adapter@D@__crt_stdio_output@@V?$format_validation_base@DV?$stream_output_adapter@D@__crt_stdio_output@@@2@@__crt_stdio_output@@AAE_NXZ 10033848 f i libucrt:output.obj
 0001:00032866       ?type_case_p@?$output_processor@DV?$stream_output_adapter@D@__crt_stdio_output@@V?$positional_parameter_base@DV?$stream_output_adapter@D@__crt_stdio_output@@@2@@__crt_stdio_output@@AAE_NXZ 10033866 f i libucrt:output.obj
 0001:00032884       ?type_case_p@?$output_processor@DV?$stream_output_adapter@D@__crt_stdio_output@@V?$standard_base@DV?$stream_output_adapter@D@__crt_stdio_output@@@2@@__crt_stdio_output@@AAE_NXZ 10033884 f i libucrt:output.obj
 0001:000328a2       ?type_case_p@?$output_processor@DV?$string_output_adapter@D@__crt_stdio_output@@V?$format_validation_base@DV?$string_output_adapter@D@__crt_stdio_output@@@2@@__crt_stdio_output@@AAE_NXZ 100338a2 f i libucrt:output.obj
 0001:000328c0       ?type_case_p@?$output_processor@DV?$string_output_adapter@D@__crt_stdio_output@@V?$positional_parameter_base@DV?$string_output_adapter@D@__crt_stdio_output@@@2@@__crt_stdio_output@@AAE_NXZ 100338c0 f i libucrt:output.obj
 0001:000328de       ?type_case_p@?$output_processor@DV?$string_output_adapter@D@__crt_stdio_output@@V?$standard_base@DV?$string_output_adapter@D@__crt_stdio_output@@@2@@__crt_stdio_output@@AAE_NXZ 100338de f i libucrt:output.obj
 0001:000328fc       ?type_case_p@?$output_processor@_WV?$stream_output_adapter@_W@__crt_stdio_output@@V?$format_validation_base@_WV?$stream_output_adapter@_W@__crt_stdio_output@@@2@@__crt_stdio_output@@AAE_NXZ 100338fc f i libucrt:output.obj
 0001:0003291a       ?type_case_p@?$output_processor@_WV?$stream_output_adapter@_W@__crt_stdio_output@@V?$positional_parameter_base@_WV?$stream_output_adapter@_W@__crt_stdio_output@@@2@@__crt_stdio_output@@AAE_NXZ 1003391a f i libucrt:output.obj
 0001:00032938       ?type_case_p@?$output_processor@_WV?$stream_output_adapter@_W@__crt_stdio_output@@V?$standard_base@_WV?$stream_output_adapter@_W@__crt_stdio_output@@@2@@__crt_stdio_output@@AAE_NXZ 10033938 f i libucrt:output.obj
 0001:00032956       ?type_case_p@?$output_processor@_WV?$string_output_adapter@_W@__crt_stdio_output@@V?$format_validation_base@_WV?$string_output_adapter@_W@__crt_stdio_output@@@2@@__crt_stdio_output@@AAE_NXZ 10033956 f i libucrt:output.obj
 0001:00032974       ?type_case_p@?$output_processor@_WV?$string_output_adapter@_W@__crt_stdio_output@@V?$positional_parameter_base@_WV?$string_output_adapter@_W@__crt_stdio_output@@@2@@__crt_stdio_output@@AAE_NXZ 10033974 f i libucrt:output.obj
 0001:00032992       ?type_case_p@?$output_processor@_WV?$string_output_adapter@_W@__crt_stdio_output@@V?$standard_base@_WV?$string_output_adapter@_W@__crt_stdio_output@@@2@@__crt_stdio_output@@AAE_NXZ 10033992 f i libucrt:output.obj
 0001:000329b0       ?type_case_s@?$output_processor@DV?$stream_output_adapter@D@__crt_stdio_output@@V?$format_validation_base@DV?$stream_output_adapter@D@__crt_stdio_output@@@2@@__crt_stdio_output@@AAE_NXZ 100339b0 f i libucrt:output.obj
 0001:00032a3f       ?type_case_s@?$output_processor@DV?$stream_output_adapter@D@__crt_stdio_output@@V?$positional_parameter_base@DV?$stream_output_adapter@D@__crt_stdio_output@@@2@@__crt_stdio_output@@AAE_NXZ 10033a3f f i libucrt:output.obj
 0001:00032ada       ?type_case_s@?$output_processor@DV?$stream_output_adapter@D@__crt_stdio_output@@V?$standard_base@DV?$stream_output_adapter@D@__crt_stdio_output@@@2@@__crt_stdio_output@@AAE_NXZ 10033ada f i libucrt:output.obj
 0001:00032b69       ?type_case_s@?$output_processor@DV?$string_output_adapter@D@__crt_stdio_output@@V?$format_validation_base@DV?$string_output_adapter@D@__crt_stdio_output@@@2@@__crt_stdio_output@@AAE_NXZ 10033b69 f i libucrt:output.obj
 0001:00032bf8       ?type_case_s@?$output_processor@DV?$string_output_adapter@D@__crt_stdio_output@@V?$positional_parameter_base@DV?$string_output_adapter@D@__crt_stdio_output@@@2@@__crt_stdio_output@@AAE_NXZ 10033bf8 f i libucrt:output.obj
 0001:00032c93       ?type_case_s@?$output_processor@DV?$string_output_adapter@D@__crt_stdio_output@@V?$standard_base@DV?$string_output_adapter@D@__crt_stdio_output@@@2@@__crt_stdio_output@@AAE_NXZ 10033c93 f i libucrt:output.obj
 0001:00032d22       ?type_case_s@?$output_processor@_WV?$stream_output_adapter@_W@__crt_stdio_output@@V?$format_validation_base@_WV?$stream_output_adapter@_W@__crt_stdio_output@@@2@@__crt_stdio_output@@AAE_NXZ 10033d22 f i libucrt:output.obj
 0001:00032db3       ?type_case_s@?$output_processor@_WV?$stream_output_adapter@_W@__crt_stdio_output@@V?$positional_parameter_base@_WV?$stream_output_adapter@_W@__crt_stdio_output@@@2@@__crt_stdio_output@@AAE_NXZ 10033db3 f i libucrt:output.obj
 0001:00032e50       ?type_case_s@?$output_processor@_WV?$stream_output_adapter@_W@__crt_stdio_output@@V?$standard_base@_WV?$stream_output_adapter@_W@__crt_stdio_output@@@2@@__crt_stdio_output@@AAE_NXZ 10033e50 f i libucrt:output.obj
 0001:00032ee1       ?type_case_s@?$output_processor@_WV?$string_output_adapter@_W@__crt_stdio_output@@V?$format_validation_base@_WV?$string_output_adapter@_W@__crt_stdio_output@@@2@@__crt_stdio_output@@AAE_NXZ 10033ee1 f i libucrt:output.obj
 0001:00032f72       ?type_case_s@?$output_processor@_WV?$string_output_adapter@_W@__crt_stdio_output@@V?$positional_parameter_base@_WV?$string_output_adapter@_W@__crt_stdio_output@@@2@@__crt_stdio_output@@AAE_NXZ 10033f72 f i libucrt:output.obj
 0001:0003300f       ?type_case_s@?$output_processor@_WV?$string_output_adapter@_W@__crt_stdio_output@@V?$standard_base@_WV?$string_output_adapter@_W@__crt_stdio_output@@@2@@__crt_stdio_output@@AAE_NXZ 1003400f f i libucrt:output.obj
 0001:000330a0       ?type_case_s_compute_narrow_string_length@?$output_processor@DV?$stream_output_adapter@D@__crt_stdio_output@@V?$format_validation_base@DV?$stream_output_adapter@D@__crt_stdio_output@@@2@@__crt_stdio_output@@ABEHHD@Z 100340a0 f i libucrt:output.obj
 0001:000330bb       ?type_case_s_compute_narrow_string_length@?$output_processor@DV?$stream_output_adapter@D@__crt_stdio_output@@V?$positional_parameter_base@DV?$stream_output_adapter@D@__crt_stdio_output@@@2@@__crt_stdio_output@@ABEHHD@Z 100340bb f i libucrt:output.obj
 0001:000330d6       ?type_case_s_compute_narrow_string_length@?$output_processor@DV?$stream_output_adapter@D@__crt_stdio_output@@V?$standard_base@DV?$stream_output_adapter@D@__crt_stdio_output@@@2@@__crt_stdio_output@@ABEHHD@Z 100340d6 f i libucrt:output.obj
 0001:000330f1       ?type_case_s_compute_narrow_string_length@?$output_processor@DV?$string_output_adapter@D@__crt_stdio_output@@V?$format_validation_base@DV?$string_output_adapter@D@__crt_stdio_output@@@2@@__crt_stdio_output@@ABEHHD@Z 100340f1 f i libucrt:output.obj
 0001:0003310c       ?type_case_s_compute_narrow_string_length@?$output_processor@DV?$string_output_adapter@D@__crt_stdio_output@@V?$positional_parameter_base@DV?$string_output_adapter@D@__crt_stdio_output@@@2@@__crt_stdio_output@@ABEHHD@Z 1003410c f i libucrt:output.obj
 0001:00033127       ?type_case_s_compute_narrow_string_length@?$output_processor@DV?$string_output_adapter@D@__crt_stdio_output@@V?$standard_base@DV?$string_output_adapter@D@__crt_stdio_output@@@2@@__crt_stdio_output@@ABEHHD@Z 10034127 f i libucrt:output.obj
 0001:00033142       ?type_case_s_compute_narrow_string_length@?$output_processor@_WV?$stream_output_adapter@_W@__crt_stdio_output@@V?$format_validation_base@_WV?$stream_output_adapter@_W@__crt_stdio_output@@@2@@__crt_stdio_output@@ABEHH_W@Z 10034142 f i libucrt:output.obj
 0001:00033192       ?type_case_s_compute_narrow_string_length@?$output_processor@_WV?$stream_output_adapter@_W@__crt_stdio_output@@V?$positional_parameter_base@_WV?$stream_output_adapter@_W@__crt_stdio_output@@@2@@__crt_stdio_output@@ABEHH_W@Z 10034192 f i libucrt:output.obj
 0001:000331e2       ?type_case_s_compute_narrow_string_length@?$output_processor@_WV?$stream_output_adapter@_W@__crt_stdio_output@@V?$standard_base@_WV?$stream_output_adapter@_W@__crt_stdio_output@@@2@@__crt_stdio_output@@ABEHH_W@Z 100341e2 f i libucrt:output.obj
 0001:00033232       ?type_case_s_compute_narrow_string_length@?$output_processor@_WV?$string_output_adapter@_W@__crt_stdio_output@@V?$format_validation_base@_WV?$string_output_adapter@_W@__crt_stdio_output@@@2@@__crt_stdio_output@@ABEHH_W@Z 10034232 f i libucrt:output.obj
 0001:00033282       ?type_case_s_compute_narrow_string_length@?$output_processor@_WV?$string_output_adapter@_W@__crt_stdio_output@@V?$positional_parameter_base@_WV?$string_output_adapter@_W@__crt_stdio_output@@@2@@__crt_stdio_output@@ABEHH_W@Z 10034282 f i libucrt:output.obj
 0001:000332d2       ?type_case_s_compute_narrow_string_length@?$output_processor@_WV?$string_output_adapter@_W@__crt_stdio_output@@V?$standard_base@_WV?$string_output_adapter@_W@__crt_stdio_output@@@2@@__crt_stdio_output@@ABEHH_W@Z 100342d2 f i libucrt:output.obj
 0001:00033322       ?type_case_u@?$output_processor@DV?$stream_output_adapter@D@__crt_stdio_output@@V?$format_validation_base@DV?$stream_output_adapter@D@__crt_stdio_output@@@2@@__crt_stdio_output@@AAE_NXZ 10034322 f i libucrt:output.obj
 0001:0003332e       ?type_case_u@?$output_processor@DV?$stream_output_adapter@D@__crt_stdio_output@@V?$positional_parameter_base@DV?$stream_output_adapter@D@__crt_stdio_output@@@2@@__crt_stdio_output@@AAE_NXZ 1003432e f i libucrt:output.obj
 0001:0003333a       ?type_case_u@?$output_processor@DV?$stream_output_adapter@D@__crt_stdio_output@@V?$standard_base@DV?$stream_output_adapter@D@__crt_stdio_output@@@2@@__crt_stdio_output@@AAE_NXZ 1003433a f i libucrt:output.obj
 0001:00033346       ?type_case_u@?$output_processor@DV?$string_output_adapter@D@__crt_stdio_output@@V?$format_validation_base@DV?$string_output_adapter@D@__crt_stdio_output@@@2@@__crt_stdio_output@@AAE_NXZ 10034346 f i libucrt:output.obj
 0001:00033352       ?type_case_u@?$output_processor@DV?$string_output_adapter@D@__crt_stdio_output@@V?$positional_parameter_base@DV?$string_output_adapter@D@__crt_stdio_output@@@2@@__crt_stdio_output@@AAE_NXZ 10034352 f i libucrt:output.obj
 0001:0003335e       ?type_case_u@?$output_processor@DV?$string_output_adapter@D@__crt_stdio_output@@V?$standard_base@DV?$string_output_adapter@D@__crt_stdio_output@@@2@@__crt_stdio_output@@AAE_NXZ 1003435e f i libucrt:output.obj
 0001:0003336a       ?type_case_u@?$output_processor@_WV?$stream_output_adapter@_W@__crt_stdio_output@@V?$format_validation_base@_WV?$stream_output_adapter@_W@__crt_stdio_output@@@2@@__crt_stdio_output@@AAE_NXZ 1003436a f i libucrt:output.obj
 0001:00033376       ?type_case_u@?$output_processor@_WV?$stream_output_adapter@_W@__crt_stdio_output@@V?$positional_parameter_base@_WV?$stream_output_adapter@_W@__crt_stdio_output@@@2@@__crt_stdio_output@@AAE_NXZ 10034376 f i libucrt:output.obj
 0001:00033382       ?type_case_u@?$output_processor@_WV?$stream_output_adapter@_W@__crt_stdio_output@@V?$standard_base@_WV?$stream_output_adapter@_W@__crt_stdio_output@@@2@@__crt_stdio_output@@AAE_NXZ 10034382 f i libucrt:output.obj
 0001:0003338e       ?type_case_u@?$output_processor@_WV?$string_output_adapter@_W@__crt_stdio_output@@V?$format_validation_base@_WV?$string_output_adapter@_W@__crt_stdio_output@@@2@@__crt_stdio_output@@AAE_NXZ 1003438e f i libucrt:output.obj
 0001:0003339a       ?type_case_u@?$output_processor@_WV?$string_output_adapter@_W@__crt_stdio_output@@V?$positional_parameter_base@_WV?$string_output_adapter@_W@__crt_stdio_output@@@2@@__crt_stdio_output@@AAE_NXZ 1003439a f i libucrt:output.obj
 0001:000333a6       ?type_case_u@?$output_processor@_WV?$string_output_adapter@_W@__crt_stdio_output@@V?$standard_base@_WV?$string_output_adapter@_W@__crt_stdio_output@@@2@@__crt_stdio_output@@AAE_NXZ 100343a6 f i libucrt:output.obj
 0001:000333b2       ?type_case_x@?$output_processor@DV?$stream_output_adapter@D@__crt_stdio_output@@V?$format_validation_base@DV?$stream_output_adapter@D@__crt_stdio_output@@@2@@__crt_stdio_output@@AAE_NXZ 100343b2 f i libucrt:output.obj
 0001:000333be       ?type_case_x@?$output_processor@DV?$stream_output_adapter@D@__crt_stdio_output@@V?$positional_parameter_base@DV?$stream_output_adapter@D@__crt_stdio_output@@@2@@__crt_stdio_output@@AAE_NXZ 100343be f i libucrt:output.obj
 0001:000333ca       ?type_case_x@?$output_processor@DV?$stream_output_adapter@D@__crt_stdio_output@@V?$standard_base@DV?$stream_output_adapter@D@__crt_stdio_output@@@2@@__crt_stdio_output@@AAE_NXZ 100343ca f i libucrt:output.obj
 0001:000333d6       ?type_case_x@?$output_processor@DV?$string_output_adapter@D@__crt_stdio_output@@V?$format_validation_base@DV?$string_output_adapter@D@__crt_stdio_output@@@2@@__crt_stdio_output@@AAE_NXZ 100343d6 f i libucrt:output.obj
 0001:000333e2       ?type_case_x@?$output_processor@DV?$string_output_adapter@D@__crt_stdio_output@@V?$positional_parameter_base@DV?$string_output_adapter@D@__crt_stdio_output@@@2@@__crt_stdio_output@@AAE_NXZ 100343e2 f i libucrt:output.obj
 0001:000333ee       ?type_case_x@?$output_processor@DV?$string_output_adapter@D@__crt_stdio_output@@V?$standard_base@DV?$string_output_adapter@D@__crt_stdio_output@@@2@@__crt_stdio_output@@AAE_NXZ 100343ee f i libucrt:output.obj
 0001:000333fa       ?type_case_x@?$output_processor@_WV?$stream_output_adapter@_W@__crt_stdio_output@@V?$format_validation_base@_WV?$stream_output_adapter@_W@__crt_stdio_output@@@2@@__crt_stdio_output@@AAE_NXZ 100343fa f i libucrt:output.obj
 0001:00033406       ?type_case_x@?$output_processor@_WV?$stream_output_adapter@_W@__crt_stdio_output@@V?$positional_parameter_base@_WV?$stream_output_adapter@_W@__crt_stdio_output@@@2@@__crt_stdio_output@@AAE_NXZ 10034406 f i libucrt:output.obj
 0001:00033412       ?type_case_x@?$output_processor@_WV?$stream_output_adapter@_W@__crt_stdio_output@@V?$standard_base@_WV?$stream_output_adapter@_W@__crt_stdio_output@@@2@@__crt_stdio_output@@AAE_NXZ 10034412 f i libucrt:output.obj
 0001:0003341e       ?type_case_x@?$output_processor@_WV?$string_output_adapter@_W@__crt_stdio_output@@V?$format_validation_base@_WV?$string_output_adapter@_W@__crt_stdio_output@@@2@@__crt_stdio_output@@AAE_NXZ 1003441e f i libucrt:output.obj
 0001:0003342a       ?type_case_x@?$output_processor@_WV?$string_output_adapter@_W@__crt_stdio_output@@V?$positional_parameter_base@_WV?$string_output_adapter@_W@__crt_stdio_output@@@2@@__crt_stdio_output@@AAE_NXZ 1003442a f i libucrt:output.obj
 0001:00033436       ?type_case_x@?$output_processor@_WV?$string_output_adapter@_W@__crt_stdio_output@@V?$standard_base@_WV?$string_output_adapter@_W@__crt_stdio_output@@@2@@__crt_stdio_output@@AAE_NXZ 10034436 f i libucrt:output.obj
 0001:00033442       ?unset_flag@?$output_processor@DV?$stream_output_adapter@D@__crt_stdio_output@@V?$format_validation_base@DV?$stream_output_adapter@D@__crt_stdio_output@@@2@@__crt_stdio_output@@AAEXI@Z 10034442 f i libucrt:output.obj
 0001:00033457       ?unset_flag@?$output_processor@DV?$stream_output_adapter@D@__crt_stdio_output@@V?$positional_parameter_base@DV?$stream_output_adapter@D@__crt_stdio_output@@@2@@__crt_stdio_output@@AAEXI@Z 10034457 f i libucrt:output.obj
 0001:0003346c       ?unset_flag@?$output_processor@DV?$stream_output_adapter@D@__crt_stdio_output@@V?$standard_base@DV?$stream_output_adapter@D@__crt_stdio_output@@@2@@__crt_stdio_output@@AAEXI@Z 1003446c f i libucrt:output.obj
 0001:00033481       ?unset_flag@?$output_processor@DV?$string_output_adapter@D@__crt_stdio_output@@V?$format_validation_base@DV?$string_output_adapter@D@__crt_stdio_output@@@2@@__crt_stdio_output@@AAEXI@Z 10034481 f i libucrt:output.obj
 0001:00033496       ?unset_flag@?$output_processor@DV?$string_output_adapter@D@__crt_stdio_output@@V?$positional_parameter_base@DV?$string_output_adapter@D@__crt_stdio_output@@@2@@__crt_stdio_output@@AAEXI@Z 10034496 f i libucrt:output.obj
 0001:000334ab       ?unset_flag@?$output_processor@DV?$string_output_adapter@D@__crt_stdio_output@@V?$standard_base@DV?$string_output_adapter@D@__crt_stdio_output@@@2@@__crt_stdio_output@@AAEXI@Z 100344ab f i libucrt:output.obj
 0001:000334c0       ?unset_flag@?$output_processor@_WV?$stream_output_adapter@_W@__crt_stdio_output@@V?$format_validation_base@_WV?$stream_output_adapter@_W@__crt_stdio_output@@@2@@__crt_stdio_output@@AAEXI@Z 100344c0 f i libucrt:output.obj
 0001:000334d5       ?unset_flag@?$output_processor@_WV?$stream_output_adapter@_W@__crt_stdio_output@@V?$positional_parameter_base@_WV?$stream_output_adapter@_W@__crt_stdio_output@@@2@@__crt_stdio_output@@AAEXI@Z 100344d5 f i libucrt:output.obj
 0001:000334ea       ?unset_flag@?$output_processor@_WV?$stream_output_adapter@_W@__crt_stdio_output@@V?$standard_base@_WV?$stream_output_adapter@_W@__crt_stdio_output@@@2@@__crt_stdio_output@@AAEXI@Z 100344ea f i libucrt:output.obj
 0001:000334ff       ?unset_flag@?$output_processor@_WV?$string_output_adapter@_W@__crt_stdio_output@@V?$format_validation_base@_WV?$string_output_adapter@_W@__crt_stdio_output@@@2@@__crt_stdio_output@@AAEXI@Z 100344ff f i libucrt:output.obj
 0001:00033514       ?unset_flag@?$output_processor@_WV?$string_output_adapter@_W@__crt_stdio_output@@V?$positional_parameter_base@_WV?$string_output_adapter@_W@__crt_stdio_output@@@2@@__crt_stdio_output@@AAEXI@Z 10034514 f i libucrt:output.obj
 0001:00033529       ?unset_flag@?$output_processor@_WV?$string_output_adapter@_W@__crt_stdio_output@@V?$standard_base@_WV?$string_output_adapter@_W@__crt_stdio_output@@@2@@__crt_stdio_output@@AAEXI@Z 10034529 f i libucrt:output.obj
 0001:0003353e       ?update_field_width@?$positional_parameter_base@DV?$stream_output_adapter@D@__crt_stdio_output@@@__crt_stdio_output@@IAE_NXZ 1003453e f i libucrt:output.obj
 0001:00033621       ?update_field_width@?$positional_parameter_base@DV?$string_output_adapter@D@__crt_stdio_output@@@__crt_stdio_output@@IAE_NXZ 10034621 f i libucrt:output.obj
 0001:00033704       ?update_field_width@?$positional_parameter_base@_WV?$stream_output_adapter@_W@__crt_stdio_output@@@__crt_stdio_output@@IAE_NXZ 10034704 f i libucrt:output.obj
 0001:000337e8       ?update_field_width@?$positional_parameter_base@_WV?$string_output_adapter@_W@__crt_stdio_output@@@__crt_stdio_output@@IAE_NXZ 100347e8 f i libucrt:output.obj
 0001:000338cc       ?update_field_width@?$standard_base@DV?$stream_output_adapter@D@__crt_stdio_output@@@__crt_stdio_output@@IAE_NXZ 100348cc f i libucrt:output.obj
 0001:000338e0       ?update_field_width@?$standard_base@DV?$string_output_adapter@D@__crt_stdio_output@@@__crt_stdio_output@@IAE_NXZ 100348e0 f i libucrt:output.obj
 0001:000338f4       ?update_field_width@?$standard_base@_WV?$stream_output_adapter@_W@__crt_stdio_output@@@__crt_stdio_output@@IAE_NXZ 100348f4 f i libucrt:output.obj
 0001:00033908       ?update_field_width@?$standard_base@_WV?$string_output_adapter@_W@__crt_stdio_output@@@__crt_stdio_output@@IAE_NXZ 10034908 f i libucrt:output.obj
 0001:0003391c       ?update_precision@?$positional_parameter_base@DV?$stream_output_adapter@D@__crt_stdio_output@@@__crt_stdio_output@@IAE_NXZ 1003491c f i libucrt:output.obj
 0001:000339ff       ?update_precision@?$positional_parameter_base@DV?$string_output_adapter@D@__crt_stdio_output@@@__crt_stdio_output@@IAE_NXZ 100349ff f i libucrt:output.obj
 0001:00033ae2       ?update_precision@?$positional_parameter_base@_WV?$stream_output_adapter@_W@__crt_stdio_output@@@__crt_stdio_output@@IAE_NXZ 10034ae2 f i libucrt:output.obj
 0001:00033bc6       ?update_precision@?$positional_parameter_base@_WV?$string_output_adapter@_W@__crt_stdio_output@@@__crt_stdio_output@@IAE_NXZ 10034bc6 f i libucrt:output.obj
 0001:00033caa       ?update_precision@?$standard_base@DV?$stream_output_adapter@D@__crt_stdio_output@@@__crt_stdio_output@@IAE_NXZ 10034caa f i libucrt:output.obj
 0001:00033cbe       ?update_precision@?$standard_base@DV?$string_output_adapter@D@__crt_stdio_output@@@__crt_stdio_output@@IAE_NXZ 10034cbe f i libucrt:output.obj
 0001:00033cd2       ?update_precision@?$standard_base@_WV?$stream_output_adapter@_W@__crt_stdio_output@@@__crt_stdio_output@@IAE_NXZ 10034cd2 f i libucrt:output.obj
 0001:00033ce6       ?update_precision@?$standard_base@_WV?$string_output_adapter@_W@__crt_stdio_output@@@__crt_stdio_output@@IAE_NXZ 10034ce6 f i libucrt:output.obj
 0001:00033cfa       ?valid@__crt_stdio_stream@@QBE_NXZ 10034cfa f i libucrt:output.obj
 0001:00033d04       ?validate@?$stream_output_adapter@D@__crt_stdio_output@@QBE_NXZ 10034d04 f i libucrt:output.obj
 0001:00033d2d       ?validate@?$stream_output_adapter@_W@__crt_stdio_output@@QBE_NXZ 10034d2d f i libucrt:output.obj
 0001:00033d4e       ?validate@?$string_output_adapter@D@__crt_stdio_output@@QBE_NXZ 10034d4e f i libucrt:output.obj
 0001:00033d6f       ?validate@?$string_output_adapter@_W@__crt_stdio_output@@QBE_NXZ 10034d6f f i libucrt:output.obj
 0001:00033d90       ?validate_and_store_parameter_data@?$positional_parameter_base@DV?$stream_output_adapter@D@__crt_stdio_output@@@__crt_stdio_output@@AAE_NAAUparameter_data@12@W4parameter_type@12@DW4length_modifier@2@@Z 10034d90 f i libucrt:output.obj
 0001:00033ded       ?validate_and_store_parameter_data@?$positional_parameter_base@DV?$string_output_adapter@D@__crt_stdio_output@@@__crt_stdio_output@@AAE_NAAUparameter_data@12@W4parameter_type@12@DW4length_modifier@2@@Z 10034ded f i libucrt:output.obj
 0001:00033e4a       ?validate_and_store_parameter_data@?$positional_parameter_base@_WV?$stream_output_adapter@_W@__crt_stdio_output@@@__crt_stdio_output@@AAE_NAAUparameter_data@12@W4parameter_type@12@_WW4length_modifier@2@@Z 10034e4a f i libucrt:output.obj
 0001:00033eaa       ?validate_and_store_parameter_data@?$positional_parameter_base@_WV?$string_output_adapter@_W@__crt_stdio_output@@@__crt_stdio_output@@AAE_NAAUparameter_data@12@W4parameter_type@12@_WW4length_modifier@2@@Z 10034eaa f i libucrt:output.obj
 0001:00033f0a       ?validate_and_update_state_at_beginning_of_format_character@?$positional_parameter_base@DV?$stream_output_adapter@D@__crt_stdio_output@@@__crt_stdio_output@@IAE_NXZ 10034f0a f i libucrt:output.obj
 0001:00034040       ?validate_and_update_state_at_beginning_of_format_character@?$positional_parameter_base@DV?$string_output_adapter@D@__crt_stdio_output@@@__crt_stdio_output@@IAE_NXZ 10035040 f i libucrt:output.obj
 0001:00034176       ?validate_and_update_state_at_beginning_of_format_character@?$positional_parameter_base@_WV?$stream_output_adapter@_W@__crt_stdio_output@@@__crt_stdio_output@@IAE_NXZ 10035176 f i libucrt:output.obj
 0001:000342b8       ?validate_and_update_state_at_beginning_of_format_character@?$positional_parameter_base@_WV?$string_output_adapter@_W@__crt_stdio_output@@@__crt_stdio_output@@IAE_NXZ 100352b8 f i libucrt:output.obj
 0001:000343fa       ?validate_and_update_state_at_beginning_of_format_character@?$standard_base@DV?$stream_output_adapter@D@__crt_stdio_output@@@__crt_stdio_output@@IAE_NXZ 100353fa f i libucrt:output.obj
 0001:000343fd       ?validate_and_update_state_at_beginning_of_format_character@?$standard_base@DV?$string_output_adapter@D@__crt_stdio_output@@@__crt_stdio_output@@IAE_NXZ 100353fd f i libucrt:output.obj
 0001:00034400       ?validate_and_update_state_at_beginning_of_format_character@?$standard_base@_WV?$stream_output_adapter@_W@__crt_stdio_output@@@__crt_stdio_output@@IAE_NXZ 10035400 f i libucrt:output.obj
 0001:00034403       ?validate_and_update_state_at_beginning_of_format_character@?$standard_base@_WV?$string_output_adapter@_W@__crt_stdio_output@@@__crt_stdio_output@@IAE_NXZ 10035403 f i libucrt:output.obj
 0001:00034406       ?validate_and_update_state_at_end_of_format_string@?$format_validation_base@DV?$stream_output_adapter@D@__crt_stdio_output@@@__crt_stdio_output@@IBE_NXZ 10035406 f i libucrt:output.obj
 0001:00034430       ?validate_and_update_state_at_end_of_format_string@?$format_validation_base@DV?$string_output_adapter@D@__crt_stdio_output@@@__crt_stdio_output@@IBE_NXZ 10035430 f i libucrt:output.obj
 0001:0003445a       ?validate_and_update_state_at_end_of_format_string@?$format_validation_base@_WV?$stream_output_adapter@_W@__crt_stdio_output@@@__crt_stdio_output@@IBE_NXZ 1003545a f i libucrt:output.obj
 0001:00034484       ?validate_and_update_state_at_end_of_format_string@?$format_validation_base@_WV?$string_output_adapter@_W@__crt_stdio_output@@@__crt_stdio_output@@IBE_NXZ 10035484 f i libucrt:output.obj
 0001:000344ae       ?validate_and_update_state_at_end_of_format_string@?$positional_parameter_base@DV?$stream_output_adapter@D@__crt_stdio_output@@@__crt_stdio_output@@IAE_NXZ 100354ae f i libucrt:output.obj
 0001:0003454e       ?validate_and_update_state_at_end_of_format_string@?$positional_parameter_base@DV?$string_output_adapter@D@__crt_stdio_output@@@__crt_stdio_output@@IAE_NXZ 1003554e f i libucrt:output.obj
 0001:000345ee       ?validate_and_update_state_at_end_of_format_string@?$positional_parameter_base@_WV?$stream_output_adapter@_W@__crt_stdio_output@@@__crt_stdio_output@@IAE_NXZ 100355ee f i libucrt:output.obj
 0001:0003468e       ?validate_and_update_state_at_end_of_format_string@?$positional_parameter_base@_WV?$string_output_adapter@_W@__crt_stdio_output@@@__crt_stdio_output@@IAE_NXZ 1003568e f i libucrt:output.obj
 0001:0003472e       ?validate_and_update_state_at_end_of_format_string@?$standard_base@DV?$stream_output_adapter@D@__crt_stdio_output@@@__crt_stdio_output@@IBE_NXZ 1003572e f i libucrt:output.obj
 0001:00034731       ?validate_and_update_state_at_end_of_format_string@?$standard_base@DV?$string_output_adapter@D@__crt_stdio_output@@@__crt_stdio_output@@IBE_NXZ 10035731 f i libucrt:output.obj
 0001:00034734       ?validate_and_update_state_at_end_of_format_string@?$standard_base@_WV?$stream_output_adapter@_W@__crt_stdio_output@@@__crt_stdio_output@@IBE_NXZ 10035734 f i libucrt:output.obj
 0001:00034737       ?validate_and_update_state_at_end_of_format_string@?$standard_base@_WV?$string_output_adapter@_W@__crt_stdio_output@@@__crt_stdio_output@@IBE_NXZ 10035737 f i libucrt:output.obj
 0001:0003473a       ?validate_state_for_type_case_a@?$positional_parameter_base@DV?$stream_output_adapter@D@__crt_stdio_output@@@__crt_stdio_output@@IAE_NXZ 1003573a f i libucrt:output.obj
 0001:000347a1       ?validate_state_for_type_case_a@?$positional_parameter_base@DV?$string_output_adapter@D@__crt_stdio_output@@@__crt_stdio_output@@IAE_NXZ 100357a1 f i libucrt:output.obj
 0001:00034808       ?validate_state_for_type_case_a@?$positional_parameter_base@_WV?$stream_output_adapter@_W@__crt_stdio_output@@@__crt_stdio_output@@IAE_NXZ 10035808 f i libucrt:output.obj
 0001:0003486f       ?validate_state_for_type_case_a@?$positional_parameter_base@_WV?$string_output_adapter@_W@__crt_stdio_output@@@__crt_stdio_output@@IAE_NXZ 1003586f f i libucrt:output.obj
 0001:000348d6       ?validate_state_for_type_case_a@?$standard_base@DV?$stream_output_adapter@D@__crt_stdio_output@@@__crt_stdio_output@@IBE_NXZ 100358d6 f i libucrt:output.obj
 0001:000348d9       ?validate_state_for_type_case_a@?$standard_base@DV?$string_output_adapter@D@__crt_stdio_output@@@__crt_stdio_output@@IBE_NXZ 100358d9 f i libucrt:output.obj
 0001:000348dc       ?validate_state_for_type_case_a@?$standard_base@_WV?$stream_output_adapter@_W@__crt_stdio_output@@@__crt_stdio_output@@IBE_NXZ 100358dc f i libucrt:output.obj
 0001:000348df       ?validate_state_for_type_case_a@?$standard_base@_WV?$string_output_adapter@_W@__crt_stdio_output@@@__crt_stdio_output@@IBE_NXZ 100358df f i libucrt:output.obj
 0001:000348e2       ?validate_stream_is_ansi_if_required@?$__acrt_stdio_char_traits@D@@SA_NQAU_iobuf@@@Z 100358e2 f i libucrt:output.obj
 0001:00034984       ?validate_stream_is_ansi_if_required@?$__acrt_stdio_char_traits@_W@@SA_NQAU_iobuf@@@Z 10035984 f i libucrt:output.obj
 0001:00034987       ?wide_null_string@?$output_processor@DV?$stream_output_adapter@D@__crt_stdio_output@@V?$format_validation_base@DV?$stream_output_adapter@D@__crt_stdio_output@@@2@@__crt_stdio_output@@CAPA_WXZ 10035987 f i libucrt:output.obj
 0001:0003498d       ?wide_null_string@?$output_processor@DV?$stream_output_adapter@D@__crt_stdio_output@@V?$positional_parameter_base@DV?$stream_output_adapter@D@__crt_stdio_output@@@2@@__crt_stdio_output@@CAPA_WXZ 1003598d f i libucrt:output.obj
 0001:00034993       ?wide_null_string@?$output_processor@DV?$stream_output_adapter@D@__crt_stdio_output@@V?$standard_base@DV?$stream_output_adapter@D@__crt_stdio_output@@@2@@__crt_stdio_output@@CAPA_WXZ 10035993 f i libucrt:output.obj
 0001:00034999       ?wide_null_string@?$output_processor@DV?$string_output_adapter@D@__crt_stdio_output@@V?$format_validation_base@DV?$string_output_adapter@D@__crt_stdio_output@@@2@@__crt_stdio_output@@CAPA_WXZ 10035999 f i libucrt:output.obj
 0001:0003499f       ?wide_null_string@?$output_processor@DV?$string_output_adapter@D@__crt_stdio_output@@V?$positional_parameter_base@DV?$string_output_adapter@D@__crt_stdio_output@@@2@@__crt_stdio_output@@CAPA_WXZ 1003599f f i libucrt:output.obj
 0001:000349a5       ?wide_null_string@?$output_processor@DV?$string_output_adapter@D@__crt_stdio_output@@V?$standard_base@DV?$string_output_adapter@D@__crt_stdio_output@@@2@@__crt_stdio_output@@CAPA_WXZ 100359a5 f i libucrt:output.obj
 0001:000349ab       ?wide_null_string@?$output_processor@_WV?$stream_output_adapter@_W@__crt_stdio_output@@V?$format_validation_base@_WV?$stream_output_adapter@_W@__crt_stdio_output@@@2@@__crt_stdio_output@@CAPA_WXZ 100359ab f i libucrt:output.obj
 0001:000349b1       ?wide_null_string@?$output_processor@_WV?$stream_output_adapter@_W@__crt_stdio_output@@V?$positional_parameter_base@_WV?$stream_output_adapter@_W@__crt_stdio_output@@@2@@__crt_stdio_output@@CAPA_WXZ 100359b1 f i libucrt:output.obj
 0001:000349b7       ?wide_null_string@?$output_processor@_WV?$stream_output_adapter@_W@__crt_stdio_output@@V?$standard_base@_WV?$stream_output_adapter@_W@__crt_stdio_output@@@2@@__crt_stdio_output@@CAPA_WXZ 100359b7 f i libucrt:output.obj
 0001:000349bd       ?wide_null_string@?$output_processor@_WV?$string_output_adapter@_W@__crt_stdio_output@@V?$format_validation_base@_WV?$string_output_adapter@_W@__crt_stdio_output@@@2@@__crt_stdio_output@@CAPA_WXZ 100359bd f i libucrt:output.obj
 0001:000349c3       ?wide_null_string@?$output_processor@_WV?$string_output_adapter@_W@__crt_stdio_output@@V?$positional_parameter_base@_WV?$string_output_adapter@_W@__crt_stdio_output@@@2@@__crt_stdio_output@@CAPA_WXZ 100359c3 f i libucrt:output.obj
 0001:000349c9       ?wide_null_string@?$output_processor@_WV?$string_output_adapter@_W@__crt_stdio_output@@V?$standard_base@_WV?$string_output_adapter@_W@__crt_stdio_output@@@2@@__crt_stdio_output@@CAPA_WXZ 100359c9 f i libucrt:output.obj
 0001:000349cf       ?write_character@?$stream_output_adapter@D@__crt_stdio_output@@QBEXDQAH@Z 100359cf f i libucrt:output.obj
 0001:00034a1b       ?write_character@?$stream_output_adapter@_W@__crt_stdio_output@@QBEX_WQAH@Z 10035a1b f i libucrt:output.obj
 0001:00034a6b       ?write_character@?$string_output_adapter@D@__crt_stdio_output@@QBE_NDQAH@Z 10035a6b f i libucrt:output.obj
 0001:00034abd       ?write_character@?$string_output_adapter@_W@__crt_stdio_output@@QBE_N_WQAH@Z 10035abd f i libucrt:output.obj
 0001:00034b13       ?write_stored_string_tchar@?$output_processor@DV?$stream_output_adapter@D@__crt_stdio_output@@V?$format_validation_base@DV?$stream_output_adapter@D@__crt_stdio_output@@@2@@__crt_stdio_output@@AAE_ND@Z 10035b13 f i libucrt:output.obj
 0001:00034be3       ?write_stored_string_tchar@?$output_processor@DV?$stream_output_adapter@D@__crt_stdio_output@@V?$positional_parameter_base@DV?$stream_output_adapter@D@__crt_stdio_output@@@2@@__crt_stdio_output@@AAE_ND@Z 10035be3 f i libucrt:output.obj
 0001:00034cb3       ?write_stored_string_tchar@?$output_processor@DV?$stream_output_adapter@D@__crt_stdio_output@@V?$standard_base@DV?$stream_output_adapter@D@__crt_stdio_output@@@2@@__crt_stdio_output@@AAE_ND@Z 10035cb3 f i libucrt:output.obj
 0001:00034d83       ?write_stored_string_tchar@?$output_processor@DV?$string_output_adapter@D@__crt_stdio_output@@V?$format_validation_base@DV?$string_output_adapter@D@__crt_stdio_output@@@2@@__crt_stdio_output@@AAE_ND@Z 10035d83 f i libucrt:output.obj
 0001:00034e53       ?write_stored_string_tchar@?$output_processor@DV?$string_output_adapter@D@__crt_stdio_output@@V?$positional_parameter_base@DV?$string_output_adapter@D@__crt_stdio_output@@@2@@__crt_stdio_output@@AAE_ND@Z 10035e53 f i libucrt:output.obj
 0001:00034f23       ?write_stored_string_tchar@?$output_processor@DV?$string_output_adapter@D@__crt_stdio_output@@V?$standard_base@DV?$string_output_adapter@D@__crt_stdio_output@@@2@@__crt_stdio_output@@AAE_ND@Z 10035f23 f i libucrt:output.obj
 0001:00034ff3       ?write_stored_string_tchar@?$output_processor@_WV?$stream_output_adapter@_W@__crt_stdio_output@@V?$format_validation_base@_WV?$stream_output_adapter@_W@__crt_stdio_output@@@2@@__crt_stdio_output@@AAE_N_W@Z 10035ff3 f i libucrt:output.obj
 0001:000350a0       ?write_stored_string_tchar@?$output_processor@_WV?$stream_output_adapter@_W@__crt_stdio_output@@V?$positional_parameter_base@_WV?$stream_output_adapter@_W@__crt_stdio_output@@@2@@__crt_stdio_output@@AAE_N_W@Z 100360a0 f i libucrt:output.obj
 0001:0003514d       ?write_stored_string_tchar@?$output_processor@_WV?$stream_output_adapter@_W@__crt_stdio_output@@V?$standard_base@_WV?$stream_output_adapter@_W@__crt_stdio_output@@@2@@__crt_stdio_output@@AAE_N_W@Z 1003614d f i libucrt:output.obj
 0001:000351fa       ?write_stored_string_tchar@?$output_processor@_WV?$string_output_adapter@_W@__crt_stdio_output@@V?$format_validation_base@_WV?$string_output_adapter@_W@__crt_stdio_output@@@2@@__crt_stdio_output@@AAE_N_W@Z 100361fa f i libucrt:output.obj
 0001:000352a7       ?write_stored_string_tchar@?$output_processor@_WV?$string_output_adapter@_W@__crt_stdio_output@@V?$positional_parameter_base@_WV?$string_output_adapter@_W@__crt_stdio_output@@@2@@__crt_stdio_output@@AAE_N_W@Z 100362a7 f i libucrt:output.obj
 0001:00035354       ?write_stored_string_tchar@?$output_processor@_WV?$string_output_adapter@_W@__crt_stdio_output@@V?$standard_base@_WV?$string_output_adapter@_W@__crt_stdio_output@@@2@@__crt_stdio_output@@AAE_N_W@Z 10036354 f i libucrt:output.obj
 0001:00035401       ?write_string@?$stream_output_adapter@D@__crt_stdio_output@@QBEXQBDHQAH1@Z 10036401 f i libucrt:output.obj
 0001:000354ad       ?write_string@?$stream_output_adapter@_W@__crt_stdio_output@@QBEXQB_WHQAH1@Z 100364ad f i libucrt:output.obj
 0001:0003555d       ?write_string@?$string_output_adapter@D@__crt_stdio_output@@QBEXQBDHQAH1@Z 1003655d f i libucrt:output.obj
 0001:00035614       ?write_string@?$string_output_adapter@_W@__crt_stdio_output@@QBEXQB_WHQAH1@Z 10036614 f i libucrt:output.obj
 0001:000356d4       ___acrt_isleadbyte_l_noupdate 100366d4 f i libucrt:output.obj
 0001:000356f5       ___acrt_locale_changed     100366f5 f i libucrt:output.obj
 0001:00035706       ___stdio_common_vfprintf   10036706 f   libucrt:output.obj
 0001:0003579a       ___stdio_common_vfprintf_p 1003679a f   libucrt:output.obj
 0001:0003582e       ___stdio_common_vfprintf_s 1003682e f   libucrt:output.obj
 0001:000358c2       ___stdio_common_vfwprintf  100368c2 f   libucrt:output.obj
 0001:00035956       ___stdio_common_vfwprintf_p 10036956 f   libucrt:output.obj
 0001:000359ea       ___stdio_common_vfwprintf_s 100369ea f   libucrt:output.obj
 0001:00035a7e       ___stdio_common_vsnprintf_s 10036a7e f   libucrt:output.obj
 0001:00035aae       ___stdio_common_vsnwprintf_s 10036aae f   libucrt:output.obj
 0001:00035ade       ___stdio_common_vsprintf   10036ade f   libucrt:output.obj
 0001:00035b0b       ___stdio_common_vsprintf_p 10036b0b f   libucrt:output.obj
 0001:00035b38       ___stdio_common_vsprintf_s 10036b38 f   libucrt:output.obj
 0001:00035b65       ___stdio_common_vswprintf  10036b65 f   libucrt:output.obj
 0001:00035b92       ___stdio_common_vswprintf_p 10036b92 f   libucrt:output.obj
 0001:00035bbf       ___stdio_common_vswprintf_s 10036bbf f   libucrt:output.obj
 0001:00035bec       _calloc                    10036bec f   libucrt:calloc.obj
 0001:00035bf9       _free                      10036bf9 f   libucrt:free.obj
 0001:00035bfe       _realloc                   10036bfe f   libucrt:realloc.obj
 0001:00035c0b       ??$?B$$A6GXPAXK0@Z@__crt_fast_encoded_nullptr_t@@QBEP6GXPAXK0@ZXZ 10036c0b f i libucrt:exit.obj
 0001:00035c29       ??$__crt_fast_decode_pointer@P6GXPAXK0@Z@@YAP6GXPAXK0@ZQ6GX0K0@Z@Z 10036c29 f i libucrt:exit.obj
 0001:00035c44       ??$__crt_fast_encode_pointer@P6GXPAXK0@Z@@YAP6GXPAXK0@ZQ6GX0K0@Z@Z 10036c44 f i libucrt:exit.obj
 0001:00035c6a       ??$__crt_get_proc_address@P6GXI@Z@@YAP6GXI@ZQAUHINSTANCE__@@QBD@Z 10036c6a f i libucrt:exit.obj
 0001:00035c81       ??0?$__crt_unique_handle_t@U__crt_hmodule_traits@@@@QAE@QAUHINSTANCE__@@@Z 10036c81 f i libucrt:exit.obj
 0001:00035c95       ??1?$__crt_unique_handle_t@U__crt_hmodule_traits@@@@QAE@XZ 10036c95 f i libucrt:exit.obj
 0001:00035cc8       ?close@?$__crt_unique_handle_t@U__crt_hmodule_traits@@@@QAEXXZ 10036cc8 f i libucrt:exit.obj
 0001:00035ce4       ?close@__crt_hmodule_traits@@SA_NPAUHINSTANCE__@@@Z 10036ce4 f i libucrt:exit.obj
 0001:00035eaf       ?get@?$__crt_unique_handle_t@U__crt_hmodule_traits@@@@QBEPAUHINSTANCE__@@XZ 10036eaf f i libucrt:exit.obj
 0001:00035eb2       ?get_address_of@?$__crt_unique_handle_t@U__crt_hmodule_traits@@@@QAEPAPAUHINSTANCE__@@XZ 10036eb2 f i libucrt:exit.obj
 0001:00035eb5       ?get_invalid_value@__crt_hmodule_traits@@SAPAUHINSTANCE__@@XZ 10036eb5 f i libucrt:exit.obj
 0001:00035fb2       __Exit                     10036fb2 f   libucrt:exit.obj
 0001:00035fcd       ___acrt_initialize_thread_local_exit_callback 10036fcd f   libucrt:exit.obj
 0001:00035fdf       __c_exit                   10036fdf f   libucrt:exit.obj
 0001:00035ff1       __cexit                    10036ff1 f   libucrt:exit.obj
 0001:00036003       __exit                     10037003 f   libucrt:exit.obj
 0001:0003601e       __is_c_termination_complete 1003701e f   libucrt:exit.obj
 0001:00036024       __register_thread_local_exe_atexit_callback 10037024 f   libucrt:exit.obj
 0001:0003606a       _exit                      1003706a f   libucrt:exit.obj
 0001:00036085       _quick_exit                10037085 f   libucrt:exit.obj
 0001:000360a0       _strncat                   100370a0 f   libucrt:strncat.obj
 0001:00036230       _strncpy                   10037230 f   libucrt:strncpy.obj
 0001:0003639d       ?is_in_use@__crt_stdio_stream@@QBE_NXZ 1003739d f i libucrt:fclose.obj
 0001:000363ac       __fclose_nolock            100373ac f   libucrt:fclose.obj
 0001:0003643f       _fclose                    1003743f f   libucrt:fclose.obj
 0001:00036771       ??$open_file@ABQBDABQBDABHPAU_iobuf@@@?$__crt_char_traits@D@@SAPAU_iobuf@@ABQBD0ABH$$QAPAU1@@Z 10037771 f i libucrt:fopen.obj
 0001:0003679c       ??$open_file@ABQB_WABQB_WABHPAU_iobuf@@@?$__crt_char_traits@_W@@SAPAU_iobuf@@ABQB_W0ABH$$QAPAU1@@Z 1003779c f i libucrt:fopen.obj
 0001:000367c7       ?unlock@__crt_stdio_stream@@QBEXXZ 100377c7 f i libucrt:fopen.obj
 0001:000367d2       __fsopen                   100377d2 f   libucrt:fopen.obj
 0001:000367df       __wfopen                   100377df f   libucrt:fopen.obj
 0001:000367fb       __wfopen_s                 100377fb f   libucrt:fopen.obj
 0001:00036853       __wfsopen                  10037853 f   libucrt:fopen.obj
 0001:00036860       _fopen                     10037860 f   libucrt:fopen.obj
 0001:0003687c       _fopen_s                   1003787c f   libucrt:fopen.obj
 0001:000368d4       ?has_any_buffer@__crt_stdio_stream@@QBE_NXZ 100378d4 f i libucrt:fread.obj
 0001:000368e9       ?has_any_of@__crt_stdio_stream@@QBE_NJ@Z 100378e9 f i libucrt:fread.obj
 0001:00036905       ?set_flags@__crt_stdio_stream@@QBE_NJ@Z 10037905 f i libucrt:fread.obj
 0001:00036935       __fread_nolock             10037935 f   libucrt:fread.obj
 0001:00036959       __fread_nolock_s           10037959 f   libucrt:fread.obj
 0001:00036b98       _fread                     10037b98 f   libucrt:fread.obj
 0001:00036bbc       _fread_s                   10037bbc f   libucrt:fread.obj
 0001:00036d14       ??$?RV<lambda_11b4f7b0d3157825a5656a18eba1ae27>@@AAV<lambda_b51c0495177f500e782686251704ae76>@@V<lambda_cf89b47920b5017557bfe891e78aca36>@@@?$__crt_seh_guarded_call@I@@QAEI$$QAV<lambda_11b4f7b0d3157825a5656a18eba1ae27>@@AAV<lambda_b51c0495177f500e782686251704ae76>@@$$QAV<lambda_cf89b47920b5017557bfe891e78aca36>@@@Z 10037d14 f i libucrt:fwrite.obj
 0001:00036d79       ??$__acrt_lock_stream_and_call@V<lambda_b51c0495177f500e782686251704ae76>@@@@YAIQAU_iobuf@@$$QAV<lambda_b51c0495177f500e782686251704ae76>@@@Z 10037d79 f i libucrt:fwrite.obj
 0001:00036e6e       ?has_big_buffer@__crt_stdio_stream@@QBE_NXZ 10037e6e f i libucrt:fwrite.obj
 0001:00036e7f       __fwrite_nolock            10037e7f f   libucrt:fwrite.obj
 0001:00037056       _fwrite                    10038056 f   libucrt:fwrite.obj
 0001:000370c4       ??$?R_W@__crt_internal_free_policy@@QBEXQB_W@Z 100380c4 f i libucrt:unlink.obj
 0001:000370da       ??0?$__crt_unique_heap_ptr@_WU__crt_internal_free_policy@@@@QAE@QA_W@Z 100380da f i libucrt:unlink.obj
 0001:000370ee       ??1?$__crt_unique_heap_ptr@_WU__crt_internal_free_policy@@@@QAE@XZ 100380ee f i libucrt:unlink.obj
 0001:00037104       ?get@?$__crt_unique_heap_ptr@_WU__crt_internal_free_policy@@@@QBEPA_WXZ 10038104 f i libucrt:unlink.obj
 0001:00037107       ?get_address_of@?$__crt_unique_heap_ptr@_WU__crt_internal_free_policy@@@@QAEPAPA_WXZ 10038107 f i libucrt:unlink.obj
 0001:0003710a       ?release@?$__crt_unique_heap_ptr@_WU__crt_internal_free_policy@@@@QAEXXZ 1003810a f i libucrt:unlink.obj
 0001:00037120       __unlink                   10038120 f   libucrt:unlink.obj
 0001:0003712d       _remove                    1003812d f   libucrt:unlink.obj
 0001:0003718d       ?__acrt_stdio_reset_buffer@@YAXV__crt_stdio_stream@@@Z 1003818d f i libucrt:rewind.obj
 0001:000371a8       ?has_all_of@__crt_stdio_stream@@QBE_NJ@Z 100381a8 f i libucrt:rewind.obj
 0001:000371c7       ?unset_flags@__crt_stdio_stream@@QBE_NJ@Z 100381c7 f i libucrt:rewind.obj
 0001:000371fb       _rewind                    100381fb f   libucrt:rewind.obj
 0001:000372fc       _ldexp                     100382fc f   libucrt:ldexp.obj
 0001:0003755c       ??$__vcrt_va_start_verify_argument_type@QB_W@@YAXXZ 1003855c f i libucrt:assert.obj
 0001:000384f9       ??$ftprintf@PAU_iobuf@@PBDABQBDABQBDABI@?$__crt_char_traits@D@@SAH$$QAPAU_iobuf@@$$QAPBDABQBD2ABI@Z 100394f9 f i libucrt:assert.obj
 0001:0003852b       ??$ftprintf@PAU_iobuf@@PB_WABQB_WABQB_WABI@?$__crt_char_traits@_W@@SAH$$QAPAU_iobuf@@$$QAPB_WABQB_W2ABI@Z 1003952b f i libucrt:assert.obj
 0001:0003855d       ??$get_module_file_name@AAPAUHINSTANCE__@@AAY0BAF@DK@?$__crt_char_traits@D@@SAKAAPAUHINSTANCE__@@AAY0BAF@D$$QAK@Z 1003955d f i libucrt:assert.obj
 0001:0003857d       ??$get_module_file_name@AAPAUHINSTANCE__@@AAY0BAF@_WK@?$__crt_char_traits@_W@@SAKAAPAUHINSTANCE__@@AAY0BAF@_W$$QAK@Z 1003957d f i libucrt:assert.obj
 0001:0003859d       ??$itot_s@ABIQAD$$CBIH@?$__crt_char_traits@D@@SAHABI$$QBQAD$$QBI$$QAH@Z 1003959d f i libucrt:assert.obj
 0001:000385c8       ??$itot_s@ABIQA_W$$CBIH@?$__crt_char_traits@_W@@SAHABI$$QBQA_W$$QBI$$QAH@Z 100395c8 f i libucrt:assert.obj
 0001:000385f3       ??$show_message_box@AAY0CEA@DPBDJ@?$__crt_char_traits@D@@SAHAAY0CEA@D$$QAPBD$$QAJ@Z 100395f3 f i libucrt:assert.obj
 0001:00038616       ??$show_message_box@AAY0CEA@_WPB_WJ@?$__crt_char_traits@_W@@SAHAAY0CEA@_W$$QAPB_W$$QAJ@Z 10039616 f i libucrt:assert.obj
 0001:00038639       ??$tcscat_s@ABQADABIAAPAD@?$__crt_char_traits@D@@SAHABQADABIAAPAD@Z 10039639 f i libucrt:assert.obj
 0001:0003865e       ??$tcscat_s@ABQADABIABQBD@?$__crt_char_traits@D@@SAHABQADABIABQBD@Z 1003965e f i libucrt:assert.obj
 0001:00038683       ??$tcscat_s@ABQADABIPBD@?$__crt_char_traits@D@@SAHABQADABI$$QAPBD@Z 10039683 f i libucrt:assert.obj
 0001:000386a8       ??$tcscat_s@ABQA_WABIAAPA_W@?$__crt_char_traits@_W@@SAHABQA_WABIAAPA_W@Z 100396a8 f i libucrt:assert.obj
 0001:000386cd       ??$tcscat_s@ABQA_WABIABQB_W@?$__crt_char_traits@_W@@SAHABQA_WABIABQB_W@Z 100396cd f i libucrt:assert.obj
 0001:000386f2       ??$tcscat_s@ABQA_WABIPB_W@?$__crt_char_traits@_W@@SAHABQA_WABI$$QAPB_W@Z 100396f2 f i libucrt:assert.obj
 0001:00038717       ??$tcscpy_s@AAY0BAF@DIPBD@?$__crt_char_traits@D@@SAHAAY0BAF@D$$QAI$$QAPBD@Z 10039717 f i libucrt:assert.obj
 0001:0003873a       ??$tcscpy_s@AAY0BAF@_WIPB_W@?$__crt_char_traits@_W@@SAHAAY0BAF@_W$$QAI$$QAPB_W@Z 1003973a f i libucrt:assert.obj
 0001:0003875d       ??$tcscpy_s@ABQADABIPBD@?$__crt_char_traits@D@@SAHABQADABI$$QAPBD@Z 1003975d f i libucrt:assert.obj
 0001:00038782       ??$tcscpy_s@ABQA_WABIPB_W@?$__crt_char_traits@_W@@SAHABQA_WABI$$QAPB_W@Z 10039782 f i libucrt:assert.obj
 0001:000387a7       ??$tcslen@AAY0BAF@D@?$__crt_char_traits@D@@SAIAAY0BAF@D@Z 100397a7 f i libucrt:assert.obj
 0001:000387c2       ??$tcslen@AAY0BAF@_W@?$__crt_char_traits@_W@@SAIAAY0BAF@_W@Z 100397c2 f i libucrt:assert.obj
 0001:000387e5       ??$tcslen@ABQAD@?$__crt_char_traits@D@@SAIABQAD@Z 100397e5 f i libucrt:assert.obj
 0001:00038803       ??$tcslen@ABQA_W@?$__crt_char_traits@_W@@SAIABQA_W@Z 10039803 f i libucrt:assert.obj
 0001:00038828       ??$tcslen@ABQBD@?$__crt_char_traits@D@@SAIABQBD@Z 10039828 f i libucrt:assert.obj
 0001:00038846       ??$tcslen@ABQB_W@?$__crt_char_traits@_W@@SAIABQB_W@Z 10039846 f i libucrt:assert.obj
 0001:0003886b       ??$tcsncat_s@ABQADABIAAPBD$$CBI@?$__crt_char_traits@D@@SAHABQADABIAAPBD$$QBI@Z 1003986b f i libucrt:assert.obj
 0001:00038896       ??$tcsncat_s@ABQADABIABQBDABI@?$__crt_char_traits@D@@SAHABQADABIABQBD1@Z 10039896 f i libucrt:assert.obj
 0001:000388c1       ??$tcsncat_s@ABQADABIPBD$$CBI@?$__crt_char_traits@D@@SAHABQADABI$$QAPBD$$QBI@Z 100398c1 f i libucrt:assert.obj
 0001:000388ec       ??$tcsncat_s@ABQA_WABIAAPB_W$$CBI@?$__crt_char_traits@_W@@SAHABQA_WABIAAPB_W$$QBI@Z 100398ec f i libucrt:assert.obj
 0001:00038917       ??$tcsncat_s@ABQA_WABIABQB_WABI@?$__crt_char_traits@_W@@SAHABQA_WABIABQB_W1@Z 10039917 f i libucrt:assert.obj
 0001:00038942       ??$tcsncat_s@ABQA_WABIPB_W$$CBI@?$__crt_char_traits@_W@@SAHABQA_WABI$$QAPB_W$$QBI@Z 10039942 f i libucrt:assert.obj
 0001:00038ae7       __assert                   10039ae7 f   libucrt:assert.obj
 0001:00038b41       __invoke_watson_if_error   10039b41 f i libucrt:assert.obj
 0001:00038b6b       __vfwprintf_l              10039b6b f i libucrt:assert.obj
 0001:00038b99       __vswprintf_c_l            10039b99 f i libucrt:assert.obj
 0001:00038bd3       __wassert                  10039bd3 f   libucrt:assert.obj
 0001:00038c2d       _fwprintf                  10039c2d f i libucrt:assert.obj
 0001:00038cef       _swprintf                  10039cef f i libucrt:assert.obj
 0001:00038d14       __errcode                  10039d14 f   libucrt:fpexcept.obj
 0001:00038d55       __except1                  10039d55 f   libucrt:fpexcept.obj
 0001:00038e56       __except2                  10039e56 f   libucrt:fpexcept.obj
 0001:00038f9f       __handle_exc               10039f9f f   libucrt:fpexcept.obj
 0001:000391f7       __handle_qnan2             1003a1f7 f   libucrt:fpexcept.obj
 0001:00039207       __raise_exc                1003a207 f   libucrt:fpexcept.obj
 0001:00039232       __raise_exc_ex             1003a232 f   libucrt:fpexcept.obj
 0001:000395df       __raise_excf               1003a5df f   libucrt:fpexcept.obj
 0001:0003960a       __set_errno_from_matherr   1003a60a f   libucrt:fpexcept.obj
 0001:00039644       __umatherr                 1003a644 f   libucrt:fpexcept.obj
 0001:0003970e       __initterm                 1003a70e f   libucrt:initterm.obj
 0001:00039781       __initterm_e               1003a781 f   libucrt:initterm.obj
 0001:00039804       __seh_filter_dll           1003a804 f   libucrt:exception_filter.obj
 0001:0003982c       __seh_filter_exe           1003a82c f   libucrt:exception_filter.obj
 0001:000399fb       ??$?RE@__crt_internal_free_policy@@QBEXQBE@Z 1003a9fb f i libucrt:argv_parsing.obj
 0001:00039a11       ??$?RPAD@__crt_internal_free_policy@@QBEXQBQAD@Z 1003aa11 f i libucrt:argv_parsing.obj
 0001:00039a27       ??$?RPA_W@__crt_internal_free_policy@@QBEXQBQA_W@Z 1003aa27 f i libucrt:argv_parsing.obj
 0001:00039d10       ??$get_module_file_name@$$TAAY0BAF@DH@?$__crt_char_traits@D@@SAK$$QA$$TAAY0BAF@D$$QAH@Z 1003ad10 f i libucrt:argv_parsing.obj
 0001:00039d30       ??$get_module_file_name@$$TAAY0BAF@_WH@?$__crt_char_traits@_W@@SAK$$QA$$TAAY0BAF@_W$$QAH@Z 1003ad30 f i libucrt:argv_parsing.obj
 0001:0003a109       ??$set_program_name@PAD@?$__crt_char_traits@D@@SAX$$QAPAD@Z 1003b109 f i libucrt:argv_parsing.obj
 0001:0003a11e       ??$set_program_name@PA_W@?$__crt_char_traits@_W@@SAX$$QAPA_W@Z 1003b11e f i libucrt:argv_parsing.obj
 0001:0003a15b       ??0?$__crt_unique_heap_ptr@EU__crt_internal_free_policy@@@@QAE@QAE@Z 1003b15b f i libucrt:argv_parsing.obj
 0001:0003a16f       ??0?$__crt_unique_heap_ptr@PADU__crt_internal_free_policy@@@@QAE@QAPAD@Z 1003b16f f i libucrt:argv_parsing.obj
 0001:0003a183       ??0?$__crt_unique_heap_ptr@PA_WU__crt_internal_free_policy@@@@QAE@QAPA_W@Z 1003b183 f i libucrt:argv_parsing.obj
 0001:0003a197       ??1?$__crt_unique_heap_ptr@EU__crt_internal_free_policy@@@@QAE@XZ 1003b197 f i libucrt:argv_parsing.obj
 0001:0003a1ad       ??1?$__crt_unique_heap_ptr@PADU__crt_internal_free_policy@@@@QAE@XZ 1003b1ad f i libucrt:argv_parsing.obj
 0001:0003a1c3       ??1?$__crt_unique_heap_ptr@PA_WU__crt_internal_free_policy@@@@QAE@XZ 1003b1c3 f i libucrt:argv_parsing.obj
 0001:0003a1d9       ??B?$__crt_unique_heap_ptr@EU__crt_internal_free_policy@@@@QBE_NXZ 1003b1d9 f i libucrt:argv_parsing.obj
 0001:0003a219       ?detach@?$__crt_unique_heap_ptr@EU__crt_internal_free_policy@@@@QAEPAEXZ 1003b219 f i libucrt:argv_parsing.obj
 0001:0003a21f       ?detach@?$__crt_unique_heap_ptr@PADU__crt_internal_free_policy@@@@QAEPAPADXZ 1003b21f f i libucrt:argv_parsing.obj
 0001:0003a225       ?detach@?$__crt_unique_heap_ptr@PA_WU__crt_internal_free_policy@@@@QAEPAPA_WXZ 1003b225 f i libucrt:argv_parsing.obj
 0001:0003a24b       ?get@?$__crt_unique_heap_ptr@EU__crt_internal_free_policy@@@@QBEPAEXZ 1003b24b f i libucrt:argv_parsing.obj
 0001:0003a24e       ?get@?$__crt_unique_heap_ptr@PADU__crt_internal_free_policy@@@@QBEPAPADXZ 1003b24e f i libucrt:argv_parsing.obj
 0001:0003a251       ?get@?$__crt_unique_heap_ptr@PA_WU__crt_internal_free_policy@@@@QBEPAPA_WXZ 1003b251 f i libucrt:argv_parsing.obj
 0001:0003a254       ?get_address_of@?$__crt_unique_heap_ptr@PADU__crt_internal_free_policy@@@@QAEPAPAPADXZ 1003b254 f i libucrt:argv_parsing.obj
 0001:0003a257       ?get_address_of@?$__crt_unique_heap_ptr@PA_WU__crt_internal_free_policy@@@@QAEPAPAPA_WXZ 1003b257 f i libucrt:argv_parsing.obj
 0001:0003a272       ?is_valid@?$__crt_unique_heap_ptr@EU__crt_internal_free_policy@@@@QBE_NXZ 1003b272 f i libucrt:argv_parsing.obj
 0001:0003a27c       ?release@?$__crt_unique_heap_ptr@EU__crt_internal_free_policy@@@@QAEXXZ 1003b27c f i libucrt:argv_parsing.obj
 0001:0003a292       ?release@?$__crt_unique_heap_ptr@PADU__crt_internal_free_policy@@@@QAEXXZ 1003b292 f i libucrt:argv_parsing.obj
 0001:0003a2a8       ?release@?$__crt_unique_heap_ptr@PA_WU__crt_internal_free_policy@@@@QAEXXZ 1003b2a8 f i libucrt:argv_parsing.obj
 0001:0003a2df       ___acrt_allocate_buffer_for_argv 1003b2df f   libucrt:argv_parsing.obj
 0001:0003a349       __configure_narrow_argv    1003b349 f   libucrt:argv_parsing.obj
 0001:0003a356       __configure_wide_argv      1003b356 f   libucrt:argv_parsing.obj
 0001:0003a363       __set_pgmptr               1003b363 f i libucrt:argv_parsing.obj
 0001:0003a375       __set_wpgmptr              1003b375 f i libucrt:argv_parsing.obj
 0001:0003a84f       ??$get_environment_from_os@$$$V@?$__crt_char_traits@D@@SAPADXZ 1003b84f f i libucrt:environment_initialization.obj
 0001:0003a854       ??$get_environment_from_os@$$$V@?$__crt_char_traits@_W@@SAPA_WXZ 1003b854 f i libucrt:environment_initialization.obj
 0001:0003a98e       ??$set_variable_in_environment_nolock@PADH@?$__crt_char_traits@D@@SAH$$QAPAD$$QAH@Z 1003b98e f i libucrt:environment_initialization.obj
 0001:0003a9ac       ??$set_variable_in_environment_nolock@PA_WH@?$__crt_char_traits@_W@@SAH$$QAPA_W$$QAH@Z 1003b9ac f i libucrt:environment_initialization.obj
 0001:0003a9ca       ??$tcscpy_s@PADABIAAPAD@?$__crt_char_traits@D@@SAH$$QAPADABIAAPAD@Z 1003b9ca f i libucrt:environment_initialization.obj
 0001:0003a9ef       ??$tcscpy_s@PA_WABIAAPA_W@?$__crt_char_traits@_W@@SAH$$QAPA_WABIAAPA_W@Z 1003b9ef f i libucrt:environment_initialization.obj
 0001:0003aa14       ??$tcslen@AAPAD@?$__crt_char_traits@D@@SAIAAPAD@Z 1003ba14 f i libucrt:environment_initialization.obj
 0001:0003aa32       ??$tcslen@AAPA_W@?$__crt_char_traits@_W@@SAIAAPA_W@Z 1003ba32 f i libucrt:environment_initialization.obj
 0001:0003aa57       ??$uninitialize@A6AXAAPAPAD@Z@?$dual_state_global@PAPAD@__crt_state_management@@QAEXA6AXAAPAPAD@Z@Z 1003ba57 f i libucrt:environment_initialization.obj
 0001:0003aaa7       ??$uninitialize@A6AXAAPAPA_W@Z@?$dual_state_global@PAPA_W@__crt_state_management@@QAEXA6AXAAPAPA_W@Z@Z 1003baa7 f i libucrt:environment_initialization.obj
 0001:0003ab39       ??B?$__crt_unique_heap_ptr@PADU__crt_internal_free_policy@@@@QBE_NXZ 1003bb39 f i libucrt:environment_initialization.obj
 0001:0003ab43       ??B?$__crt_unique_heap_ptr@PA_WU__crt_internal_free_policy@@@@QBE_NXZ 1003bb43 f i libucrt:environment_initialization.obj
 0001:0003ab4d       ??B?$__crt_unique_heap_ptr@_WU__crt_internal_free_policy@@@@QBE_NXZ 1003bb4d f i libucrt:environment_initialization.obj
 0001:0003ab57       ?__crt_compute_required_transform_buffer_count@@YAIIQBD@Z 1003bb57 f i libucrt:environment_initialization.obj
 0001:0003ab77       ?__crt_compute_required_transform_buffer_count@@YAIIQB_W@Z 1003bb77 f i libucrt:environment_initialization.obj
 0001:0003ab9a       ?__crt_transform_string@@YAIIQBDQA_WI@Z 1003bb9a f i libucrt:environment_initialization.obj
 0001:0003abbe       ?__crt_transform_string@@YAIIQB_WQADI@Z 1003bbbe f i libucrt:environment_initialization.obj
 0001:0003abe6       ?detach@?$__crt_unique_heap_ptr@DU__crt_internal_free_policy@@@@QAEPADXZ 1003bbe6 f i libucrt:environment_initialization.obj
 0001:0003abec       ?detach@?$__crt_unique_heap_ptr@_WU__crt_internal_free_policy@@@@QAEPA_WXZ 1003bbec f i libucrt:environment_initialization.obj
 0001:0003abf2       ?get_current_state_index@__crt_state_management@@YAIXZ 1003bbf2 f i libucrt:environment_initialization.obj
 0001:0003ac19       ?initialize@?$dual_state_global@PAPAD@__crt_state_management@@QAEXQAPAD@Z 1003bc19 f i libucrt:environment_initialization.obj
 0001:0003ac56       ?initialize@?$dual_state_global@PAPA_W@__crt_state_management@@QAEXQAPA_W@Z 1003bc56 f i libucrt:environment_initialization.obj
 0001:0003ac93       ?is_valid@?$__crt_unique_heap_ptr@PADU__crt_internal_free_policy@@@@QBE_NXZ 1003bc93 f i libucrt:environment_initialization.obj
 0001:0003ac9d       ?is_valid@?$__crt_unique_heap_ptr@PA_WU__crt_internal_free_policy@@@@QBE_NXZ 1003bc9d f i libucrt:environment_initialization.obj
 0001:0003aca7       ?is_valid@?$__crt_unique_heap_ptr@_WU__crt_internal_free_policy@@@@QBE_NXZ 1003bca7 f i libucrt:environment_initialization.obj
 0001:0003acb7       ?value@?$dual_state_global@PAPAD@__crt_state_management@@QAEAAPAPADXZ 1003bcb7 f i libucrt:environment_initialization.obj
 0001:0003acba       ?value@?$dual_state_global@PAPA_W@__crt_state_management@@QAEAAPAPA_WXZ 1003bcba f i libucrt:environment_initialization.obj
 0001:0003acbd       ___dcrt_get_or_create_narrow_environment_nolock 1003bcbd f   libucrt:environment_initialization.obj
 0001:0003acc2       ___dcrt_get_or_create_wide_environment_nolock 1003bcc2 f   libucrt:environment_initialization.obj
 0001:0003acc7       ___dcrt_uninitialize_environments_nolock 1003bcc7 f   libucrt:environment_initialization.obj
 0001:0003ad0b       ___p__environ              1003bd0b f   libucrt:environment_initialization.obj
 0001:0003ad11       ___p__wenviron             1003bd11 f   libucrt:environment_initialization.obj
 0001:0003ad17       __get_initial_narrow_environment 1003bd17 f   libucrt:environment_initialization.obj
 0001:0003ad30       __get_initial_wide_environment 1003bd30 f   libucrt:environment_initialization.obj
 0001:0003ad49       __initialize_narrow_environment 1003bd49 f   libucrt:environment_initialization.obj
 0001:0003ad4e       __initialize_wide_environment 1003bd4e f   libucrt:environment_initialization.obj
 0001:0003ad53       ??$?BP6AXXZ@__crt_fast_encoded_nullptr_t@@QBEPAP6AXXZXZ 1003bd53 f i libucrt:onexit.obj
 0001:0003ad71       ??$?RP6AXXZ@__crt_internal_free_policy@@QBEXQBQ6AXXZ@Z 1003bd71 f i libucrt:onexit.obj
 0001:0003ad87       ??$?RV<lambda_800076c951b434888f4765a74a194fcc>@@AAV<lambda_4e60a939b0d047cfe11ddc22648dfba9>@@V<lambda_6dbb1268764f43b569ce7b67e331d33a>@@@?$__crt_seh_guarded_call@H@@QAEH$$QAV<lambda_800076c951b434888f4765a74a194fcc>@@AAV<lambda_4e60a939b0d047cfe11ddc22648dfba9>@@$$QAV<lambda_6dbb1268764f43b569ce7b67e331d33a>@@@Z 1003bd87 f i libucrt:onexit.obj
 0001:0003adec       ??$?RV<lambda_995298e7d72eb4c2aab26c0585b3abe5>@@AAV<lambda_275893d493268fdec8709772e3fcec0e>@@V<lambda_293819299cbf9a7022e18b56a874bb5c>@@@?$__crt_seh_guarded_call@H@@QAEH$$QAV<lambda_995298e7d72eb4c2aab26c0585b3abe5>@@AAV<lambda_275893d493268fdec8709772e3fcec0e>@@$$QAV<lambda_293819299cbf9a7022e18b56a874bb5c>@@@Z 1003bdec f i libucrt:onexit.obj
 0001:0003ae51       ??$__acrt_lock_and_call@V<lambda_275893d493268fdec8709772e3fcec0e>@@@@YAHW4__acrt_lock_id@@$$QAV<lambda_275893d493268fdec8709772e3fcec0e>@@@Z 1003be51 f i libucrt:onexit.obj
 0001:0003ae83       ??$__acrt_lock_and_call@V<lambda_4e60a939b0d047cfe11ddc22648dfba9>@@@@YAHW4__acrt_lock_id@@$$QAV<lambda_4e60a939b0d047cfe11ddc22648dfba9>@@@Z 1003be83 f i libucrt:onexit.obj
 0001:0003aeb5       ??$__crt_fast_encode_pointer@P6AHXZ@@YAP6AHXZQ6AHXZ@Z 1003beb5 f i libucrt:onexit.obj
 0001:0003af62       ??0?$__crt_unique_heap_ptr@P6AXXZU__crt_internal_free_policy@@@@QAE@QAP6AXXZ@Z 1003bf62 f i libucrt:onexit.obj
 0001:0003af76       ??1?$__crt_unique_heap_ptr@P6AXXZU__crt_internal_free_policy@@@@QAE@XZ 1003bf76 f i libucrt:onexit.obj
 0001:0003b2b1       ?detach@?$__crt_unique_heap_ptr@P6AXXZU__crt_internal_free_policy@@@@QAEPAP6AXXZXZ 1003c2b1 f i libucrt:onexit.obj
 0001:0003b2b7       ?release@?$__crt_unique_heap_ptr@P6AXXZU__crt_internal_free_policy@@@@QAEXXZ 1003c2b7 f i libucrt:onexit.obj
 0001:0003b2cd       __crt_at_quick_exit        1003c2cd f   libucrt:onexit.obj
 0001:0003b2e8       __crt_atexit               1003c2e8 f   libucrt:onexit.obj
 0001:0003b303       __execute_onexit_table     1003c303 f   libucrt:onexit.obj
 0001:0003b327       __initialize_onexit_table  1003c327 f   libucrt:onexit.obj
 0001:0003b373       __register_onexit_function 1003c373 f   libucrt:onexit.obj
 0001:0003b4da       ?initialize@?$dual_state_global@PAU__crt_locale_data@@@__crt_state_management@@QAEXQAU__crt_locale_data@@@Z 1003c4da f i libucrt:initialization.obj
 0001:0003b517       ___acrt_initialize         1003c517 f   libucrt:initialization.obj
 0001:0003b52d       ___acrt_thread_attach      1003c52d f   libucrt:initialization.obj
 0001:0003b53a       ___acrt_thread_detach      1003c53a f   libucrt:initialization.obj
 0001:0003b544       ___acrt_uninitialize       1003c544 f   libucrt:initialization.obj
 0001:0003b55a       ___acrt_uninitialize_critical 1003c55a f   libucrt:initialization.obj
 0001:0003b58b       __get_terminate            1003c58b f   libucrt:terminate.obj
 0001:0003b5a1       _set_terminate             1003c5a1 f   libucrt:terminate.obj
 0001:0003b5c9       _terminate                 1003c5c9 f   libucrt:terminate.obj
 0001:0003b614       ??$__crt_interlocked_exchange_pointer@X$$T@@YAPAXPDSAX$$T@Z 1003c614 f i libucrt:free_base.obj
 0001:0003b62c       ___acrt_get_msvcrt_heap_handle 1003c62c f   libucrt:free_base.obj
 0001:0003b6bd       __free_base                1003c6bd f   libucrt:free_base.obj
 0001:0003b705       __malloc_base              1003c705 f   libucrt:malloc_base.obj
 0001:0003b7d6       _strcpy_s                  1003c7d6 f   libucrt:strcpy_s.obj
 0001:0003b846       __set_abort_behavior       1003c846 f   libucrt:abort.obj
 0001:0003b86f       _abort                     1003c86f f   libucrt:abort.obj
 0001:0003b8c2       __calloc_base              1003c8c2 f   libucrt:calloc_base.obj
 0001:0003b936       ??$is_overflow_condition@K@__crt_strtox@@YA_NIK@Z 1003c936 f i libucrt:atox.obj
 0001:0003b975       ??$is_overflow_condition@_K@__crt_strtox@@YA_NI_K@Z 1003c975 f i libucrt:atox.obj
 0001:0003b9c8       ??$make_c_string_character_source@D$$T@__crt_strtox@@YA?AV?$c_string_character_source@D@0@QBD$$T@Z 1003c9c8 f i libucrt:atox.obj
 0001:0003b9e9       ??$make_c_string_character_source@_W$$T@__crt_strtox@@YA?AV?$c_string_character_source@_W@0@QB_W$$T@Z 1003c9e9 f i libucrt:atox.obj
 0001:0003ba0a       ??$parse_integer@KV?$c_string_character_source@D@__crt_strtox@@@__crt_strtox@@YAKQAU__crt_locale_pointers@@V?$c_string_character_source@D@0@H_N@Z 1003ca0a f i libucrt:atox.obj
 0001:0003bcbc       ??$parse_integer@KV?$c_string_character_source@_W@__crt_strtox@@@__crt_strtox@@YAKQAU__crt_locale_pointers@@V?$c_string_character_source@_W@0@H_N@Z 1003ccbc f i libucrt:atox.obj
 0001:0003c55a       ??$parse_integer@_KV?$c_string_character_source@D@__crt_strtox@@@__crt_strtox@@YA_KQAU__crt_locale_pointers@@V?$c_string_character_source@D@0@H_N@Z 1003d55a f i libucrt:atox.obj
 0001:0003c8a9       ??$parse_integer@_KV?$c_string_character_source@_W@__crt_strtox@@@__crt_strtox@@YA_KQAU__crt_locale_pointers@@V?$c_string_character_source@_W@0@H_N@Z 1003d8a9 f i libucrt:atox.obj
 0001:0003d01b       ??$parse_integer_from_string@JD$$T@__crt_strtox@@YAJQBD$$THQAU__crt_locale_pointers@@@Z 1003e01b f i libucrt:atox.obj
 0001:0003d053       ??$parse_integer_from_string@J_W$$T@__crt_strtox@@YAJQB_W$$THQAU__crt_locale_pointers@@@Z 1003e053 f i libucrt:atox.obj
 0001:0003d08b       ??$parse_integer_from_string@_JD$$T@__crt_strtox@@YA_JQBD$$THQAU__crt_locale_pointers@@@Z 1003e08b f i libucrt:atox.obj
 0001:0003d0c3       ??$parse_integer_from_string@_J_W$$T@__crt_strtox@@YA_JQB_W$$THQAU__crt_locale_pointers@@@Z 1003e0c3 f i libucrt:atox.obj
 0001:0003d0fb       ??0?$c_string_character_source@D@__crt_strtox@@QAE@QBDQAPBD@Z 1003e0fb f i libucrt:atox.obj
 0001:0003d11e       ??0?$c_string_character_source@_W@__crt_strtox@@QAE@QB_WQAPB_W@Z 1003e11e f i libucrt:atox.obj
 0001:0003d141       ??1?$c_string_character_source@D@__crt_strtox@@QAE@XZ 1003e141 f i libucrt:atox.obj
 0001:0003d150       ??1?$c_string_character_source@_W@__crt_strtox@@QAE@XZ 1003e150 f i libucrt:atox.obj
 0001:0003d15f       ?get@?$c_string_character_source@D@__crt_strtox@@QAEDXZ 1003e15f f i libucrt:atox.obj
 0001:0003d169       ?get@?$c_string_character_source@_W@__crt_strtox@@QAE_WXZ 1003e169 f i libucrt:atox.obj
 0001:0003d176       ?is_space@__crt_strtox@@YA_NDQAU__crt_locale_pointers@@@Z 1003e176 f i libucrt:atox.obj
 0001:0003d19c       ?is_space@__crt_strtox@@YA_N_WPAU__crt_locale_pointers@@@Z 1003e19c f i libucrt:atox.obj
 0001:0003d1bb       ?maximum_signed_value@__crt_strtox@@YAJK@Z 1003e1bb f i libucrt:atox.obj
 0001:0003d1c1       ?maximum_signed_value@__crt_strtox@@YA_J_K@Z 1003e1c1 f i libucrt:atox.obj
 0001:0003d1cc       ?minimum_signed_value@__crt_strtox@@YAJK@Z 1003e1cc f i libucrt:atox.obj
 0001:0003d1d2       ?minimum_signed_value@__crt_strtox@@YA_J_K@Z 1003e1d2 f i libucrt:atox.obj
 0001:0003d1dc       ?parse_digit@__crt_strtox@@YAID@Z 1003e1dc f i libucrt:atox.obj
 0001:0003d224       ?parse_digit@__crt_strtox@@YAI_W@Z 1003e224 f i libucrt:atox.obj
 0001:0003d481       ?restore_state@?$c_string_character_source@D@__crt_strtox@@QAE_NQBD@Z 1003e481 f i libucrt:atox.obj
 0001:0003d495       ?restore_state@?$c_string_character_source@_W@__crt_strtox@@QAE_NQB_W@Z 1003e495 f i libucrt:atox.obj
 0001:0003d4a9       ?save_state@?$c_string_character_source@D@__crt_strtox@@QBEPBDXZ 1003e4a9 f i libucrt:atox.obj
 0001:0003d4ac       ?save_state@?$c_string_character_source@_W@__crt_strtox@@QBEPB_WXZ 1003e4ac f i libucrt:atox.obj
 0001:0003d4af       ?unget@?$c_string_character_source@D@__crt_strtox@@QAEXD@Z 1003e4af f i libucrt:atox.obj
 0001:0003d4e1       ?unget@?$c_string_character_source@_W@__crt_strtox@@QAEX_W@Z 1003e4e1 f i libucrt:atox.obj
 0001:0003d518       ?validate@?$c_string_character_source@D@__crt_strtox@@QBE_NXZ 1003e518 f i libucrt:atox.obj
 0001:0003d539       ?validate@?$c_string_character_source@_W@__crt_strtox@@QBE_NXZ 1003e539 f i libucrt:atox.obj
 0001:0003d55a       ?wide_character_to_digit@__crt_strtox@@YAH_W@Z 1003e55a f i libucrt:atox.obj
 0001:0003d763       ___acrt_get_locale_data_prefix 1003e763 f i libucrt:atox.obj
 0001:0003d772       __atoi64                   1003e772 f   libucrt:atox.obj
 0001:0003d7a6       __atoi64_l                 1003e7a6 f   libucrt:atox.obj
 0001:0003d7db       __atoi_l                   1003e7db f   libucrt:atox.obj
 0001:0003d810       __atol_l                   1003e810 f   libucrt:atox.obj
 0001:0003d845       __atoll_l                  1003e845 f   libucrt:atox.obj
 0001:0003d87a       __chvalidchk_l             1003e87a f i libucrt:atox.obj
 0001:0003d8ae       __ischartype_l             1003e8ae f i libucrt:atox.obj
 0001:0003d8ed       __wtoi                     1003e8ed f   libucrt:atox.obj
 0001:0003d921       __wtoi64                   1003e921 f   libucrt:atox.obj
 0001:0003d955       __wtoi64_l                 1003e955 f   libucrt:atox.obj
 0001:0003d98a       __wtoi_l                   1003e98a f   libucrt:atox.obj
 0001:0003d9bf       __wtol                     1003e9bf f   libucrt:atox.obj
 0001:0003d9f3       __wtol_l                   1003e9f3 f   libucrt:atox.obj
 0001:0003da28       __wtoll                    1003ea28 f   libucrt:atox.obj
 0001:0003da5c       __wtoll_l                  1003ea5c f   libucrt:atox.obj
 0001:0003da91       _atoi                      1003ea91 f   libucrt:atox.obj
 0001:0003dac5       _atol                      1003eac5 f   libucrt:atox.obj
 0001:0003daf9       _atoll                     1003eaf9 f   libucrt:atox.obj
 0001:0003db2d       ??$__crt_fast_decode_pointer@P6AXPB_W00II@Z@@YAP6AXPB_W00II@ZQ6AX000II@Z@Z 1003eb2d f i libucrt:invalid_parameter.obj
 0001:0003db48       ??$__crt_fast_encode_pointer@P6AXPB_W00II@Z@@YAP6AXPB_W00II@ZQ6AX000II@Z@Z 1003eb48 f i libucrt:invalid_parameter.obj
 0001:0003db6e       ?initialize@?$dual_state_global@P6AXPB_W00II@Z@__crt_state_management@@QAEXQ6AXPB_W00II@Z@Z 1003eb6e f i libucrt:invalid_parameter.obj
 0001:0003dbab       ?value@?$dual_state_global@P6AXPB_W00II@Z@__crt_state_management@@QAEAAP6AXPB_W00II@ZXZ 1003ebab f i libucrt:invalid_parameter.obj
 0001:0003dbae       ___acrt_call_reportfault   1003ebae f   libucrt:invalid_parameter.obj
 0001:0003dd37       ___acrt_initialize_invalid_parameter_handler 1003ed37 f   libucrt:invalid_parameter.obj
 0001:0003dd50       __get_invalid_parameter_handler 1003ed50 f   libucrt:invalid_parameter.obj
 0001:0003dd67       __get_thread_local_invalid_parameter_handler 1003ed67 f   libucrt:invalid_parameter.obj
 0001:0003dd7c       __invalid_parameter        1003ed7c f   libucrt:invalid_parameter.obj
 0001:0003de15       __invalid_parameter_noinfo 1003ee15 f   libucrt:invalid_parameter.obj
 0001:0003de29       __invalid_parameter_noinfo_noreturn 1003ee29 f   libucrt:invalid_parameter.obj
 0001:0003de4d       __invoke_watson            1003ee4d f   libucrt:invalid_parameter.obj
 0001:0003de8c       __set_invalid_parameter_handler 1003ee8c f   libucrt:invalid_parameter.obj
 0001:0003dec8       __set_thread_local_invalid_parameter_handler 1003eec8 f   libucrt:invalid_parameter.obj
 0001:0003deec       ___acrt_errno_from_os_error 1003eeec f   libucrt:errno.obj
 0001:0003df3f       ___acrt_errno_map_os_error 1003ef3f f   libucrt:errno.obj
 0001:0003df6a       ___doserrno                1003ef6a f   libucrt:errno.obj
 0001:0003df81       __errno                    1003ef81 f   libucrt:errno.obj
 0001:0003df98       __get_doserrno             1003ef98 f   libucrt:errno.obj
 0001:0003dfc6       __get_errno                1003efc6 f   libucrt:errno.obj
 0001:0003dff4       __set_doserrno             1003eff4 f   libucrt:errno.obj
 0001:0003e01d       __set_errno                1003f01d f   libucrt:errno.obj
 0001:0003e09d       ??$?B$$A6GHPA_WKJ@Z@__crt_fast_encoded_nullptr_t@@QBEP6GHPA_WKJ@ZXZ 1003f09d f i libucrt:winapi_thunks.obj
 0001:0003e0bb       ??$?RV<lambda_9227be29367c048ad7fd93a717dcb1a1>@@AAV<lambda_a463b7b0560cfcaf9b17f27c6ef46564>@@V<lambda_ccea11b5727ccf69be64f5f5d9a08d9f>@@@?$__crt_seh_guarded_call@H@@QAEH$$QAV<lambda_9227be29367c048ad7fd93a717dcb1a1>@@AAV<lambda_a463b7b0560cfcaf9b17f27c6ef46564>@@$$QAV<lambda_ccea11b5727ccf69be64f5f5d9a08d9f>@@@Z 1003f0bb f i libucrt:winapi_thunks.obj
 0001:0003e160       ??$__acrt_lock_and_call@V<lambda_a463b7b0560cfcaf9b17f27c6ef46564>@@@@YAHW4__acrt_lock_id@@$$QAV<lambda_a463b7b0560cfcaf9b17f27c6ef46564>@@@Z 1003f160 f i libucrt:winapi_thunks.obj
 0001:0003e192       ??$__crt_fast_decode_pointer@P6GHPA_WKJ@Z@@YAP6GHPA_WKJ@ZQ6GH0KJ@Z@Z 1003f192 f i libucrt:winapi_thunks.obj
 0001:0003e1ad       ??$__crt_fast_encode_pointer@P6GHPA_WKJ@Z@@YAP6GHPA_WKJ@ZQ6GH0KJ@Z@Z 1003f1ad f i libucrt:winapi_thunks.obj
 0001:0003e8da       ___acrt_AreFileApisANSI@0  1003f8da f   libucrt:winapi_thunks.obj
 0001:0003e93b       ___acrt_CompareStringEx@36 1003f93b f   libucrt:winapi_thunks.obj
 0001:0003e9cc       ___acrt_EnumSystemLocalesEx@16 1003f9cc f   libucrt:winapi_thunks.obj
 0001:0003ea54       ___acrt_FlsAlloc@4         1003fa54 f   libucrt:winapi_thunks.obj
 0001:0003eabf       ___acrt_FlsFree@4          1003fabf f   libucrt:winapi_thunks.obj
 0001:0003eb2a       ___acrt_FlsGetValue@4      1003fb2a f   libucrt:winapi_thunks.obj
 0001:0003eb95       ___acrt_FlsSetValue@8      1003fb95 f   libucrt:winapi_thunks.obj
 0001:0003ec04       ___acrt_GetDateFormatEx@28 1003fc04 f   libucrt:winapi_thunks.obj
 0001:0003eca6       ___acrt_GetEnabledXStateFeatures@0 1003fca6 f   libucrt:winapi_thunks.obj
 0001:0003ed08       ___acrt_GetFileInformationByHandleEx@16 1003fd08 f   libucrt:winapi_thunks.obj
 0001:0003ed83       ___acrt_GetLocaleInfoEx@16 1003fd83 f   libucrt:winapi_thunks.obj
 0001:0003ee07       ___acrt_GetSystemTimePreciseAsFileTime@4 1003fe07 f   libucrt:winapi_thunks.obj
 0001:0003ee72       ___acrt_GetTimeFormatEx@24 1003fe72 f   libucrt:winapi_thunks.obj
 0001:0003eefe       ___acrt_GetUserDefaultLocaleName@8 1003fefe f   libucrt:winapi_thunks.obj
 0001:0003ef7e       ___acrt_GetXStateFeaturesMask@8 1003ff7e f   libucrt:winapi_thunks.obj
 0001:0003efea       ___acrt_InitializeCriticalSectionEx@12 1003ffea f   libucrt:winapi_thunks.obj
 0001:0003f064       ___acrt_IsValidLocaleName@4 10040064 f   libucrt:winapi_thunks.obj
 0001:0003f0df       ___acrt_LCIDToLocaleName@16 100400df f   libucrt:winapi_thunks.obj
 0001:0003f163       ___acrt_LCMapStringEx@36   10040163 f   libucrt:winapi_thunks.obj
 0001:0003f20d       ___acrt_LocaleNameToLCID@8 1004020d f   libucrt:winapi_thunks.obj
 0001:0003f280       ___acrt_LocateXStateFeature@12 10040280 f   libucrt:winapi_thunks.obj
 0001:0003f2d7       ___acrt_MessageBoxA@16     100402d7 f   libucrt:winapi_thunks.obj
 0001:0003f332       ___acrt_MessageBoxW@16     10040332 f   libucrt:winapi_thunks.obj
 0001:0003f38d       ___acrt_RoInitialize@4     1004038d f   libucrt:winapi_thunks.obj
 0001:0003f3f3       ___acrt_RoUninitialize@0   100403f3 f   libucrt:winapi_thunks.obj
 0001:0003f44e       ___acrt_RtlGenRandom@8     1004044e f   libucrt:winapi_thunks.obj
 0001:0003f4ba       ___acrt_SetThreadStackGuarantee@4 100404ba f   libucrt:winapi_thunks.obj
 0001:0003f520       ___acrt_can_show_message_box 10040520 f   libucrt:winapi_thunks.obj
 0001:0003f53f       ___acrt_can_use_vista_locale_apis 1004053f f   libucrt:winapi_thunks.obj
 0001:0003f54e       ___acrt_can_use_xstate_apis 1004054e f   libucrt:winapi_thunks.obj
 0001:0003f55d       ___acrt_get_parent_window  1004055d f   libucrt:winapi_thunks.obj
 0001:0003f5fb       ___acrt_initialize_winapi_thunks 100405fb f   libucrt:winapi_thunks.obj
 0001:0003f62a       ___acrt_is_interactive     1004062a f   libucrt:winapi_thunks.obj
 0001:0003f6f9       ___acrt_is_packaged_app    100406f9 f   libucrt:winapi_thunks.obj
 0001:0003f7a1       ___acrt_uninitialize_winapi_thunks 100407a1 f   libucrt:winapi_thunks.obj
 0001:0003f7e4       ??0__crt_stdio_stream@@QAE@QAU__crt_stdio_stream_data@@@Z 100407e4 f i libucrt:closeall.obj
 0001:0003f7f8       __fcloseall                100407f8 f   libucrt:closeall.obj
 0001:0003f8c0       ___acrt_stdio_flush_nolock 100408c0 f   libucrt:fflush.obj
 0001:0003f93f       __fflush_nolock            1004093f f   libucrt:fflush.obj
 0001:0003f997       __flushall                 10040997 f   libucrt:fflush.obj
 0001:0003fab0       _fflush                    10040ab0 f   libucrt:fflush.obj
 0001:0003fb1f       ?has_crt_buffer@__crt_stdio_stream@@QBE_NXZ 10040b1f f i libucrt:_freebuf.obj
 0001:0003fb2e       ___acrt_stdio_free_buffer_nolock 10040b2e f   libucrt:_freebuf.obj
 0001:0003fd6b       ___acrt_initialize_lowio   10040d6b f   libucrt:ioinit.obj
 0001:0003fdd6       ___acrt_uninitialize_lowio 10040dd6 f   libucrt:ioinit.obj
 0001:0003fe28       ___isascii                 10040e28 f i libucrt:_ctype.obj
 0001:0003fe3e       ___iscsym                  10040e3e f i libucrt:_ctype.obj
 0001:0003fe68       ___iscsymf                 10040e68 f i libucrt:_ctype.obj
 0001:0003fe8e       ___toascii                 10040e8e f i libucrt:_ctype.obj
 0001:0003fe9e       __isalnum_l                10040e9e f i libucrt:_ctype.obj
 0001:0003fee7       __isalpha_l                10040ee7 f i libucrt:_ctype.obj
 0001:0003ff30       __isblank_l                10040f30 f i libucrt:_ctype.obj
 0001:0003ff83       __iscntrl_l                10040f83 f i libucrt:_ctype.obj
 0001:0003ffc9       __iscsym_l                 10040fc9 f i libucrt:_ctype.obj
 0001:0003fff4       __iscsymf_l                10040ff4 f i libucrt:_ctype.obj
 0001:0004001f       __isdigit_l                1004101f f i libucrt:_ctype.obj
 0001:00040065       __isgraph_l                10041065 f i libucrt:_ctype.obj
 0001:000400ae       __islower_l                100410ae f i libucrt:_ctype.obj
 0001:000400f4       __isprint_l                100410f4 f i libucrt:_ctype.obj
 0001:0004013d       __ispunct_l                1004113d f i libucrt:_ctype.obj
 0001:00040183       __isspace_l                10041183 f i libucrt:_ctype.obj
 0001:000401c9       __isupper_l                100411c9 f i libucrt:_ctype.obj
 0001:0004020f       __isxdigit_l               1004120f f i libucrt:_ctype.obj
 0001:00040258       _isalnum                   10041258 f i libucrt:_ctype.obj
 0001:00040292       _isalpha                   10041292 f i libucrt:_ctype.obj
 0001:000402cc       _isblank                   100412cc f i libucrt:_ctype.obj
 0001:00040310       _iscntrl                   10041310 f i libucrt:_ctype.obj
 0001:00040348       _isdigit                   10041348 f i libucrt:_ctype.obj
 0001:00040380       _isgraph                   10041380 f i libucrt:_ctype.obj
 0001:000403ba       _islower                   100413ba f i libucrt:_ctype.obj
 0001:000403f2       _isprint                   100413f2 f i libucrt:_ctype.obj
 0001:0004042c       _ispunct                   1004142c f i libucrt:_ctype.obj
 0001:00040464       _isspace                   10041464 f i libucrt:_ctype.obj
 0001:0004049c       _isupper                   1004149c f i libucrt:_ctype.obj
 0001:000404d4       _isxdigit                  100414d4 f i libucrt:_ctype.obj
 0001:000408cc       __tolower                  100418cc f   libucrt:tolower_toupper.obj
 0001:000408dc       __tolower_l                100418dc f   libucrt:tolower_toupper.obj
 0001:000408fc       __toupper                  100418fc f   libucrt:tolower_toupper.obj
 0001:0004090c       __toupper_l                1004190c f   libucrt:tolower_toupper.obj
 0001:0004092c       _tolower                   1004192c f   libucrt:tolower_toupper.obj
 0001:00040968       _toupper                   10041968 f   libucrt:tolower_toupper.obj
 0001:000409a4       ??$make_c_string_character_source@DPAPAD@__crt_strtox@@YA?AV?$c_string_character_source@D@0@QBDQAPAD@Z 100419a4 f i libucrt:strtox.obj
 0001:000409c5       ??$make_c_string_character_source@_WPAPA_W@__crt_strtox@@YA?AV?$c_string_character_source@_W@0@QB_WQAPA_W@Z 100419c5 f i libucrt:strtox.obj
 0001:000409e6       ??$parse_integer_from_string@JDPAPAD@__crt_strtox@@YAJQBDQAPADHQAU__crt_locale_pointers@@@Z 100419e6 f i libucrt:strtox.obj
 0001:00040a1e       ??$parse_integer_from_string@J_WPAPA_W@__crt_strtox@@YAJQB_WQAPA_WHQAU__crt_locale_pointers@@@Z 10041a1e f i libucrt:strtox.obj
 0001:00040a56       ??$parse_integer_from_string@KDPAPAD@__crt_strtox@@YAKQBDQAPADHQAU__crt_locale_pointers@@@Z 10041a56 f i libucrt:strtox.obj
 0001:00040a8e       ??$parse_integer_from_string@K_WPAPA_W@__crt_strtox@@YAKQB_WQAPA_WHQAU__crt_locale_pointers@@@Z 10041a8e f i libucrt:strtox.obj
 0001:00040ac6       ??$parse_integer_from_string@_JDPAPAD@__crt_strtox@@YA_JQBDQAPADHQAU__crt_locale_pointers@@@Z 10041ac6 f i libucrt:strtox.obj
 0001:00040afe       ??$parse_integer_from_string@_J_WPAPA_W@__crt_strtox@@YA_JQB_WQAPA_WHQAU__crt_locale_pointers@@@Z 10041afe f i libucrt:strtox.obj
 0001:00040b36       ??$parse_integer_from_string@_KDPAPAD@__crt_strtox@@YA_KQBDQAPADHQAU__crt_locale_pointers@@@Z 10041b36 f i libucrt:strtox.obj
 0001:00040b6e       ??$parse_integer_from_string@_K_WPAPA_W@__crt_strtox@@YA_KQB_WQAPA_WHQAU__crt_locale_pointers@@@Z 10041b6e f i libucrt:strtox.obj
 0001:00040ba6       __strtoi64                 10041ba6 f   libucrt:strtox.obj
 0001:00040bdd       __strtoi64_l               10041bdd f   libucrt:strtox.obj
 0001:00040c15       __strtoimax_l              10041c15 f   libucrt:strtox.obj
 0001:00040c4d       __strtol_l                 10041c4d f   libucrt:strtox.obj
 0001:00040c85       __strtoll_l                10041c85 f   libucrt:strtox.obj
 0001:00040cbd       __strtoui64                10041cbd f   libucrt:strtox.obj
 0001:00040cf4       __strtoui64_l              10041cf4 f   libucrt:strtox.obj
 0001:00040d2c       __strtoul_l                10041d2c f   libucrt:strtox.obj
 0001:00040d64       __strtoull_l               10041d64 f   libucrt:strtox.obj
 0001:00040d9c       __strtoumax_l              10041d9c f   libucrt:strtox.obj
 0001:00040dd4       __wcstoi64                 10041dd4 f   libucrt:strtox.obj
 0001:00040e0b       __wcstoi64_l               10041e0b f   libucrt:strtox.obj
 0001:00040e43       __wcstoimax_l              10041e43 f   libucrt:strtox.obj
 0001:00040e7b       __wcstol_l                 10041e7b f   libucrt:strtox.obj
 0001:00040eb3       __wcstoll_l                10041eb3 f   libucrt:strtox.obj
 0001:00040eeb       __wcstoui64                10041eeb f   libucrt:strtox.obj
 0001:00040f22       __wcstoui64_l              10041f22 f   libucrt:strtox.obj
 0001:00040f5a       __wcstoul_l                10041f5a f   libucrt:strtox.obj
 0001:00040f92       __wcstoull_l               10041f92 f   libucrt:strtox.obj
 0001:00040fca       __wcstoumax_l              10041fca f   libucrt:strtox.obj
 0001:00041002       _strtoimax                 10042002 f   libucrt:strtox.obj
 0001:00041039       _strtol                    10042039 f   libucrt:strtox.obj
 0001:00041070       _strtoll                   10042070 f   libucrt:strtox.obj
 0001:000410a7       _strtoul                   100420a7 f   libucrt:strtox.obj
 0001:000410de       _strtoull                  100420de f   libucrt:strtox.obj
 0001:00041115       _strtoumax                 10042115 f   libucrt:strtox.obj
 0001:0004114c       _wcstoimax                 1004214c f   libucrt:strtox.obj
 0001:00041183       _wcstol                    10042183 f   libucrt:strtox.obj
 0001:000411ba       _wcstoll                   100421ba f   libucrt:strtox.obj
 0001:000411f1       _wcstoul                   100421f1 f   libucrt:strtox.obj
 0001:00041228       _wcstoull                  10042228 f   libucrt:strtox.obj
 0001:0004125f       _wcstoumax                 1004225f f   libucrt:strtox.obj
 0001:00041296       __mbtowc_l                 10042296 f   libucrt:mbtowc.obj
 0001:000413ce       _mbtowc                    100423ce f   libucrt:mbtowc.obj
 0001:000413ee       __wctomb_l                 100423ee f   libucrt:wctomb.obj
 0001:00041455       __wctomb_s_l               10042455 f   libucrt:wctomb.obj
 0001:000415be       _wctomb                    100425be f   libucrt:wctomb.obj
 0001:000415ff       _wctomb_s                  100425ff f   libucrt:wctomb.obj
 0001:00041d17       ??1?$__crt_simd_cleanup_guard@$00@@QAE@XZ 10042d17 f i libucrt:strnlen.obj
 0001:00041d1b       ??1?$__crt_simd_cleanup_guard@$0A@@@QAE@XZ 10042d1b f i libucrt:strnlen.obj
 0001:00041d1c       ?compare_equals@?$__crt_simd_traits@$00E@@SA?AT__m256i@@T2@0@Z 10042d1c f i libucrt:strnlen.obj
 0001:00041d21       ?compare_equals@?$__crt_simd_traits@$00G@@SA?AT__m256i@@T2@0@Z 10042d21 f i libucrt:strnlen.obj
 0001:00041d26       ?compare_equals@?$__crt_simd_traits@$0A@E@@SA?AT__m128i@@T2@0@Z 10042d26 f i libucrt:strnlen.obj
 0001:00041d2b       ?compare_equals@?$__crt_simd_traits@$0A@G@@SA?AT__m128i@@T2@0@Z 10042d2b f i libucrt:strnlen.obj
 0001:00041d30       ?compute_byte_mask@?$__crt_simd_pack_traits@$00@@SAHT__m256i@@@Z 10042d30 f i libucrt:strnlen.obj
 0001:00041d35       ?compute_byte_mask@?$__crt_simd_pack_traits@$0A@@@SAHT__m128i@@@Z 10042d35 f i libucrt:strnlen.obj
 0001:00041d3a       ?get_zero_pack@?$__crt_simd_pack_traits@$00@@SA?AT__m256i@@XZ 10042d3a f i libucrt:strnlen.obj
 0001:00041d3f       ?get_zero_pack@?$__crt_simd_pack_traits@$0A@@@SA?AT__m128i@@XZ 10042d3f f i libucrt:strnlen.obj
 0001:00041d44       _strnlen                   10042d44 f   libucrt:strnlen.obj
 0001:00041eb4       _wcsnlen                   10042eb4 f   libucrt:strnlen.obj
 0001:000420d8       ??$?RU__acrt_ptd@@@__crt_internal_free_policy@@QBEXQBU__acrt_ptd@@@Z 100430d8 f i libucrt:per_thread_data.obj
 0001:000420ee       ??$?RV<lambda_3518db117f0e7cdb002338c5d3c47b6c>@@AAV<lambda_b2ea41f6bbb362cd97d94c6828d90b61>@@V<lambda_abdedf541bb04549bc734292b4a045d4>@@@?$__crt_seh_guarded_call@X@@QAEX$$QAV<lambda_3518db117f0e7cdb002338c5d3c47b6c>@@AAV<lambda_b2ea41f6bbb362cd97d94c6828d90b61>@@$$QAV<lambda_abdedf541bb04549bc734292b4a045d4>@@@Z 100430ee f i libucrt:per_thread_data.obj
 0001:00042152       ??$?RV<lambda_51b6e8b1eb166f2a3faf91f424b38130>@@AAV<lambda_6250bd4b2a391816dd638c3bf72b0bcb>@@V<lambda_0b5a4a3e68152e1d9b943535f5f47bed>@@@?$__crt_seh_guarded_call@X@@QAEX$$QAV<lambda_51b6e8b1eb166f2a3faf91f424b38130>@@AAV<lambda_6250bd4b2a391816dd638c3bf72b0bcb>@@$$QAV<lambda_0b5a4a3e68152e1d9b943535f5f47bed>@@@Z 10043152 f i libucrt:per_thread_data.obj
 0001:000421cb       ??$?RV<lambda_5b71d36f03204c0beab531769a5b5694>@@AAV<lambda_be2b3da3f62db62e9dad5dc70221a656>@@V<lambda_8f9ce462984622f9bf76b59e2aaaf805>@@@?$__crt_seh_guarded_call@X@@QAEX$$QAV<lambda_5b71d36f03204c0beab531769a5b5694>@@AAV<lambda_be2b3da3f62db62e9dad5dc70221a656>@@$$QAV<lambda_8f9ce462984622f9bf76b59e2aaaf805>@@@Z 100431cb f i libucrt:per_thread_data.obj
 0001:00042228       ??$?RV<lambda_9df27f884b057bc3edfc946cb5b7cf47>@@AAV<lambda_e69574bed617af4e071282c136b37893>@@V<lambda_cc0d902bcbbeb830f749456577db4721>@@@?$__crt_seh_guarded_call@X@@QAEX$$QAV<lambda_9df27f884b057bc3edfc946cb5b7cf47>@@AAV<lambda_e69574bed617af4e071282c136b37893>@@$$QAV<lambda_cc0d902bcbbeb830f749456577db4721>@@@Z 10043228 f i libucrt:per_thread_data.obj
 0001:00042282       ??$__acrt_lock_and_call@V<lambda_6250bd4b2a391816dd638c3bf72b0bcb>@@@@YAXW4__acrt_lock_id@@$$QAV<lambda_6250bd4b2a391816dd638c3bf72b0bcb>@@@Z 10043282 f i libucrt:per_thread_data.obj
 0001:000422b4       ??$__acrt_lock_and_call@V<lambda_b2ea41f6bbb362cd97d94c6828d90b61>@@@@YAXW4__acrt_lock_id@@$$QAV<lambda_b2ea41f6bbb362cd97d94c6828d90b61>@@@Z 100432b4 f i libucrt:per_thread_data.obj
 0001:000422e6       ??$__acrt_lock_and_call@V<lambda_be2b3da3f62db62e9dad5dc70221a656>@@@@YAXW4__acrt_lock_id@@$$QAV<lambda_be2b3da3f62db62e9dad5dc70221a656>@@@Z 100432e6 f i libucrt:per_thread_data.obj
 0001:00042318       ??$__acrt_lock_and_call@V<lambda_e69574bed617af4e071282c136b37893>@@@@YAXW4__acrt_lock_id@@$$QAV<lambda_e69574bed617af4e071282c136b37893>@@@Z 10043318 f i libucrt:per_thread_data.obj
 0001:00042451       ??0?$__crt_unique_heap_ptr@U__acrt_ptd@@U__crt_internal_free_policy@@@@QAE@QAU__acrt_ptd@@@Z 10043451 f i libucrt:per_thread_data.obj
 0001:00042465       ??0__crt_scoped_get_last_error_reset@@QAE@XZ 10043465 f i libucrt:per_thread_data.obj
 0001:0004247a       ??1?$__crt_unique_heap_ptr@U__acrt_ptd@@U__crt_internal_free_policy@@@@QAE@XZ 1004347a f i libucrt:per_thread_data.obj
 0001:00042490       ??1__crt_scoped_get_last_error_reset@@QAE@XZ 10043490 f i libucrt:per_thread_data.obj
 0001:0004249b       ??B?$__crt_unique_heap_ptr@U__acrt_ptd@@U__crt_internal_free_policy@@@@QBE_NXZ 1004349b f i libucrt:per_thread_data.obj
 0001:00042611       ?dangerous_get_state_array@?$dual_state_global@PAU__crt_locale_data@@@__crt_state_management@@QAEPAPAU__crt_locale_data@@XZ 10043611 f i libucrt:per_thread_data.obj
 0001:00042715       ?detach@?$__crt_unique_heap_ptr@U__acrt_ptd@@U__crt_internal_free_policy@@@@QAEPAU__acrt_ptd@@XZ 10043715 f i libucrt:per_thread_data.obj
 0001:0004271b       ?get@?$__crt_unique_heap_ptr@U__acrt_ptd@@U__crt_internal_free_policy@@@@QBEPAU__acrt_ptd@@XZ 1004371b f i libucrt:per_thread_data.obj
 0001:0004282a       ?is_valid@?$__crt_unique_heap_ptr@U__acrt_ptd@@U__crt_internal_free_policy@@@@QBE_NXZ 1004382a f i libucrt:per_thread_data.obj
 0001:00042834       ?release@?$__crt_unique_heap_ptr@U__acrt_ptd@@U__crt_internal_free_policy@@@@QAEXXZ 10043834 f i libucrt:per_thread_data.obj
 0001:000428c0       ?value@?$dual_state_global@PAU__crt_locale_data@@@__crt_state_management@@QAEAAPAU__crt_locale_data@@XZ 100438c0 f i libucrt:per_thread_data.obj
 0001:000428c3       ___acrt_freeptd            100438c3 f   libucrt:per_thread_data.obj
 0001:000428fa       ___acrt_getptd             100438fa f   libucrt:per_thread_data.obj
 0001:0004299f       ___acrt_getptd_noexit      1004399f f   libucrt:per_thread_data.obj
 0001:00042a45       ___acrt_initialize_ptd     10043a45 f   libucrt:per_thread_data.obj
 0001:00042a7c       ___acrt_uninitialize_ptd   10043a7c f   libucrt:per_thread_data.obj
 0001:00042a9c       ___threadhandle            10043a9c f   libucrt:per_thread_data.obj
 0001:00042aa2       ___threadid                10043aa2 f   libucrt:per_thread_data.obj
 0001:00042aa8       ___acrt_update_locale_info 10043aa8 f   libucrt:locale_update.obj
 0001:00042ae0       ___acrt_update_multibyte_info 10043ae0 f   libucrt:locale_update.obj
 0001:00042b18       ?__acrt_fp_classify@@YA?AW4__acrt_fp_class@@ABN@Z 10043b18 f i libucrt:cvt.obj
 0001:00042b9f       ?__acrt_fp_is_negative@@YA_NABN@Z 10043b9f f i libucrt:cvt.obj
 0001:00043612       ?strrchr@@YAPADQADH@Z      10044612 f i libucrt:cvt.obj
 0001:0004361f       ___acrt_fp_format          1004461f f   libucrt:cvt.obj
 0001:000437f9       __fputwc_nolock            100447f9 f   libucrt:fputwc.obj
 0001:00043968       __fputwchar                10044968 f   libucrt:fputwc.obj
 0001:00043988       __putwc_nolock             10044988 f   libucrt:fputwc.obj
 0001:00043995       _fputwc                    10044995 f   libucrt:fputwc.obj
 0001:00043a2e       _putwc                     10044a2e f   libucrt:fputwc.obj
 0001:00043a3b       _putwchar                  10044a3b f   libucrt:fputwc.obj
 0001:00043a48       ?lowio_handle@__crt_stdio_stream@@QBEHXZ 10044a48 f i libucrt:fileno.obj
 0001:00043a4e       __fileno                   10044a4e f   libucrt:fileno.obj
 0001:00043a7d       __fputc_nolock             10044a7d f   libucrt:fputc.obj
 0001:00043ab0       __fputchar                 10044ab0 f   libucrt:fputc.obj
 0001:00043ad0       __putc_nolock              10044ad0 f   libucrt:fputc.obj
 0001:00043add       _fputc                     10044add f   libucrt:fputc.obj
 0001:00043c22       _putc                      10044c22 f   libucrt:fputc.obj
 0001:00043c2f       _putchar                   10044c2f f   libucrt:fputc.obj
 0001:00043c3c       __get_printf_count_output  10044c3c f   libucrt:printf_count_output.obj
 0001:00043c56       __set_printf_count_output  10044c56 f   libucrt:printf_count_output.obj
 0001:00043c8a       ?has_temporary_buffer@__crt_stdio_stream@@QBE_NXZ 10044c8a f i libucrt:_sftbuf.obj
 0001:00043c99       ___acrt_stdio_begin_temporary_buffering_nolock 10044c99 f   libucrt:_sftbuf.obj
 0001:00043d7b       ___acrt_stdio_end_temporary_buffering_nolock 10044d7b f   libucrt:_sftbuf.obj
 0001:00043dc5       ??$?RU__crt_locale_data@@@__crt_internal_free_policy@@QBEXQBU__crt_locale_data@@@Z 10044dc5 f i libucrt:wsetlocale.obj
 0001:00043ddb       ??$?RU__crt_locale_pointers@@@__crt_internal_free_policy@@QBEXQBU__crt_locale_pointers@@@Z 10044ddb f i libucrt:wsetlocale.obj
 0001:00043df1       ??$?RU__crt_multibyte_data@@@__crt_internal_free_policy@@QBEXQBU__crt_multibyte_data@@@Z 10044df1 f i libucrt:wsetlocale.obj
 0001:00043e07       ??$?RV<lambda_70818de7b02deff9841e8b0962a60ed9>@@AAV<lambda_2af78c5f5901b1372d98f9ab3177dfa6>@@AAV<lambda_f51fe5fd7c79a33db34fc9310f277369>@@@?$__crt_seh_guarded_call@X@@QAEX$$QAV<lambda_70818de7b02deff9841e8b0962a60ed9>@@AAV<lambda_2af78c5f5901b1372d98f9ab3177dfa6>@@AAV<lambda_f51fe5fd7c79a33db34fc9310f277369>@@@Z 10044e07 f i libucrt:wsetlocale.obj
 0001:00043e50       ??$?RV<lambda_76aaead6e312921abc834cb00a638bdd>@@AAV<lambda_176e34f99554166dd2fac165c457248c>@@V<lambda_998ee1c9f4290b119b936bcd6215875a>@@@?$__crt_seh_guarded_call@X@@QAEX$$QAV<lambda_76aaead6e312921abc834cb00a638bdd>@@AAV<lambda_176e34f99554166dd2fac165c457248c>@@$$QAV<lambda_998ee1c9f4290b119b936bcd6215875a>@@@Z 10044e50 f i libucrt:wsetlocale.obj
 0001:00043eac       ??$?RV<lambda_c76fdea48760d5f9368b465f31df4405>@@AAV<lambda_e378711a6f6581bf7f0efd7cdf97f5d9>@@V<lambda_e927a58b2a85c081d733e8c6192ae2d2>@@@?$__crt_seh_guarded_call@X@@QAEX$$QAV<lambda_c76fdea48760d5f9368b465f31df4405>@@AAV<lambda_e378711a6f6581bf7f0efd7cdf97f5d9>@@$$QAV<lambda_e927a58b2a85c081d733e8c6192ae2d2>@@@Z 10044eac f i libucrt:wsetlocale.obj
 0001:00043eff       ??$?RV<lambda_c9469061b39d205f0f236529d4a41659>@@AAV<lambda_b7fb1a997d3ebc0cc0186c5835178808>@@V<lambda_14b92c79d699846b5cc916cd4cf280e4>@@@?$__crt_seh_guarded_call@X@@QAEX$$QAV<lambda_c9469061b39d205f0f236529d4a41659>@@AAV<lambda_b7fb1a997d3ebc0cc0186c5835178808>@@$$QAV<lambda_14b92c79d699846b5cc916cd4cf280e4>@@@Z 10044eff f i libucrt:wsetlocale.obj
 0001:00043f59       ??$__acrt_lock_and_call@V<lambda_176e34f99554166dd2fac165c457248c>@@@@YAXW4__acrt_lock_id@@$$QAV<lambda_176e34f99554166dd2fac165c457248c>@@@Z 10044f59 f i libucrt:wsetlocale.obj
 0001:00043f8b       ??$__acrt_lock_and_call@V<lambda_b7fb1a997d3ebc0cc0186c5835178808>@@@@YAXW4__acrt_lock_id@@$$QAV<lambda_b7fb1a997d3ebc0cc0186c5835178808>@@@Z 10044f8b f i libucrt:wsetlocale.obj
 0001:00043fbd       ??$__acrt_lock_and_call@V<lambda_e378711a6f6581bf7f0efd7cdf97f5d9>@@@@YAXW4__acrt_lock_id@@$$QAV<lambda_e378711a6f6581bf7f0efd7cdf97f5d9>@@@Z 10044fbd f i libucrt:wsetlocale.obj
 0001:00043fef       ??$__crt_call_and_cleanup@V<lambda_2af78c5f5901b1372d98f9ab3177dfa6>@@V<lambda_f51fe5fd7c79a33db34fc9310f277369>@@@@YAX$$QAV<lambda_2af78c5f5901b1372d98f9ab3177dfa6>@@$$QAV<lambda_f51fe5fd7c79a33db34fc9310f277369>@@@Z 10044fef f i libucrt:wsetlocale.obj
 0001:00044012       ??$__vcrt_va_start_verify_argument_type@H@@YAXXZ 10045012 f i libucrt:wsetlocale.obj
 0001:00044137       ??0?$__crt_unique_heap_ptr@U__crt_locale_data@@U__crt_internal_free_policy@@@@QAE@QAU__crt_locale_data@@@Z 10045137 f i libucrt:wsetlocale.obj
 0001:0004414b       ??0?$__crt_unique_heap_ptr@U__crt_locale_pointers@@U__crt_internal_free_policy@@@@QAE@QAU__crt_locale_pointers@@@Z 1004514b f i libucrt:wsetlocale.obj
 0001:0004415f       ??0?$__crt_unique_heap_ptr@U__crt_multibyte_data@@U__crt_internal_free_policy@@@@QAE@QAU__crt_multibyte_data@@@Z 1004515f f i libucrt:wsetlocale.obj
 0001:00044173       ??1?$__crt_unique_heap_ptr@U__crt_locale_data@@U__crt_internal_free_policy@@@@QAE@XZ 10045173 f i libucrt:wsetlocale.obj
 0001:00044189       ??1?$__crt_unique_heap_ptr@U__crt_locale_pointers@@U__crt_internal_free_policy@@@@QAE@XZ 10045189 f i libucrt:wsetlocale.obj
 0001:0004419f       ??1?$__crt_unique_heap_ptr@U__crt_multibyte_data@@U__crt_internal_free_policy@@@@QAE@XZ 1004519f f i libucrt:wsetlocale.obj
 0001:000441b5       ??B?$__crt_unique_heap_ptr@U__crt_locale_data@@U__crt_internal_free_policy@@@@QBE_NXZ 100451b5 f i libucrt:wsetlocale.obj
 0001:000441bf       ??B?$__crt_unique_heap_ptr@U__crt_locale_pointers@@U__crt_internal_free_policy@@@@QBE_NXZ 100451bf f i libucrt:wsetlocale.obj
 0001:000441c9       ??B?$__crt_unique_heap_ptr@U__crt_multibyte_data@@U__crt_internal_free_policy@@@@QBE_NXZ 100451c9 f i libucrt:wsetlocale.obj
 0001:000443f2       ?detach@?$__crt_unique_heap_ptr@U__crt_locale_data@@U__crt_internal_free_policy@@@@QAEPAU__crt_locale_data@@XZ 100453f2 f i libucrt:wsetlocale.obj
 0001:000443f8       ?detach@?$__crt_unique_heap_ptr@U__crt_locale_pointers@@U__crt_internal_free_policy@@@@QAEPAU__crt_locale_pointers@@XZ 100453f8 f i libucrt:wsetlocale.obj
 0001:000443fe       ?detach@?$__crt_unique_heap_ptr@U__crt_multibyte_data@@U__crt_internal_free_policy@@@@QAEPAU__crt_multibyte_data@@XZ 100453fe f i libucrt:wsetlocale.obj
 0001:00044404       ?get@?$__crt_unique_heap_ptr@U__crt_locale_data@@U__crt_internal_free_policy@@@@QBEPAU__crt_locale_data@@XZ 10045404 f i libucrt:wsetlocale.obj
 0001:00044407       ?get@?$__crt_unique_heap_ptr@U__crt_locale_pointers@@U__crt_internal_free_policy@@@@QBEPAU__crt_locale_pointers@@XZ 10045407 f i libucrt:wsetlocale.obj
 0001:0004440a       ?get@?$__crt_unique_heap_ptr@U__crt_multibyte_data@@U__crt_internal_free_policy@@@@QBEPAU__crt_multibyte_data@@XZ 1004540a f i libucrt:wsetlocale.obj
 0001:0004440d       ?is_valid@?$__crt_unique_heap_ptr@U__crt_locale_data@@U__crt_internal_free_policy@@@@QBE_NXZ 1004540d f i libucrt:wsetlocale.obj
 0001:00044417       ?is_valid@?$__crt_unique_heap_ptr@U__crt_locale_pointers@@U__crt_internal_free_policy@@@@QBE_NXZ 10045417 f i libucrt:wsetlocale.obj
 0001:00044421       ?is_valid@?$__crt_unique_heap_ptr@U__crt_multibyte_data@@U__crt_internal_free_policy@@@@QBE_NXZ 10045421 f i libucrt:wsetlocale.obj
 0001:0004442b       ?release@?$__crt_unique_heap_ptr@U__crt_locale_data@@U__crt_internal_free_policy@@@@QAEXXZ 1004542b f i libucrt:wsetlocale.obj
 0001:00044441       ?release@?$__crt_unique_heap_ptr@U__crt_locale_pointers@@U__crt_internal_free_policy@@@@QAEXXZ 10045441 f i libucrt:wsetlocale.obj
 0001:00044457       ?release@?$__crt_unique_heap_ptr@U__crt_multibyte_data@@U__crt_internal_free_policy@@@@QAEXXZ 10045457 f i libucrt:wsetlocale.obj
 0001:0004446d       ___acrt_copy_locale_name   1004546d f   libucrt:wsetlocale.obj
 0001:000444ec       ___acrt_set_locale_changed 100454ec f   libucrt:wsetlocale.obj
 0001:000444f9       ___acrt_uninitialize_locale 100454f9 f   libucrt:wsetlocale.obj
 0001:0004455f       ___lc_lctowcs              1004555f f   libucrt:wsetlocale.obj
 0001:000445eb       ___lc_wcstolc              100455eb f   libucrt:wsetlocale.obj
 0001:00044765       __configthreadlocale       10045765 f   libucrt:wsetlocale.obj
 0001:00044819       __create_locale            10045819 f   libucrt:wsetlocale.obj
 0001:00044896       __expandlocale             10045896 f   libucrt:wsetlocale.obj
 0001:00044cea       __free_locale              10045cea f   libucrt:wsetlocale.obj
 0001:00044dd0       __get_current_locale       10045dd0 f   libucrt:wsetlocale.obj
 0001:00044e69       __wcreate_locale           10045e69 f   libucrt:wsetlocale.obj
 0001:00044fb4       __wcscats                  10045fb4 f   libucrt:wsetlocale.obj
 0001:00045005       __wsetlocale               10046005 f   libucrt:wsetlocale.obj
 0001:00045b2b       ___p___mb_cur_max          10046b2b f   libucrt:nlsdata.obj
 0001:00045b5b       __realloc_base             10046b5b f   libucrt:realloc_base.obj
 0001:00045bde       ___acrt_initialize_locks   10046bde f   libucrt:locks.obj
 0001:00045c2f       ___acrt_lock               10046c2f f   libucrt:locks.obj
 0001:00045c4b       ___acrt_uninitialize_locks 10046c4b f   libucrt:locks.obj
 0001:00045c88       ___acrt_unlock             10046c88 f   libucrt:locks.obj
 0001:00045ca4       __lock_locales             10046ca4 f   libucrt:locks.obj
 0001:00045caf       __unlock_locales           10046caf f   libucrt:locks.obj
 0001:00045cba       ??$?RV<lambda_123407a5e2ac06da108355a851863b7a>@@AAV<lambda_2fe9b910cf3cbf4a0ab98a02ba45b3ec>@@V<lambda_ae55bdf541ad94d75914d381c370e64d>@@@?$__crt_seh_guarded_call@H@@QAEH$$QAV<lambda_123407a5e2ac06da108355a851863b7a>@@AAV<lambda_2fe9b910cf3cbf4a0ab98a02ba45b3ec>@@$$QAV<lambda_ae55bdf541ad94d75914d381c370e64d>@@@Z 10046cba f i libucrt:close.obj
 0001:00045d5c       ??$__acrt_lowio_lock_fh_and_call@V<lambda_2fe9b910cf3cbf4a0ab98a02ba45b3ec>@@@@YAHH$$QAV<lambda_2fe9b910cf3cbf4a0ab98a02ba45b3ec>@@@Z 10046d5c f i libucrt:close.obj
 0001:00045eaf       __close                    10046eaf f   libucrt:close.obj
 0001:00045f4d       __close_nolock             10046f4d f   libucrt:close.obj
 0001:00046010       ??$?RU__crt_stdio_stream_data@@@__crt_internal_free_policy@@QBEXQBU__crt_stdio_stream_data@@@Z 10047010 f i libucrt:stream.obj
 0001:00046026       ??0?$__crt_unique_heap_ptr@U__crt_stdio_stream_data@@U__crt_internal_free_policy@@@@QAE@QAU__crt_stdio_stream_data@@@Z 10047026 f i libucrt:stream.obj
 0001:0004603a       ??0__crt_stdio_stream@@QAE@XZ 1004703a f i libucrt:stream.obj
 0001:00046040       ??1?$__crt_unique_heap_ptr@U__crt_stdio_stream_data@@U__crt_internal_free_policy@@@@QAE@XZ 10047040 f i libucrt:stream.obj
 0001:00046056       ?__acrt_stdio_allocate_stream@@YA?AV__crt_stdio_stream@@XZ 10047056 f   libucrt:stream.obj
 0001:000460cc       ?__acrt_stdio_free_stream@@YAXV__crt_stdio_stream@@@Z 100470cc f   libucrt:stream.obj
 0001:00046115       ?deallocate@__crt_stdio_stream@@QAEXXZ 10047115 f i libucrt:stream.obj
 0001:00046121       ?detach@?$__crt_unique_heap_ptr@U__crt_stdio_stream_data@@U__crt_internal_free_policy@@@@QAEPAU__crt_stdio_stream_data@@XZ 10047121 f i libucrt:stream.obj
 0001:0004621a       ?lock@__crt_stdio_stream@@QBEXXZ 1004721a f i libucrt:stream.obj
 0001:00046225       ?release@?$__crt_unique_heap_ptr@U__crt_stdio_stream_data@@U__crt_internal_free_policy@@@@QAEXXZ 10047225 f i libucrt:stream.obj
 0001:0004623b       ?try_allocate@__crt_stdio_stream@@QAE_NXZ 1004723b f i libucrt:stream.obj
 0001:00046264       ??$__acrt_stdio_parse_mode@D@@YA?AU__acrt_stdio_stream_mode@@QBD@Z 10047264 f i libucrt:openfile.obj
 0001:00046522       ??$__acrt_stdio_parse_mode@_W@@YA?AU__acrt_stdio_stream_mode@@QB_W@Z 10047522 f i libucrt:openfile.obj
 0001:00046943       ??$tcsncmp@AAPBDAAY02$$CBDI@?$__crt_char_traits@D@@SAHAAPBDAAY02$$CBD$$QAI@Z 10047943 f i libucrt:openfile.obj
 0001:00046966       ??$tcsncmp@AAPB_WAAY02$$CB_WI@?$__crt_char_traits@_W@@SAHAAPB_WAAY02$$CB_W$$QAI@Z 10047966 f i libucrt:openfile.obj
 0001:00046989       ??$tcsnicmp@AAPBDAAY04$$CBDI@?$__crt_char_traits@D@@SAHAAPBDAAY04$$CBD$$QAI@Z 10047989 f i libucrt:openfile.obj
 0001:000469ac       ??$tcsnicmp@AAPBDAAY06$$CBDI@?$__crt_char_traits@D@@SAHAAPBDAAY06$$CBD$$QAI@Z 100479ac f i libucrt:openfile.obj
 0001:000469cf       ??$tcsnicmp@AAPBDAAY07$$CBDI@?$__crt_char_traits@D@@SAHAAPBDAAY07$$CBD$$QAI@Z 100479cf f i libucrt:openfile.obj
 0001:000469f2       ??$tcsnicmp@AAPB_WAAY04$$CB_WI@?$__crt_char_traits@_W@@SAHAAPB_WAAY04$$CB_W$$QAI@Z 100479f2 f i libucrt:openfile.obj
 0001:00046a15       ??$tcsnicmp@AAPB_WAAY06$$CB_WI@?$__crt_char_traits@_W@@SAHAAPB_WAAY06$$CB_W$$QAI@Z 10047a15 f i libucrt:openfile.obj
 0001:00046a38       ??$tcsnicmp@AAPB_WAAY07$$CB_WI@?$__crt_char_traits@_W@@SAHAAPB_WAAY07$$CB_W$$QAI@Z 10047a38 f i libucrt:openfile.obj
 0001:00046a5b       ??$tsopen_s@PAHABQBDABHABHH@?$__crt_char_traits@D@@SAH$$QAPAHABQBDABH2$$QAH@Z 10047a5b f i libucrt:openfile.obj
 0001:00046a8d       ??$tsopen_s@PAHABQB_WABHABHH@?$__crt_char_traits@_W@@SAH$$QAPAHABQB_WABH2$$QAH@Z 10047a8d f i libucrt:openfile.obj
 0001:00046abf       ?__acrt_stdio_parse_mode_D@@YA_NAAU__acrt_stdio_stream_mode@@@Z 10047abf f i libucrt:openfile.obj
 0001:00046ae0       ?__acrt_stdio_parse_mode_N@@YA_NAAU__acrt_stdio_stream_mode@@@Z 10047ae0 f i libucrt:openfile.obj
 0001:00046af6       ?__acrt_stdio_parse_mode_R@@YA_NAAU__acrt_stdio_stream_mode@@AA_N@Z 10047af6 f i libucrt:openfile.obj
 0001:00046b1b       ?__acrt_stdio_parse_mode_S@@YA_NAAU__acrt_stdio_stream_mode@@AA_N@Z 10047b1b f i libucrt:openfile.obj
 0001:00046b40       ?__acrt_stdio_parse_mode_T@@YA_NAAU__acrt_stdio_stream_mode@@@Z 10047b40 f i libucrt:openfile.obj
 0001:00046b66       ?__acrt_stdio_parse_mode_b@@YA_NAAU__acrt_stdio_stream_mode@@@Z 10047b66 f i libucrt:openfile.obj
 0001:00046b8e       ?__acrt_stdio_parse_mode_c@@YA_NAAU__acrt_stdio_stream_mode@@AA_N@Z 10047b8e f i libucrt:openfile.obj
 0001:00046bb8       ?__acrt_stdio_parse_mode_n@@YA_NAAU__acrt_stdio_stream_mode@@AA_N@Z 10047bb8 f i libucrt:openfile.obj
 0001:00046be2       ?__acrt_stdio_parse_mode_plus@@YA_NAAU__acrt_stdio_stream_mode@@AA_N@Z 10047be2 f i libucrt:openfile.obj
 0001:00046c24       ?__acrt_stdio_parse_mode_t@@YA_NAAU__acrt_stdio_stream_mode@@@Z 10047c24 f i libucrt:openfile.obj
 0001:00046c4c       __openfile                 10047c4c f   libucrt:openfile.obj
 0001:00046c59       __wopenfile                10047c59 f   libucrt:openfile.obj
 0001:000472fe       __read                     100482fe f   libucrt:read.obj
 0001:00047455       __read_nolock              10048455 f   libucrt:read.obj
 0001:00047ded       ___acrt_stdio_refill_and_read_narrow_nolock 10048ded f   libucrt:_filbuf.obj
 0001:00047dfa       ___acrt_stdio_refill_and_read_wide_nolock 10048dfa f   libucrt:_filbuf.obj
 0001:00048559       __write                    10049559 f   libucrt:write.obj
 0001:0004867e       __write_nolock             1004967e f   libucrt:write.obj
 0001:00048dc4       ___acrt_stdio_flush_and_write_narrow_nolock 10049dc4 f   libucrt:_flsbuf.obj
 0001:00048dd1       ___acrt_stdio_flush_and_write_wide_nolock 10049dd1 f   libucrt:_flsbuf.obj
 0001:00048dde       ___acrt_copy_path_to_wide_string 10049dde f   libucrt:string_utilities.obj
 0001:00048ed6       ___acrt_copy_to_char       10049ed6 f   libucrt:string_utilities.obj
 0001:00048fc1       __wremove                  10049fc1 f   libucrt:wunlink.obj
 0001:00048ff3       __wunlink                  10049ff3 f   libucrt:wunlink.obj
 0001:00049467       __lseek                    1004a467 f   libucrt:lseek.obj
 0001:00049474       __lseek_nolock             1004a474 f   libucrt:lseek.obj
 0001:00049481       __lseeki64                 1004a481 f   libucrt:lseek.obj
 0001:000494a2       __lseeki64_nolock          1004a4a2 f   libucrt:lseek.obj
 0001:000494c3       __chgsign                  1004a4c3 f   libucrt:ieeemisc.obj
 0001:000494fd       __chgsignf                 1004a4fd f   libucrt:ieeemisc.obj
 0001:00049528       __copysign                 1004a528 f   libucrt:ieeemisc.obj
 0001:0004955c       __copysignf                1004a55c f   libucrt:ieeemisc.obj
 0001:00049581       __finite                   1004a581 f   libucrt:ieeemisc.obj
 0001:000495a1       __fpclass                  1004a5a1 f   libucrt:ieeemisc.obj
 0001:0004966e       __isnan                    1004a66e f   libucrt:ieeemisc.obj
 0001:000496b1       __logb                     1004a6b1 f   libucrt:ieeemisc.obj
 0001:000497b6       __nextafter                1004a7b6 f   libucrt:ieeemisc.obj
 0001:000497dc       __scalb                    1004a7dc f   libucrt:ieeemisc.obj
 0001:000497fc       __add_exp                  1004a7fc f   libucrt:util.obj
 0001:00049836       __decomp                   1004a836 f   libucrt:util.obj
 0001:0004993f       __get_exp                  1004a93f f   libucrt:util.obj
 0001:0004995e       __set_bexp                 1004a95e f   libucrt:util.obj
 0001:00049991       __set_exp                  1004a991 f   libucrt:util.obj
 0001:000499cb       __sptype                   1004a9cb f   libucrt:util.obj
 0001:00049a40       ___clrfp_sse2              1004aa40 f   libucrt:fpctrl.obj
 0001:00049a69       ___ctrlfp_sse2             1004aa69 f   libucrt:fpctrl.obj
 0001:00049ab2       ___fclrf_sse2              1004aab2 f   libucrt:fpctrl.obj
 0001:00049ad8       ___get_fpsr_sse2           1004aad8 f   libucrt:fpctrl.obj
 0001:00049afd       ___set_fpsr_sse2           1004aafd f   libucrt:fpctrl.obj
 0001:00049b90       ___set_statfp_sse2         1004ab90 f   libucrt:fpctrl.obj
 0001:00049bb1       ___statfp_sse2             1004abb1 f   libucrt:fpctrl.obj
 0001:00049bcb       __clrfp                    1004abcb f   libucrt:fpctrl.obj
 0001:00049be2       __ctrlfp                   1004abe2 f   libucrt:fpctrl.obj
 0001:00049c19       __set_statfp               1004ac19 f   libucrt:fpctrl.obj
 0001:00049c8a       __statfp                   1004ac8a f   libucrt:fpctrl.obj
 0001:00049d67       ___acrt_report_runtime_error 1004ad67 f   libucrt:report_runtime_error.obj
 0001:00049ecd       __query_app_type           1004aecd f   libucrt:report_runtime_error.obj
 0001:00049ed3       __set_app_type             1004aed3 f   libucrt:report_runtime_error.obj
 0001:0004a3bf       __i64toa                   1004b3bf f   libucrt:xtoa.obj
 0001:0004a412       __i64toa_s                 1004b412 f   libucrt:xtoa.obj
 0001:0004a463       __i64tow                   1004b463 f   libucrt:xtoa.obj
 0001:0004a4b6       __i64tow_s                 1004b4b6 f   libucrt:xtoa.obj
 0001:0004a507       __itoa                     1004b507 f   libucrt:xtoa.obj
 0001:0004a54b       __itoa_s                   1004b54b f   libucrt:xtoa.obj
 0001:0004a58d       __itow                     1004b58d f   libucrt:xtoa.obj
 0001:0004a5d1       __itow_s                   1004b5d1 f   libucrt:xtoa.obj
 0001:0004a613       __ltoa                     1004b613 f   libucrt:xtoa.obj
 0001:0004a657       __ltoa_s                   1004b657 f   libucrt:xtoa.obj
 0001:0004a699       __ltow                     1004b699 f   libucrt:xtoa.obj
 0001:0004a6dd       __ltow_s                   1004b6dd f   libucrt:xtoa.obj
 0001:0004a71f       __ui64toa                  1004b71f f   libucrt:xtoa.obj
 0001:0004a749       __ui64toa_s                1004b749 f   libucrt:xtoa.obj
 0001:0004a771       __ui64tow                  1004b771 f   libucrt:xtoa.obj
 0001:0004a79b       __ui64tow_s                1004b79b f   libucrt:xtoa.obj
 0001:0004a7c3       __ultoa                    1004b7c3 f   libucrt:xtoa.obj
 0001:0004a7e9       __ultoa_s                  1004b7e9 f   libucrt:xtoa.obj
 0001:0004a80d       __ultow                    1004b80d f   libucrt:xtoa.obj
 0001:0004a833       __ultow_s                  1004b833 f   libucrt:xtoa.obj
 0001:0004a857       __set_error_mode           1004b857 f   libucrt:set_error_mode.obj
 0001:0004a933       _wcscat_s                  1004b933 f   libucrt:wcscat_s.obj
 0001:0004aa3d       _wcscpy_s                  1004ba3d f   libucrt:wcscpy_s.obj
 0001:0004abdd       _wcsncat_s                 1004bbdd f   libucrt:wcsncat_s.obj
 0001:0004ac6d       _strcat_s                  1004bc6d f   libucrt:strcat_s.obj
 0001:0004adf4       _strncat_s                 1004bdf4 f   libucrt:strncat_s.obj
 0001:0004b01f       ??$message_box@$$TAAPBDAAPBDAAI@?$__crt_char_traits@D@@SAH$$QA$$TAAPBD1AAI@Z 1004c01f f i libucrt:crtmbox.obj
 0001:0004b047       ??$message_box@$$TAAPB_WAAPB_WAAI@?$__crt_char_traits@_W@@SAH$$QA$$TAAPB_W1AAI@Z 1004c047 f i libucrt:crtmbox.obj
 0001:0004b06f       ??$message_box@$$TABQBDABQBDK@?$__crt_char_traits@D@@SAH$$QA$$TABQBD1$$QAK@Z 1004c06f f i libucrt:crtmbox.obj
 0001:0004b097       ??$message_box@$$TABQB_WABQB_WK@?$__crt_char_traits@_W@@SAH$$QA$$TABQB_W1$$QAK@Z 1004c097 f i libucrt:crtmbox.obj
 0001:0004b0bf       ??$message_box@PAUHWND__@@ABQBDABQBDABI@?$__crt_char_traits@D@@SAH$$QAPAUHWND__@@ABQBD1ABI@Z 1004c0bf f i libucrt:crtmbox.obj
 0001:0004b0e7       ??$message_box@PAUHWND__@@ABQB_WABQB_WABI@?$__crt_char_traits@_W@@SAH$$QAPAUHWND__@@ABQB_W1ABI@Z 1004c0e7 f i libucrt:crtmbox.obj
 0001:0004b163       ??$output_debug_string@ABQBD@?$__crt_char_traits@D@@SAXABQBD@Z 1004c163 f i libucrt:crtmbox.obj
 0001:0004b179       ??$output_debug_string@ABQB_W@?$__crt_char_traits@_W@@SAXABQB_W@Z 1004c179 f i libucrt:crtmbox.obj
 0001:0004b18f       ??0?$__crt_unique_handle_t@U__crt_handle_traits@@@@QAE@QAX@Z 1004c18f f i libucrt:crtmbox.obj
 0001:0004b1a3       ??1?$__crt_unique_handle_t@U__crt_handle_traits@@@@QAE@XZ 1004c1a3 f i libucrt:crtmbox.obj
 0001:0004b1bf       ??B?$__crt_unique_handle_t@U__crt_handle_traits@@@@QBE_NXZ 1004c1bf f i libucrt:crtmbox.obj
 0001:0004b1ca       ?close@?$__crt_unique_handle_t@U__crt_handle_traits@@@@QAEXXZ 1004c1ca f i libucrt:crtmbox.obj
 0001:0004b1e6       ?close@__crt_handle_traits@@SA_NPAX@Z 1004c1e6 f i libucrt:crtmbox.obj
 0001:0004b201       ?get@?$__crt_unique_handle_t@U__crt_handle_traits@@@@QBEPAXXZ 1004c201 f i libucrt:crtmbox.obj
 0001:0004b204       ?get_invalid_value@__crt_handle_traits@@SAPAXXZ 1004c204 f i libucrt:crtmbox.obj
 0001:0004b208       ?is_valid@?$__crt_unique_handle_t@U__crt_handle_traits@@@@QBE_NXZ 1004c208 f i libucrt:crtmbox.obj
 0001:0004b213       ___acrt_show_narrow_message_box 1004c213 f   libucrt:crtmbox.obj
 0001:0004b220       ___acrt_show_wide_message_box 1004c220 f   libucrt:crtmbox.obj
 0001:0004b22d       ??$?RV<lambda_d92cfe8357b99225085016881b624cb0>@@AAV<lambda_b721fa326cdb32351d23dfa67958c160>@@V<lambda_42d75b0848218ec137fa420c8ba9fdf9>@@@?$__crt_seh_guarded_call@H@@QAEH$$QAV<lambda_d92cfe8357b99225085016881b624cb0>@@AAV<lambda_b721fa326cdb32351d23dfa67958c160>@@$$QAV<lambda_42d75b0848218ec137fa420c8ba9fdf9>@@@Z 1004c22d f i libucrt:setvbuf.obj
 0001:0004b292       ??$__acrt_lock_stream_and_call@V<lambda_b721fa326cdb32351d23dfa67958c160>@@@@YAHQAU_iobuf@@$$QAV<lambda_b721fa326cdb32351d23dfa67958c160>@@@Z 1004c292 f i libucrt:setvbuf.obj
 0001:0004b42f       _setvbuf                   1004c42f f   libucrt:setvbuf.obj
 0001:0004b4c2       ??$?B$$A6AXH@Z@__crt_fast_encoded_nullptr_t@@QBEP6AXH@ZXZ 1004c4c2 f i libucrt:signal.obj
 0001:0004b4e0       ??$?RV<lambda_a048d3beccc847880fc8490e18b82769>@@AAV<lambda_ec61778202f4f5fc7e7711acc23c3bca>@@V<lambda_f7496a158712204296dd6628a163878e>@@@?$__crt_seh_guarded_call@P6AXH@Z@@QAEP6AXH@Z$$QAV<lambda_a048d3beccc847880fc8490e18b82769>@@AAV<lambda_ec61778202f4f5fc7e7711acc23c3bca>@@$$QAV<lambda_f7496a158712204296dd6628a163878e>@@@Z 1004c4e0 f i libucrt:signal.obj
 0001:0004b550       ??$__acrt_lock_and_call@V<lambda_ec61778202f4f5fc7e7711acc23c3bca>@@@@YAP6AXH@ZW4__acrt_lock_id@@$$QAV<lambda_ec61778202f4f5fc7e7711acc23c3bca>@@@Z 1004c550 f i libucrt:signal.obj
 0001:0004b582       ??$__crt_fast_decode_pointer@P6AXH@Z@@YAP6AXH@ZQ6AXH@Z@Z 1004c582 f i libucrt:signal.obj
 0001:0004b59d       ??$__crt_fast_encode_pointer@P6AXH@Z@@YAP6AXH@ZQ6AXH@Z@Z 1004c59d f i libucrt:signal.obj
 0001:0004b747       ?initialize@?$dual_state_global@P6AXH@Z@__crt_state_management@@QAEXQ6AXH@Z@Z 1004c747 f i libucrt:signal.obj
 0001:0004b7f3       ?value@?$dual_state_global@P6AXH@Z@__crt_state_management@@QAEAAP6AXH@ZXZ 1004c7f3 f i libucrt:signal.obj
 0001:0004b7f6       ___acrt_get_sigabrt_handler 1004c7f6 f   libucrt:signal.obj
 0001:0004b812       ___acrt_initialize_signal_handlers 1004c812 f   libucrt:signal.obj
 0001:0004b85b       ___fpecode                 1004c85b f   libucrt:signal.obj
 0001:0004b866       ___pxcptinfoptrs           1004c866 f   libucrt:signal.obj
 0001:0004b871       _raise                     1004c871 f   libucrt:signal.obj
 0001:0004bafb       _signal                    1004cafb f   libucrt:signal.obj
 0001:0004bd19       ??$__crt_fast_decode_pointer@P6AHPAU_exception@@@Z@@YAP6AHPAU_exception@@@ZQ6AH0@Z@Z 1004cd19 f i libucrt:matherr.obj
 0001:0004bd34       ??$__crt_fast_encode_pointer@P6AHPAU_exception@@@Z@@YAP6AHPAU_exception@@@ZQ6AH0@Z@Z 1004cd34 f i libucrt:matherr.obj
 0001:0004bd5a       ?initialize@?$dual_state_global@P6AHPAU_exception@@@Z@__crt_state_management@@QAEXQ6AHPAU_exception@@@Z@Z 1004cd5a f i libucrt:matherr.obj
 0001:0004bd97       ?value@?$dual_state_global@P6AHPAU_exception@@@Z@__crt_state_management@@QAEAAP6AHPAU_exception@@@ZXZ 1004cd97 f i libucrt:matherr.obj
 0001:0004bd9a       ___acrt_has_user_matherr   1004cd9a f   libucrt:matherr.obj
 0001:0004bdb9       ___acrt_initialize_user_matherr 1004cdb9 f   libucrt:matherr.obj
 0001:0004bdd2       ___acrt_invoke_user_matherr 1004cdd2 f   libucrt:matherr.obj
 0001:0004be2d       ___setusermatherr          1004ce2d f   libucrt:matherr.obj
 0001:0004c83f       ??$find_first_file_ex@ABQADW4_FINDEX_INFO_LEVELS@@PAU_WIN32_FIND_DATAA@@W4_FINDEX_SEARCH_OPS@@$$TH@?$__crt_char_traits@D@@SAPAXABQAD$$QAW4_FINDEX_INFO_LEVELS@@$$QAPAU_WIN32_FIND_DATAA@@$$QAW4_FINDEX_SEARCH_OPS@@$$QA$$T$$QAH@Z 1004d83f f i libucrt:argv_wildcards.obj
 0001:0004c874       ??$find_first_file_ex@ABQA_WW4_FINDEX_INFO_LEVELS@@PAU_WIN32_FIND_DATAW@@W4_FINDEX_SEARCH_OPS@@$$TH@?$__crt_char_traits@_W@@SAPAXABQA_W$$QAW4_FINDEX_INFO_LEVELS@@$$QAPAU_WIN32_FIND_DATAW@@$$QAW4_FINDEX_SEARCH_OPS@@$$QA$$T$$QAH@Z 1004d874 f i libucrt:argv_wildcards.obj
 0001:0004c8a9       ??$find_next_file@PAXPAU_WIN32_FIND_DATAA@@@?$__crt_char_traits@D@@SAH$$QAPAX$$QAPAU_WIN32_FIND_DATAA@@@Z 1004d8a9 f i libucrt:argv_wildcards.obj
 0001:0004c8c5       ??$find_next_file@PAXPAU_WIN32_FIND_DATAW@@@?$__crt_char_traits@_W@@SAH$$QAPAX$$QAPAU_WIN32_FIND_DATAW@@@Z 1004d8c5 f i libucrt:argv_wildcards.obj
 0001:0004c8e1       ??$tcsncpy_s@AAPADIAAPADABI@?$__crt_char_traits@D@@SAHAAPAD$$QAI0ABI@Z 1004d8e1 f i libucrt:argv_wildcards.obj
 0001:0004c90c       ??$tcsncpy_s@AAPA_WIAAPA_WABI@?$__crt_char_traits@_W@@SAHAAPA_W$$QAI0ABI@Z 1004d90c f i libucrt:argv_wildcards.obj
 0001:0004c937       ??$tcsncpy_s@PAD$$CBIABQBDABI@?$__crt_char_traits@D@@SAH$$QAPAD$$QBIABQBDABI@Z 1004d937 f i libucrt:argv_wildcards.obj
 0001:0004c962       ??$tcsncpy_s@PADABIABQBDABI@?$__crt_char_traits@D@@SAH$$QAPADABIABQBD1@Z 1004d962 f i libucrt:argv_wildcards.obj
 0001:0004c98d       ??$tcsncpy_s@PA_W$$CBIABQB_WABI@?$__crt_char_traits@_W@@SAH$$QAPA_W$$QBIABQB_WABI@Z 1004d98d f i libucrt:argv_wildcards.obj
 0001:0004c9b8       ??$tcsncpy_s@PA_WABIABQB_WABI@?$__crt_char_traits@_W@@SAH$$QAPA_WABIABQB_W1@Z 1004d9b8 f i libucrt:argv_wildcards.obj
 0001:0004c9e3       ??$tcspbrk@AAPADAAY02$$CBD@?$__crt_char_traits@D@@SAPADAAPADAAY02$$CBD@Z 1004d9e3 f i libucrt:argv_wildcards.obj
 0001:0004c9fe       ??$tcspbrk@AAPA_WAAY02$$CB_W@?$__crt_char_traits@_W@@SAPA_WAAPA_WAAY02$$CB_W@Z 1004d9fe f i libucrt:argv_wildcards.obj
 0001:0004ca19       ??0?$__crt_unique_handle_t@U__crt_findfile_traits@@@@QAE@QAX@Z 1004da19 f i libucrt:argv_wildcards.obj
 0001:0004ca2d       ??0?$argument_list@D@?A0xb0e4b824@@QAE@XZ 1004da2d f i libucrt:argv_wildcards.obj
 0001:0004ca3d       ??0?$argument_list@_W@?A0xb0e4b824@@QAE@XZ 1004da3d f i libucrt:argv_wildcards.obj
 0001:0004ca4d       ??1?$__crt_unique_handle_t@U__crt_findfile_traits@@@@QAE@XZ 1004da4d f i libucrt:argv_wildcards.obj
 0001:0004ca69       ??1?$argument_list@D@?A0xb0e4b824@@QAE@XZ 1004da69 f i libucrt:argv_wildcards.obj
 0001:0004ca97       ??1?$argument_list@_W@?A0xb0e4b824@@QAE@XZ 1004da97 f i libucrt:argv_wildcards.obj
 0001:0004cb25       ?append@?$argument_list@D@?A0xb0e4b824@@QAEHQAD@Z 1004db25 f i libucrt:argv_wildcards.obj
 0001:0004cb67       ?append@?$argument_list@_W@?A0xb0e4b824@@QAEHQA_W@Z 1004db67 f i libucrt:argv_wildcards.obj
 0001:0004cba9       ?begin@?$argument_list@D@?A0xb0e4b824@@QBEPAPADXZ 1004dba9 f i libucrt:argv_wildcards.obj
 0001:0004cbac       ?begin@?$argument_list@_W@?A0xb0e4b824@@QBEPAPA_WXZ 1004dbac f i libucrt:argv_wildcards.obj
 0001:0004cbaf       ?close@?$__crt_unique_handle_t@U__crt_findfile_traits@@@@QAEXXZ 1004dbaf f i libucrt:argv_wildcards.obj
 0001:0004cbcb       ?close@__crt_findfile_traits@@SA_NPAX@Z 1004dbcb f i libucrt:argv_wildcards.obj
 0001:0004cbe6       ?end@?$argument_list@D@?A0xb0e4b824@@QBEPAPADXZ 1004dbe6 f i libucrt:argv_wildcards.obj
 0001:0004cbea       ?end@?$argument_list@_W@?A0xb0e4b824@@QBEPAPA_WXZ 1004dbea f i libucrt:argv_wildcards.obj
 0001:0004cbee       ?expand_if_necessary@?$argument_list@D@?A0xb0e4b824@@AAEHXZ 1004dbee f i libucrt:argv_wildcards.obj
 0001:0004cc96       ?expand_if_necessary@?$argument_list@_W@?A0xb0e4b824@@AAEHXZ 1004dc96 f i libucrt:argv_wildcards.obj
 0001:0004cd3e       ?get@?$__crt_unique_handle_t@U__crt_findfile_traits@@@@QBEPAXXZ 1004dd3e f i libucrt:argv_wildcards.obj
 0001:0004cd41       ?get_invalid_value@__crt_findfile_traits@@SAPAXXZ 1004dd41 f i libucrt:argv_wildcards.obj
 0001:0004cd62       ?size@?$argument_list@D@?A0xb0e4b824@@QBEIXZ 1004dd62 f i libucrt:argv_wildcards.obj
 0001:0004cd6d       ?size@?$argument_list@_W@?A0xb0e4b824@@QBEIXZ 1004dd6d f i libucrt:argv_wildcards.obj
 0001:0004cd78       ?strpbrk@@YAPADQADQBD@Z    1004dd78 f i libucrt:argv_wildcards.obj
 0001:0004cd85       ?wcspbrk@@YAPA_WPA_WPB_W@Z 1004dd85 f i libucrt:argv_wildcards.obj
 0001:0004cd92       ___acrt_expand_narrow_argv_wildcards 1004dd92 f   libucrt:argv_wildcards.obj
 0001:0004cd9f       ___acrt_expand_wide_argv_wildcards 1004dd9f f   libucrt:argv_wildcards.obj
 0001:0004cdac       ??$?RV<lambda_978dc153c237d78434369da87b74ff60>@@AAV<lambda_ad1ced32f4ac17aa236e5ef05d6b3b7c>@@V<lambda_4a8533e2866a575feecb8298ce776b0d>@@@?$__crt_seh_guarded_call@X@@QAEX$$QAV<lambda_978dc153c237d78434369da87b74ff60>@@AAV<lambda_ad1ced32f4ac17aa236e5ef05d6b3b7c>@@$$QAV<lambda_4a8533e2866a575feecb8298ce776b0d>@@@Z 1004ddac f i libucrt:mbctype.obj
 0001:0004cdff       ??$__acrt_lock_and_call@V<lambda_ad1ced32f4ac17aa236e5ef05d6b3b7c>@@@@YAXW4__acrt_lock_id@@$$QAV<lambda_ad1ced32f4ac17aa236e5ef05d6b3b7c>@@@Z 1004ddff f i libucrt:mbctype.obj
 0001:0004d410       ___acrt_initialize_multibyte 1004e410 f   libucrt:mbctype.obj
 0001:0004d435       ___acrt_update_thread_multibyte_data 1004e435 f   libucrt:mbctype.obj
 0001:0004d4ff       ___p__mbcasemap            1004e4ff f   libucrt:mbctype.obj
 0001:0004d505       ___p__mbctype              1004e505 f   libucrt:mbctype.obj
 0001:0004d50b       __getmbcp                  1004e50b f   libucrt:mbctype.obj
 0001:0004d54e       __setmbcp                  1004e54e f   libucrt:mbctype.obj
 0001:0004d565       __setmbcp_nolock           1004e565 f   libucrt:mbctype.obj
 0001:0004d8e2       __ismbbalnum               1004e8e2 f   libucrt:ismbbyte.obj
 0001:0004d903       __ismbbalnum_l             1004e903 f   libucrt:ismbbyte.obj
 0001:0004d926       __ismbbalpha               1004e926 f   libucrt:ismbbyte.obj
 0001:0004d947       __ismbbalpha_l             1004e947 f   libucrt:ismbbyte.obj
 0001:0004d96a       __ismbbblank               1004e96a f   libucrt:ismbbyte.obj
 0001:0004d995       __ismbbblank_l             1004e995 f   libucrt:ismbbyte.obj
 0001:0004d9c2       __ismbbgraph               1004e9c2 f   libucrt:ismbbyte.obj
 0001:0004d9e3       __ismbbgraph_l             1004e9e3 f   libucrt:ismbbyte.obj
 0001:0004da06       __ismbbkalnum              1004ea06 f   libucrt:ismbbyte.obj
 0001:0004da24       __ismbbkalnum_l            1004ea24 f   libucrt:ismbbyte.obj
 0001:0004da43       __ismbbkana                1004ea43 f   libucrt:ismbbyte.obj
 0001:0004da5a       __ismbbkana_l              1004ea5a f   libucrt:ismbbyte.obj
 0001:0004dabf       __ismbbkprint              1004eabf f   libucrt:ismbbyte.obj
 0001:0004dadd       __ismbbkprint_l            1004eadd f   libucrt:ismbbyte.obj
 0001:0004dafc       __ismbbkpunct              1004eafc f   libucrt:ismbbyte.obj
 0001:0004db1a       __ismbbkpunct_l            1004eb1a f   libucrt:ismbbyte.obj
 0001:0004db39       __ismbblead                1004eb39 f   libucrt:ismbbyte.obj
 0001:0004db57       __ismbblead_l              1004eb57 f   libucrt:ismbbyte.obj
 0001:0004db76       __ismbbprint               1004eb76 f   libucrt:ismbbyte.obj
 0001:0004db97       __ismbbprint_l             1004eb97 f   libucrt:ismbbyte.obj
 0001:0004dbba       __ismbbpunct               1004ebba f   libucrt:ismbbyte.obj
 0001:0004dbd8       __ismbbpunct_l             1004ebd8 f   libucrt:ismbbyte.obj
 0001:0004dbf7       __ismbbtrail               1004ebf7 f   libucrt:ismbbyte.obj
 0001:0004dc15       __ismbbtrail_l             1004ec15 f   libucrt:ismbbyte.obj
 0001:0004dc34       ___acrt_initialize_command_line 1004ec34 f   libucrt:argv_data.obj
 0001:0004dc53       ___acrt_uninitialize_command_line 1004ec53 f   libucrt:argv_data.obj
 0001:0004dc56       ___p___argc                1004ec56 f   libucrt:argv_data.obj
 0001:0004dc5c       ___p___argv                1004ec5c f   libucrt:argv_data.obj
 0001:0004dc62       ___p___wargv               1004ec62 f   libucrt:argv_data.obj
 0001:0004dc68       ___p__acmdln               1004ec68 f   libucrt:argv_data.obj
 0001:0004dc6e       ___p__pgmptr               1004ec6e f   libucrt:argv_data.obj
 0001:0004dc74       ___p__wcmdln               1004ec74 f   libucrt:argv_data.obj
 0001:0004dc7a       ___p__wpgmptr              1004ec7a f   libucrt:argv_data.obj
 0001:0004dc80       __get_pgmptr               1004ec80 f   libucrt:argv_data.obj
 0001:0004dcbd       __get_wpgmptr              1004ecbd f   libucrt:argv_data.obj
 0001:0004dcfa       ??0?$__crt_unique_handle_t@Uenvironment_strings_traits@?A0x588e5281@@@@QAE@QA_W@Z 1004ecfa f i libucrt:get_environment_from_os.obj
 0001:0004dd0e       ??1?$__crt_unique_handle_t@Uenvironment_strings_traits@?A0x588e5281@@@@QAE@XZ 1004ed0e f i libucrt:get_environment_from_os.obj
 0001:0004dd2a       ??B?$__crt_unique_handle_t@Uenvironment_strings_traits@?A0x588e5281@@@@QBE_NXZ 1004ed2a f i libucrt:get_environment_from_os.obj
 0001:0004dd34       ?close@?$__crt_unique_handle_t@Uenvironment_strings_traits@?A0x588e5281@@@@QAEXXZ 1004ed34 f i libucrt:get_environment_from_os.obj
 0001:0004dd50       ?close@environment_strings_traits@?A0x588e5281@@SA_NPA_W@Z 1004ed50 f i libucrt:get_environment_from_os.obj
 0001:0004ddaa       ?get@?$__crt_unique_handle_t@Uenvironment_strings_traits@?A0x588e5281@@@@QBEPA_WXZ 1004edaa f i libucrt:get_environment_from_os.obj
 0001:0004ddad       ?get_invalid_value@environment_strings_traits@?A0x588e5281@@SAPA_WXZ 1004edad f i libucrt:get_environment_from_os.obj
 0001:0004ddb0       ?is_valid@?$__crt_unique_handle_t@Uenvironment_strings_traits@?A0x588e5281@@@@QBE_NXZ 1004edb0 f i libucrt:get_environment_from_os.obj
 0001:0004ddba       ___dcrt_get_narrow_environment_from_os 1004edba f   libucrt:get_environment_from_os.obj
 0001:0004de5d       ___dcrt_get_wide_environment_from_os 1004ee5d f   libucrt:get_environment_from_os.obj
 0001:0004e6f5       ??$get_or_create_environment_nolock@$$$V@?$__crt_char_traits@D@@SAPAPADXZ 1004f6f5 f i libucrt:setenv.obj
 0001:0004e6fa       ??$get_or_create_environment_nolock@$$$V@?$__crt_char_traits@_W@@SAPAPA_WXZ 1004f6fa f i libucrt:setenv.obj
 0001:0004e6ff       ??$set_environment_variable@ABQADQAD@?$__crt_char_traits@D@@SAHABQAD$$QBQAD@Z 1004f6ff f i libucrt:setenv.obj
 0001:0004e71b       ??$set_environment_variable@ABQA_WQA_W@?$__crt_char_traits@_W@@SAHABQA_W$$QBQA_W@Z 1004f71b f i libucrt:setenv.obj
 0001:0004e737       ??$tcschr@ABQADD@?$__crt_char_traits@D@@SAPADABQAD$$QAD@Z 1004f737 f i libucrt:setenv.obj
 0001:0004e757       ??$tcschr@ABQA_WD@?$__crt_char_traits@_W@@SAPA_WABQA_W$$QAD@Z 1004f757 f i libucrt:setenv.obj
 0001:0004e77c       ??$tcscpy_s@AAPADABIAAPAD@?$__crt_char_traits@D@@SAHAAPADABI0@Z 1004f77c f i libucrt:setenv.obj
 0001:0004e7a1       ??$tcscpy_s@AAPA_WABIAAPA_W@?$__crt_char_traits@_W@@SAHAAPA_WABI0@Z 1004f7a1 f i libucrt:setenv.obj
 0001:0004e7c6       ??$tcscpy_s@ABQADABIABQAD@?$__crt_char_traits@D@@SAHABQADABI0@Z 1004f7c6 f i libucrt:setenv.obj
 0001:0004e7eb       ??$tcscpy_s@ABQA_WABIABQA_W@?$__crt_char_traits@_W@@SAHABQA_WABI0@Z 1004f7eb f i libucrt:setenv.obj
 0001:0004e810       ??$tcsnicoll@ABQBDAAPADABI@?$__crt_char_traits@D@@SAHABQBDAAPADABI@Z 1004f810 f i libucrt:setenv.obj
 0001:0004e835       ??$tcsnicoll@ABQB_WAAPA_WABI@?$__crt_char_traits@_W@@SAHABQB_WAAPA_WABI@Z 1004f835 f i libucrt:setenv.obj
 0001:0004e87e       ?strchr@@YAPADQADH@Z       1004f87e f i libucrt:setenv.obj
 0001:0004e88b       ?wcschr@@YAPA_WPA_W_W@Z    1004f88b f i libucrt:setenv.obj
 0001:0004e898       ___dcrt_set_variable_in_narrow_environment_nolock 1004f898 f   libucrt:setenv.obj
 0001:0004e8a5       ___dcrt_set_variable_in_wide_environment_nolock 1004f8a5 f   libucrt:setenv.obj
 0001:0004e8b2       __recalloc                 1004f8b2 f   libucrt:recalloc.obj
 0001:0004e8bf       __recalloc_base            1004f8bf f   libucrt:recalloc.obj
 0001:0004e947       ___acrt_getheap            1004f947 f   libucrt:heap_handle.obj
 0001:0004e94d       ___acrt_initialize_heap    1004f94d f   libucrt:heap_handle.obj
 0001:0004e962       ___acrt_uninitialize_heap  1004f962 f   libucrt:heap_handle.obj
 0001:0004e96e       __get_heap_handle          1004f96e f   libucrt:heap_handle.obj
 0001:0004e974       ___acrt_execute_initializers 1004f974 f   libucrt:shared_initialization.obj
 0001:0004ea17       ___acrt_execute_uninitializers 1004fa17 f   libucrt:shared_initialization.obj
 0001:0004ea77       ??$?B$$A6AHI@Z@__crt_fast_encoded_nullptr_t@@QBEP6AHI@ZXZ 1004fa77 f i libucrt:new_handler.obj
 0001:0004ea95       ??$__crt_fast_decode_pointer@P6AHI@Z@@YAP6AHI@ZQ6AHI@Z@Z 1004fa95 f i libucrt:new_handler.obj
 0001:0004eab0       ??$__crt_fast_encode_pointer@P6AHI@Z@@YAP6AHI@ZQ6AHI@Z@Z 1004fab0 f i libucrt:new_handler.obj
 0001:0004ead6       ?_set_new_handler@@YAP6AHI@ZH@Z 1004fad6 f   libucrt:new_handler.obj
 0001:0004eafc       ?initialize@?$dual_state_global@P6AHI@Z@__crt_state_management@@QAEXQ6AHI@Z@Z 1004fafc f i libucrt:new_handler.obj
 0001:0004eb39       ?value@?$dual_state_global@P6AHI@Z@__crt_state_management@@QAEAAP6AHI@ZXZ 1004fb39 f i libucrt:new_handler.obj
 0001:0004eb3c       ___acrt_initialize_new_handler 1004fb3c f   libucrt:new_handler.obj
 0001:0004eb55       __callnewh                 1004fb55 f   libucrt:new_handler.obj
 0001:0004ebaa       __query_new_handler        1004fbaa f   libucrt:new_handler.obj
 0001:0004ec10       __set_new_handler          1004fc10 f   libucrt:new_handler.obj
 0001:0004ec88       ?value@?$dual_state_global@J@__crt_state_management@@QAEAAJXZ 1004fc88 f i libucrt:new_mode.obj
 0001:0004ec8b       __query_new_mode           1004fc8b f   libucrt:new_mode.obj
 0001:0004ec91       __set_new_mode             1004fc91 f   libucrt:new_mode.obj
 0001:0004eccb       ___pctype_func             1004fccb f   libucrt:ctype.obj
 0001:0004ecfa       ___pwctype_func            1004fcfa f   libucrt:ctype.obj
 0001:0004ed00       __iswctype_l               1004fd00 f   libucrt:iswctype.obj
 0001:0004ed19       _iswctype                  1004fd19 f   libucrt:iswctype.obj
 0001:0004ed8f       __isctype                  1004fd8f f   libucrt:isctype.obj
 0001:0004edcc       __isctype_l                1004fdcc f   libucrt:isctype.obj
 0001:0004f093       ___acrt_DownlevelLCIDToLocaleName 10050093 f   libucrt:lcidtoname_downlevel.obj
 0001:0004f167       ___acrt_DownlevelLocaleNameToLCID 10050167 f   libucrt:lcidtoname_downlevel.obj
 0001:0004f19e       ??$?RV<lambda_61cee617f5178ae960314fd4d05640a0>@@AAV<lambda_6978c1fb23f02e42e1d9e99668cc68aa>@@V<lambda_9cd88cf8ad10232537feb2133f08c833>@@@?$__crt_seh_guarded_call@H@@QAEH$$QAV<lambda_61cee617f5178ae960314fd4d05640a0>@@AAV<lambda_6978c1fb23f02e42e1d9e99668cc68aa>@@$$QAV<lambda_9cd88cf8ad10232537feb2133f08c833>@@@Z 1005019e f i libucrt:commit.obj
 0001:0004f25c       ??$__acrt_lowio_lock_fh_and_call@V<lambda_6978c1fb23f02e42e1d9e99668cc68aa>@@@@YAHH$$QAV<lambda_6978c1fb23f02e42e1d9e99668cc68aa>@@@Z 1005025c f i libucrt:commit.obj
 0001:0004f34e       __commit                   1005034e f   libucrt:commit.obj
 0001:0004f3d8       ??$?RU__crt_lowio_handle_data@@@__crt_internal_free_policy@@QBEXQBU__crt_lowio_handle_data@@@Z 100503d8 f i libucrt:osfinfo.obj
 0001:0004f3ee       ??0?$__crt_unique_heap_ptr@U__crt_lowio_handle_data@@U__crt_internal_free_policy@@@@QAE@QAU__crt_lowio_handle_data@@@Z 100503ee f i libucrt:osfinfo.obj
 0001:0004f402       ??1?$__crt_unique_heap_ptr@U__crt_lowio_handle_data@@U__crt_internal_free_policy@@@@QAE@XZ 10050402 f i libucrt:osfinfo.obj
 0001:0004f418       ??B?$__crt_unique_heap_ptr@U__crt_lowio_handle_data@@U__crt_internal_free_policy@@@@QBE_NXZ 10050418 f i libucrt:osfinfo.obj
 0001:0004f422       ?detach@?$__crt_unique_heap_ptr@U__crt_lowio_handle_data@@U__crt_internal_free_policy@@@@QAEPAU__crt_lowio_handle_data@@XZ 10050422 f i libucrt:osfinfo.obj
 0001:0004f428       ?get@?$__crt_unique_heap_ptr@U__crt_lowio_handle_data@@U__crt_internal_free_policy@@@@QBEPAU__crt_lowio_handle_data@@XZ 10050428 f i libucrt:osfinfo.obj
 0001:0004f42b       ?is_valid@?$__crt_unique_heap_ptr@U__crt_lowio_handle_data@@U__crt_internal_free_policy@@@@QBE_NXZ 1005042b f i libucrt:osfinfo.obj
 0001:0004f435       ?release@?$__crt_unique_heap_ptr@U__crt_lowio_handle_data@@U__crt_internal_free_policy@@@@QAEXXZ 10050435 f i libucrt:osfinfo.obj
 0001:0004f44b       ___acrt_lowio_create_handle_array 1005044b f   libucrt:osfinfo.obj
 0001:0004f4e3       ___acrt_lowio_destroy_handle_array 100504e3 f   libucrt:osfinfo.obj
 0001:0004f525       ___acrt_lowio_ensure_fh_exists 10050525 f   libucrt:osfinfo.obj
 0001:0004f5e3       ___acrt_lowio_lock_fh      100505e3 f   libucrt:osfinfo.obj
 0001:0004f60e       ___acrt_lowio_set_os_handle 1005060e f   libucrt:osfinfo.obj
 0001:0004f6c7       ___acrt_lowio_unlock_fh    100506c7 f   libucrt:osfinfo.obj
 0001:0004f6f2       __alloc_osfhnd             100506f2 f   libucrt:osfinfo.obj
 0001:0004f848       __free_osfhnd              10050848 f   libucrt:osfinfo.obj
 0001:0004f8fd       __get_osfhandle            100508fd f   libucrt:osfinfo.obj
 0001:0004f981       __open_osfhandle           10050981 f   libucrt:osfinfo.obj
 0001:0004fad2       ___iswcsym                 10050ad2 f i libucrt:_wctype.obj
 0001:0004fb01       ___iswcsymf                10050b01 f i libucrt:_wctype.obj
 0001:0004fb30       __isleadbyte_l             10050b30 f i libucrt:_wctype.obj
 0001:0004fb77       __iswalnum_l               10050b77 f i libucrt:_wctype.obj
 0001:0004fb92       __iswalpha_l               10050b92 f i libucrt:_wctype.obj
 0001:0004fbad       __iswblank_l               10050bad f i libucrt:_wctype.obj
 0001:0004fbd1       __iswcntrl_l               10050bd1 f i libucrt:_wctype.obj
 0001:0004fbe8       __iswcsym_l                10050be8 f i libucrt:_wctype.obj
 0001:0004fc17       __iswcsymf_l               10050c17 f i libucrt:_wctype.obj
 0001:0004fc46       __iswdigit_l               10050c46 f i libucrt:_wctype.obj
 0001:0004fc5d       __iswgraph_l               10050c5d f i libucrt:_wctype.obj
 0001:0004fc78       __iswlower_l               10050c78 f i libucrt:_wctype.obj
 0001:0004fc8f       __iswprint_l               10050c8f f i libucrt:_wctype.obj
 0001:0004fcaa       __iswpunct_l               10050caa f i libucrt:_wctype.obj
 0001:0004fcc1       __iswspace_l               10050cc1 f i libucrt:_wctype.obj
 0001:0004fcd8       __iswupper_l               10050cd8 f i libucrt:_wctype.obj
 0001:0004fcef       __iswxdigit_l              10050cef f i libucrt:_wctype.obj
 0001:0004fd0a       _isleadbyte                10050d0a f i libucrt:_wctype.obj
 0001:0004fd21       _iswalnum                  10050d21 f i libucrt:_wctype.obj
 0001:0004fd3c       _iswalpha                  10050d3c f i libucrt:_wctype.obj
 0001:0004fd57       _iswascii                  10050d57 f i libucrt:_wctype.obj
 0001:0004fd70       _iswblank                  10050d70 f i libucrt:_wctype.obj
 0001:0004fd94       _iswcntrl                  10050d94 f i libucrt:_wctype.obj
 0001:0004fdab       _iswdigit                  10050dab f i libucrt:_wctype.obj
 0001:0004fdc2       _iswgraph                  10050dc2 f i libucrt:_wctype.obj
 0001:0004fddd       _iswlower                  10050ddd f i libucrt:_wctype.obj
 0001:0004fdf4       _iswprint                  10050df4 f i libucrt:_wctype.obj
 0001:0004fe0f       _iswpunct                  10050e0f f i libucrt:_wctype.obj
 0001:0004fe26       _iswspace                  10050e26 f i libucrt:_wctype.obj
 0001:0004fe3d       _iswupper                  10050e3d f i libucrt:_wctype.obj
 0001:0004fe54       _iswxdigit                 10050e54 f i libucrt:_wctype.obj
 0001:0004fe6f       ??0?$__crt_scoped_stack_ptr@_W@@QAE@U?$__crt_scoped_stack_ptr_tag@_W@@@Z 10050e6f f i libucrt:lcmapstringa.obj
 0001:0004fe83       ??0?$__crt_scoped_stack_ptr_tag@_W@@QAE@QA_W@Z 10050e83 f i libucrt:lcmapstringa.obj
 0001:0004fe97       ??1?$__crt_scoped_stack_ptr@_W@@QAE@XZ 10050e97 f i libucrt:lcmapstringa.obj
 0001:0004fea2       ??B?$__crt_scoped_stack_ptr@_W@@QBE_NXZ 10050ea2 f i libucrt:lcmapstringa.obj
 0001:00050150       ?get@?$__crt_scoped_stack_ptr@_W@@QBEPA_WXZ 10051150 f i libucrt:lcmapstringa.obj
 0001:00050153       __MallocaComputeSize       10051153 f i libucrt:lcmapstringa.obj
 0001:0005016a       __MarkAllocaS              1005116a f i libucrt:lcmapstringa.obj
 0001:00050185       ___acrt_LCMapStringA       10051185 f   libucrt:lcmapstringa.obj
 0001:000501e2       __freea_crt                100511e2 f i libucrt:lcmapstringa.obj
 0001:0005020a       ??$?RG@__crt_internal_free_policy@@QBEXQBG@Z 1005120a f i libucrt:initctype.obj
 0001:00050220       ??$?RJ@__crt_internal_free_policy@@QBEXQBJ@Z 10051220 f i libucrt:initctype.obj
 0001:00050236       ??0?$__crt_unique_heap_ptr@GU__crt_internal_free_policy@@@@QAE@QAG@Z 10051236 f i libucrt:initctype.obj
 0001:0005024a       ??0?$__crt_unique_heap_ptr@JU__crt_internal_free_policy@@@@QAE@QAJ@Z 1005124a f i libucrt:initctype.obj
 0001:0005025e       ??1?$__crt_unique_heap_ptr@GU__crt_internal_free_policy@@@@QAE@XZ 1005125e f i libucrt:initctype.obj
 0001:00050274       ??1?$__crt_unique_heap_ptr@JU__crt_internal_free_policy@@@@QAE@XZ 10051274 f i libucrt:initctype.obj
 0001:0005028a       ?detach@?$__crt_unique_heap_ptr@GU__crt_internal_free_policy@@@@QAEPAGXZ 1005128a f i libucrt:initctype.obj
 0001:00050290       ?detach@?$__crt_unique_heap_ptr@JU__crt_internal_free_policy@@@@QAEPAJXZ 10051290 f i libucrt:initctype.obj
 0001:00050296       ?release@?$__crt_unique_heap_ptr@GU__crt_internal_free_policy@@@@QAEXXZ 10051296 f i libucrt:initctype.obj
 0001:000502ac       ?release@?$__crt_unique_heap_ptr@JU__crt_internal_free_policy@@@@QAEXXZ 100512ac f i libucrt:initctype.obj
 0001:000502c2       ____lc_codepage_func       100512c2 f   libucrt:initctype.obj
 0001:000502f2       ____lc_collate_cp_func     100512f2 f   libucrt:initctype.obj
 0001:00050322       ____lc_locale_name_func    10051322 f   libucrt:initctype.obj
 0001:00050355       ____mb_cur_max_func        10051355 f   libucrt:initctype.obj
 0001:00050385       ____mb_cur_max_l_func      10051385 f   libucrt:initctype.obj
 0001:000503a4       ___acrt_locale_initialize_ctype 100513a4 f   libucrt:initctype.obj
 0001:00050829       ___acrt_add_locale_ref     10051829 f   libucrt:locale_refcounting.obj
 0001:000508c5       ___acrt_free_locale        100518c5 f   libucrt:locale_refcounting.obj
 0001:00050a61       ___acrt_locale_add_lc_time_reference 10051a61 f   libucrt:locale_refcounting.obj
 0001:00050a94       ___acrt_locale_free_lc_time_if_unreferenced 10051a94 f   libucrt:locale_refcounting.obj
 0001:00050ad0       ___acrt_locale_release_lc_time_reference 10051ad0 f   libucrt:locale_refcounting.obj
 0001:00050b03       ___acrt_release_locale_ref 10051b03 f   libucrt:locale_refcounting.obj
 0001:00050ba4       ___acrt_update_thread_locale_data 10051ba4 f   libucrt:locale_refcounting.obj
 0001:00050c38       __updatetlocinfoEx_nolock  10051c38 f   libucrt:locale_refcounting.obj
 0001:00050c9c       ___acrt_fp_strflt_to_string 10051c9c f   libucrt:_fptostr.obj
 0001:000524d0       ??0big_integer@__crt_strtox@@QAE@ABU01@@Z 100534d0 f i libucrt:cfout.obj
 0001:00052510       ??0big_integer@__crt_strtox@@QAE@XZ 10053510 f i libucrt:cfout.obj
 0001:0005251b       ??0scoped_fp_state_reset@?A0x48fbfdd4@@QAE@XZ 1005351b f i libucrt:cfout.obj
 0001:0005254f       ??1scoped_fp_state_reset@?A0x48fbfdd4@@QAE@XZ 1005354f f i libucrt:cfout.obj
 0001:00052560       ??4big_integer@__crt_strtox@@QAEAAU01@ABU01@@Z 10053560 f i libucrt:cfout.obj
 0001:000525a0       ??8__crt_strtox@@YA_NABUbig_integer@0@0@Z 100535a0 f i libucrt:cfout.obj
 0001:000525f0       ??9__crt_strtox@@YA_NABUbig_integer@0@0@Z 100535f0 f i libucrt:cfout.obj
 0001:00052650       ?add_carry@__crt_strtox@@YAIAAIII@Z 10053650 f i libucrt:cfout.obj
 0001:00052680       ?add_multiply_carry@__crt_strtox@@YAIAAIIII@Z 10053680 f i libucrt:cfout.obj
 0001:000526b0       ?bit_scan_reverse@__crt_strtox@@YAII@Z 100536b0 f i libucrt:cfout.obj
 0001:000526e0       ?count_sequential_high_zeroes@__crt_strtox@@YAII@Z 100536e0 f i libucrt:cfout.obj
 0001:00052710       ?divide@__crt_strtox@@YA_KAAUbig_integer@1@ABU21@@Z 10053710 f i libucrt:cfout.obj
 0001:00052cf0       ?is_zero@__crt_strtox@@YA_NABUbig_integer@1@@Z 10053cf0 f i libucrt:cfout.obj
 0001:00052d10       ?make_big_integer@__crt_strtox@@YA?AUbig_integer@1@_K@Z 10053d10 f i libucrt:cfout.obj
 0001:00052d40       ?make_big_integer_power_of_two@__crt_strtox@@YA?AUbig_integer@1@I@Z 10053d40 f i libucrt:cfout.obj
 0001:00052da0       ?multiply@__crt_strtox@@YA_NAAUbig_integer@1@ABU21@@Z 10053da0 f i libucrt:cfout.obj
 0001:00053250       ?multiply@__crt_strtox@@YA_NAAUbig_integer@1@I@Z 10054250 f i libucrt:cfout.obj
 0001:00053350       ?multiply_64_32@__crt_strtox@@YA_K_KI@Z 10054350 f i libucrt:cfout.obj
 0001:00053370       ?multiply_by_power_of_ten@__crt_strtox@@YA_NAAUbig_integer@1@I@Z 10054370 f i libucrt:cfout.obj
 0001:00053a70       ?multiply_core@__crt_strtox@@YAIQAIII@Z 10054a70 f i libucrt:cfout.obj
 0001:00053ac0       ?shift_left@__crt_strtox@@YA_NAAUbig_integer@1@I@Z 10054ac0 f i libucrt:cfout.obj
 0001:00053c62       ___acrt_fltout             10054c62 f   libucrt:cfout.obj
 0001:00055586       __isatty                   10056586 f   libucrt:isatty.obj
 0001:000555f1       ??$?RUlconv@@@__crt_internal_free_policy@@QBEXQBUlconv@@@Z 100565f1 f i libucrt:initmon.obj
 0001:00055607       ??0?$__crt_unique_heap_ptr@Ulconv@@U__crt_internal_free_policy@@@@QAE@QAUlconv@@@Z 10056607 f i libucrt:initmon.obj
 0001:0005561b       ??1?$__crt_unique_heap_ptr@Ulconv@@U__crt_internal_free_policy@@@@QAE@XZ 1005661b f i libucrt:initmon.obj
 0001:00055631       ?detach@?$__crt_unique_heap_ptr@Ulconv@@U__crt_internal_free_policy@@@@QAEPAUlconv@@XZ 10056631 f i libucrt:initmon.obj
 0001:00055637       ?release@?$__crt_unique_heap_ptr@Ulconv@@U__crt_internal_free_policy@@@@QAEXXZ 10056637 f i libucrt:initmon.obj
 0001:0005564d       ___acrt_locale_free_monetary 1005664d f   libucrt:initmon.obj
 0001:0005578a       ___acrt_locale_initialize_monetary 1005678a f   libucrt:initmon.obj
 0001:00055c7d       ___acrt_locale_free_numeric 10056c7d f   libucrt:initnum.obj
 0001:00055d00       ___acrt_locale_initialize_numeric 10056d00 f   libucrt:initnum.obj
 0001:00055feb       ??$?RU__crt_lc_time_data@@@__crt_internal_free_policy@@QBEXQBU__crt_lc_time_data@@@Z 10056feb f i libucrt:inittime.obj
 0001:0005608b       ??0?$__crt_unique_heap_ptr@U__crt_lc_time_data@@U__crt_internal_free_policy@@@@QAE@QAU__crt_lc_time_data@@@Z 1005708b f i libucrt:inittime.obj
 0001:0005609f       ??1?$__crt_unique_heap_ptr@U__crt_lc_time_data@@U__crt_internal_free_policy@@@@QAE@XZ 1005709f f i libucrt:inittime.obj
 0001:000560b5       ??B?$__crt_unique_heap_ptr@U__crt_lc_time_data@@U__crt_internal_free_policy@@@@QBE_NXZ 100570b5 f i libucrt:inittime.obj
 0001:000560bf       ?detach@?$__crt_unique_heap_ptr@U__crt_lc_time_data@@U__crt_internal_free_policy@@@@QAEPAU__crt_lc_time_data@@XZ 100570bf f i libucrt:inittime.obj
 0001:00056110       ?get@?$__crt_unique_heap_ptr@U__crt_lc_time_data@@U__crt_internal_free_policy@@@@QBEPAU__crt_lc_time_data@@XZ 10057110 f i libucrt:inittime.obj
 0001:000564a8       ?is_valid@?$__crt_unique_heap_ptr@U__crt_lc_time_data@@U__crt_internal_free_policy@@@@QBE_NXZ 100574a8 f i libucrt:inittime.obj
 0001:000564b2       ?release@?$__crt_unique_heap_ptr@U__crt_lc_time_data@@U__crt_internal_free_policy@@@@QAEXXZ 100574b2 f i libucrt:inittime.obj
 0001:000564c8       ___acrt_locale_free_time   100574c8 f   libucrt:inittime.obj
 0001:000565e5       ___acrt_locale_initialize_time 100575e5 f   libucrt:inittime.obj
 0001:00056783       _wcsncpy_s                 10057783 f   libucrt:wcsncpy_s.obj
 0001:00056790       _wcscspn                   10057790 f   libucrt:wcscspn.obj
 0001:000567f4       _wcsncmp                   100577f4 f   libucrt:wcsncmp.obj
 0001:0005683c       _wcspbrk                   1005783c f   libucrt:wcspbrk.obj
 0001:00056892       ___acrt_GetStringTypeA     10057892 f   libucrt:getstringtypea.obj
 0001:00057306       ___acrt_get_qualified_locale 10058306 f   libucrt:get_qualified_locale.obj
 0001:00057ead       ___acrt_get_qualified_locale_downlevel 10058ead f   libucrt:getqloc_downlevel.obj
 0001:00058135       _localeconv                10059135 f   libucrt:localeconv.obj
 0001:00058169       __wcsnicmp                 10059169 f   libucrt:wcsnicmp.obj
 0001:0005824f       __wcsnicmp_l               1005924f f   libucrt:wcsnicmp.obj
 0001:00058390       _strncmp                   10059390 f   libucrt:strncmp.obj
 0001:00058426       __strnicmp                 10059426 f   libucrt:strnicmp.obj
 0001:000584ad       __strnicmp_l               100594ad f   libucrt:strnicmp.obj
 0001:00058591       ??$__vcrt_va_start_verify_argument_type@$$CBH@@YAXXZ 10059591 f i libucrt:open.obj
 0001:00058948       ??$tsopen_nolock@PAHABQAHABQBDABHABHABHABH@?$__crt_char_traits@D@@SAH$$QAPAHABQAHABQBDABH333@Z 10059948 f i libucrt:open.obj
 0001:00058986       ??$tsopen_nolock@PAHABQAHABQB_WABHABHABHABH@?$__crt_char_traits@_W@@SAH$$QAPAHABQAHABQB_WABH333@Z 10059986 f i libucrt:open.obj
 0001:000589c4       ??$tsopen_nolock@PAHPAHABQBDABHHABHH@?$__crt_char_traits@D@@SAH$$QAPAH0ABQBDABH$$QAH23@Z 100599c4 f i libucrt:open.obj
 0001:00058a02       ??$tsopen_nolock@PAHPAHABQB_WABHHABHH@?$__crt_char_traits@_W@@SAH$$QAPAH0ABQB_WABH$$QAH23@Z 10059a02 f i libucrt:open.obj
 0001:000591d0       __open                     1005a1d0 f   libucrt:open.obj
 0001:000591ee       __sopen                    1005a1ee f   libucrt:open.obj
 0001:00059230       __sopen_dispatch           1005a230 f   libucrt:open.obj
 0001:0005923d       __sopen_nolock             1005a23d f   libucrt:open.obj
 0001:000592a2       __sopen_s                  1005a2a2 f   libucrt:open.obj
 0001:000592ca       __wopen                    1005a2ca f   libucrt:open.obj
 0001:000592e8       __wsopen                   1005a2e8 f   libucrt:open.obj
 0001:0005932a       __wsopen_dispatch          1005a32a f   libucrt:open.obj
 0001:00059337       __wsopen_nolock            1005a337 f   libucrt:open.obj
 0001:0005972a       __wsopen_s                 1005a72a f   libucrt:open.obj
 0001:00059752       ___p__commode              1005a752 f   libucrt:ncommode.obj
 0001:00059758       ___acrt_stdio_allocate_buffer_nolock 1005a758 f   libucrt:_getbuf.obj
 0001:000597cc       ??$?RV<lambda_4980db0136e49a56f91ef52c46ca659a>@@AAV<lambda_6e3e78bb6855d1e4040e022c1b427e22>@@V<lambda_9c074eaf62197b4fd0274ed9e7824161>@@@?$__crt_seh_guarded_call@G@@QAEG$$QAV<lambda_4980db0136e49a56f91ef52c46ca659a>@@AAV<lambda_6e3e78bb6855d1e4040e022c1b427e22>@@$$QAV<lambda_9c074eaf62197b4fd0274ed9e7824161>@@@Z 1005a7cc f i libucrt:putwch.obj
 0001:00059841       ??$__acrt_lock_and_call@V<lambda_6e3e78bb6855d1e4040e022c1b427e22>@@@@YAGW4__acrt_lock_id@@$$QAV<lambda_6e3e78bb6855d1e4040e022c1b427e22>@@@Z 1005a841 f i libucrt:putwch.obj
 0001:000598d9       __putwch                   1005a8d9 f   libucrt:putwch.obj
 0001:000598fd       __putwch_nolock            1005a8fd f   libucrt:putwch.obj
 0001:00059953       _nextafter                 1005a953 f   libucrt:nextafter.obj
 0001:00059979       ??1scoped_global_state_reset@__crt_state_management@@QAE@XZ 1005a979 f i libucrt:qsort.obj
 0001:00059a90       _qsort                     1005aa90 f   libucrt:qsort.obj
 0001:00059fed       _strncpy_s                 1005afed f   libucrt:strncpy_s.obj
 0001:0005a000       _strpbrk                   1005b000 f   libucrt:strpbrk.obj
 0001:0005a050       __mbsdec                   1005b050 f   libucrt:mbsdec.obj
 0001:0005a06c       __mbsdec_l                 1005b06c f   libucrt:mbsdec.obj
 0001:0005a12e       __wcsnicoll                1005b12e f   libucrt:wcsnicol.obj
 0001:0005a232       __wcsnicoll_l              1005b232 f   libucrt:wcsnicol.obj
 0001:0005a3aa       __strnicoll                1005b3aa f   libucrt:strnicol.obj
 0001:0005a3dd       __strnicoll_l              1005b3dd f   libucrt:strnicol.obj
 0001:0005a518       __msize                    1005b518 f   libucrt:msize.obj
 0001:0005a557       ___strncnt                 1005b557 f   libucrt:strncnt.obj
 0001:0005a6b3       ___acrt_GetLocaleInfoA     1005b6b3 f   libucrt:getlocaleinfoa.obj
 0001:0005a8d1       _fegetenv                  1005b8d1 f   libucrt:fegetenv.obj
 0001:0005a8f5       _fesetenv                  1005b8f5 f   libucrt:fesetenv.obj
 0001:0005a950       _feholdexcept              1005b950 f   libucrt:feholdexcept.obj
 0001:0005a9c0       _log10                     1005b9c0 f   libucrt:log10.obj
 0001:0005aa00       __CIlog10                  1005ba00 f   libucrt:log10.obj
 0001:0005aa3b       __CIlog10_default          1005ba3b f   libucrt:log10.obj
 0001:0005aa4f       __log10_default            1005ba4f     libucrt:log10.obj
 0001:0005ab70       _ceil                      1005bb70 f   libucrt:ceil_pentium4.obj
 0001:0005abb0       __ceil_pentium4            1005bbb0 f   libucrt:ceil_pentium4.obj
 0001:0005acd4       __wcsicmp                  1005bcd4 f   libucrt:wcsicmp.obj
 0001:0005ad8e       __wcsicmp_l                1005bd8e f   libucrt:wcsicmp.obj
 0001:0005aea6       __towlower_l               1005bea6 f   libucrt:towlower.obj
 0001:0005afa1       _towlower                  1005bfa1 f   libucrt:towlower.obj
 0001:0005afc0       ___ascii_strnicmp          1005bfc0 f   libucrt:_strnicm.obj
 0001:0005b039       ??$__crt_interlocked_read@H@@YAHPDH@Z 1005c039 f i libucrt:setmode.obj
 0001:0005b048       __get_fmode                1005c048 f   libucrt:setmode.obj
 0001:0005b07f       __set_fmode                1005c07f f   libucrt:setmode.obj
 0001:0005b0cb       __setmode                  1005c0cb f   libucrt:setmode.obj
 0001:0005b21c       __setmode_nolock           1005c21c f   libucrt:setmode.obj
 0001:0005b321       ??$?RV<lambda_4cfda81533ccf5a03113a1ca40a30445>@@AAV<lambda_1cffa78e445b1da5fba1a2e0e533226f>@@V<lambda_68c952aa1b860373b2109ef12d0bba9d>@@@?$__crt_seh_guarded_call@H@@QAEH$$QAV<lambda_4cfda81533ccf5a03113a1ca40a30445>@@AAV<lambda_1cffa78e445b1da5fba1a2e0e533226f>@@$$QAV<lambda_68c952aa1b860373b2109ef12d0bba9d>@@@Z 1005c321 f i libucrt:chsize.obj
 0001:0005b3cb       ??$__acrt_lowio_lock_fh_and_call@V<lambda_1cffa78e445b1da5fba1a2e0e533226f>@@@@YAHH$$QAV<lambda_1cffa78e445b1da5fba1a2e0e533226f>@@@Z 1005c3cb f i libucrt:chsize.obj
 0001:0005b4ad       __chsize                   1005c4ad f   libucrt:chsize.obj
 0001:0005b4d0       __chsize_nolock            1005c4d0 f   libucrt:chsize.obj
 0001:0005b6c5       __chsize_s                 1005c6c5 f   libucrt:chsize.obj
 0001:0005b786       __umask                    1005c786 f   libucrt:umask.obj
 0001:0005b7b4       __umask_s                  1005c7b4 f   libucrt:umask.obj
 0001:0005b7fd       ___dcrt_lowio_initialize_console_output 1005c7fd f   libucrt:initcon.obj
 0001:0005b823       ___dcrt_terminate_console_output 1005c823 f   libucrt:initcon.obj
 0001:0005b83f       _nexttoward                1005c83f f   libucrt:nexttoward.obj
 0001:0005b9f0       ___acrt_CompareStringW     1005c9f0 f   libucrt:comparestringw.obj
 0001:0005bdc4       ___acrt_CompareStringA     1005cdc4 f   libucrt:comparestringa.obj
 0001:0005be1e       ___acrt_fenv_get_fp_status_word_from_exception_mask 1005ce1e f   libucrt:_fenvutils.obj
 0001:0005c261       __getfpcontrolword         1005d261 f   libucrt:_fenvutils.obj
 0001:0005c2b4       __getfpstatusword          1005d2b4 f   libucrt:_fenvutils.obj
 0001:0005c386       __setfpcontrolword         1005d386 f   libucrt:_fenvutils.obj
 0001:0005c426       __setfpstatusword          1005d426 f   libucrt:_fenvutils.obj
 0001:0005c65c       ___control87_2             1005d65c f   libucrt:ieee87.obj
 0001:0005cc30       ___fpreset_sse2            1005dc30 f   libucrt:ieee87.obj
 0001:0005ce83       __clearfp                  1005de83 f   libucrt:ieee87.obj
 0001:0005cf98       __control87                1005df98 f   libucrt:ieee87.obj
 0001:0005d35a       __controlfp                1005e35a f   libucrt:ieee87.obj
 0001:0005d37a       __fpreset                  1005e37a f   libucrt:ieee87.obj
 0001:0005d477       __set_controlfp            1005e477 f   libucrt:ieee87.obj
 0001:0005d50d       __statusfp                 1005e50d f   libucrt:ieee87.obj
 0001:0005d5d0       __statusfp2                1005e5d0 f   libucrt:ieee87.obj
 0001:0005d64d       ___acrt_initialize_sse2    1005e64d f   libucrt:mathfcns.obj
 0001:0005d65f       __set_SSE2_enable          1005e65f f   libucrt:mathfcns.obj
 0001:0005d690       __CIlog10_pentium4         1005e690 f   libucrt:log10_pentium4.obj
 0001:0005d6a8       __log10_pentium4           1005e6a8     libucrt:log10_pentium4.obj
 0001:0005d9e1       __fFEXP                    1005e9e1     libucrt:87tran.obj
 0001:0005da38       __rtinfpopse               1005ea38     libucrt:87tran.obj
 0001:0005da3a       __rtinfnpopse              1005ea3a     libucrt:87tran.obj
 0001:0005da4a       __fFLN                     1005ea4a     libucrt:87tran.obj
 0001:0005daff       __rtinfpop                 1005eaff     libucrt:87tran.obj
 0001:0005db01       __rtinfnpop                1005eb01     libucrt:87tran.obj
 0001:0005db1e       __ffexpm1                  1005eb1e     libucrt:87tran.obj
 0001:0005dc50       __trandisp1                1005ec50 f   libucrt:87disp.obj
 0001:0005dcb7       __trandisp2                1005ecb7 f   libucrt:87disp.obj
 0001:0005dd43       __rttospopde               1005ed43     libucrt:87disp.obj
 0001:0005dd48       __rttospop                 1005ed48     libucrt:87disp.obj
 0001:0005dd4a       __rtnospop                 1005ed4a     libucrt:87disp.obj
 0001:0005dd4c       __rttosnpop                1005ed4c     libucrt:87disp.obj
 0001:0005dd4d       __rtnospopde               1005ed4d     libucrt:87disp.obj
 0001:0005dd54       __rtzeropop                1005ed54     libucrt:87disp.obj
 0001:0005dd56       __rtzeronpop               1005ed56     libucrt:87disp.obj
 0001:0005dd5b       __rtzerospop               1005ed5b     libucrt:87disp.obj
 0001:0005dd68       __rtonepop                 1005ed68     libucrt:87disp.obj
 0001:0005dd6a       __rtonenpop                1005ed6a     libucrt:87disp.obj
 0001:0005dd6f       __tosnan1                  1005ed6f     libucrt:87disp.obj
 0001:0005dd9a       __nosnan2                  1005ed9a     libucrt:87disp.obj
 0001:0005dd9c       __tosnan2                  1005ed9c     libucrt:87disp.obj
 0001:0005ddc4       __nan2                     1005edc4     libucrt:87disp.obj
 0001:0005de03       __rtindfpop                1005ee03     libucrt:87disp.obj
 0001:0005de05       __rtindfnpop               1005ee05     libucrt:87disp.obj
 0001:0005de16       __rttosnpopde              1005ee16     libucrt:87disp.obj
 0001:0005de20       __rtatan2inf               1005ee20     libucrt:87disp.obj
 0001:0005de3d       __rtchsifneg               1005ee3d     libucrt:87disp.obj
 0001:0005dec1       ___setfflag                1005eec1 f   libucrt:fp_flags.obj
 0001:0005dee0       __twoToTOS                 1005eee0 f   libucrt:common.obj
 0001:0005def5       __load_CW                  1005eef5 f   libucrt:common.obj
 0001:0005df0c       __convertTOStoQNaN         1005ef0c f   libucrt:common.obj
 0001:0005df25       __fload_withFB             1005ef25 f   libucrt:common.obj
 0001:0005df68       __checkTOS_withFB          1005ef68 f   libucrt:common.obj
 0001:0005df7e       __fast_exit                1005ef7e f   libucrt:common.obj
 0001:0005df8b       __math_exit                1005ef8b f   libucrt:common.obj
 0001:0005dfb5       __check_overflow_exit      1005efb5 f   libucrt:common.obj
 0001:0005dfc9       __check_range_exit         1005efc9 f   libucrt:common.obj
 0001:0005e0d0       __startTwoArgErrorHandling 1005f0d0 f   libucrt:genexcep.obj
 0001:0005e0e7       __startOneArgErrorHandling 1005f0e7 f   libucrt:genexcep.obj
 0001:0005e137       ___libm_error_support      1005f137 f   libucrt:libm_error.obj
 0001:0005e3d5       ___libm_setusermatherr     1005f3d5 f   libucrt:libm_error.obj
 0001:0005e40e       __ceil_default             1005f40e f   libucrt:ceil.obj
 0001:0005e4f5       ___acrt_LCMapStringW       1005f4f5 f   libucrt:lcmapstringw.obj
 0001:0005e542       ___p__fmode                1005f542 f   libucrt:txtmode.obj
 0001:0005e548       __d_int                    1005f548 f   libucrt:_test.obj
 0001:0005e690       __dtest                    1005f690 f   libucrt:_test.obj
 0001:0005e70d       __fd_int                   1005f70d f   libucrt:_test.obj
 0001:0005e80f       __fdtest                   1005f80f f   libucrt:_test.obj
 0001:0005e870       __fperrraise               1005f870 f   libucrt:_test.obj
 0001:0005e89b       __ld_int                   1005f89b f   libucrt:_test.obj
 0001:0005e8a8       __ldtest                   1005f8a8 f   libucrt:_test.obj
 0001:0005e94d       __controlfp_s              1005f94d f   libucrt:contrlfp.obj
 0001:0005e9c3       __d_inttype                1005f9c3 f   libucrt:powhlp.obj
 0001:0005ea47       __powhlp                   1005fa47 f   libucrt:powhlp.obj
 0001:0005ebbc       __87except                 1005fbbc f   libucrt:87except.obj
 0001:0005ed09       __frnd                     1005fd09 f   libucrt:frnd.obj
 0001:0005ed24       _fegetexceptflag           1005fd24 f   libucrt:fegetexceptflag.obj
 0001:0005ed61       _fesetexceptflag           1005fd61 f   libucrt:fesetexceptflag.obj
 0001:0005edc2       _fetestexcept              1005fdc2 f   libucrt:fetestexcept.obj
 0001:0005edf0       __FindPESection            1005fdf0 f   LIBCMT:pesect.obj
 0001:0005ee50       __IsNonwritableInCurrentImage 1005fe50 f   LIBCMT:pesect.obj
 0001:0005ef40       __ValidateImageBase        1005ff40 f   LIBCMT:pesect.obj
 0001:0005ef80       __aulldvrm                 1005ff80 f   LIBCMT:ulldvrm.obj
 0001:0005f03a       ??1type_info@@UAE@XZ       1006003a f   LIBCMT:std_type_info_static.obj
 0001:0005f041       ??_Etype_info@@UAEPAXI@Z   10060041 f i LIBCMT:std_type_info_static.obj
 0001:0005f041       ??_Gtype_info@@UAEPAXI@Z   10060041 f i LIBCMT:std_type_info_static.obj
 0001:0005f070       __SEH_prolog4_GS           10060070 f   LIBCMT:_sehprolg4gs_.obj
 0001:0005f0b9       __SEH_epilog4_GS           100600b9 f   LIBCMT:_sehprolg4gs_.obj
 0001:0005f0e0       __allmul                   100600e0 f   LIBCMT:llmul.obj
 0001:0005f130       __alldvrm                  10060130 f   LIBCMT:lldvrm.obj
 0001:0005f250       __aullshr                  10060250 f   LIBCMT:ullshr.obj
 0001:0005f280       __alloca_probe             10060280 f   LIBCMT:chkstk.obj
 0001:0005f280       __chkstk                   10060280 f   LIBCMT:chkstk.obj
 0001:0005f2c0       __alloca_probe_16          100602c0 f   LIBCMT:alloca16.obj
 0001:0005f2d6       __alloca_probe_8           100602d6     LIBCMT:alloca16.obj
 0001:0005f300       __allshl                   10060300 f   LIBCMT:llshl.obj
 0001:0005f330       __ftol2_sse                10060330 f   LIBCMT:_ftol2_.obj
 0001:0005f339       __ftol2_pentium4           10060339 f   LIBCMT:_ftol2_.obj
 0001:0005f34c       __ftol2_sse_excpt          1006034c f   LIBCMT:_ftol2_.obj
 0001:0005f370       __ftol2                    10060370 f   LIBCMT:_ftol2_.obj
 0001:0005f412       __initialize_default_precision 10060412 f   LIBCMT:default_precision.obj
 0001:0005f43b       ??3@YAXPAXI@Z              1006043b f   LIBCMT:delete_scalar_size.obj
 0001:0005f44c       ??3@YAXPAX@Z               1006044c f   LIBCMT:delete_scalar.obj
 0001:0005f452       _InterlockedPushEntrySList@8 10060452 f   kernel32:KERNEL32.dll
 0001:0005f458       _InterlockedFlushSList@4   10060458 f   kernel32:KERNEL32.dll
 0001:0005f45e       _RtlUnwind@16              1006045e f   kernel32:KERNEL32.dll
 0001:0005f464       _GetLastError@0            10060464 f   kernel32:KERNEL32.dll
 0001:0005f46a       _SetLastError@4            1006046a f   kernel32:KERNEL32.dll
 0001:0005f470       _EnterCriticalSection@4    10060470 f   kernel32:KERNEL32.dll
 0001:0005f476       _LeaveCriticalSection@4    10060476 f   kernel32:KERNEL32.dll
 0001:0005f47c       _DeleteCriticalSection@4   1006047c f   kernel32:KERNEL32.dll
 0001:0005f482       _InitializeCriticalSectionAndSpinCount@8 10060482 f   kernel32:KERNEL32.dll
 0001:0005f488       _TlsAlloc@0                10060488 f   kernel32:KERNEL32.dll
 0001:0005f48e       _TlsGetValue@4             1006048e f   kernel32:KERNEL32.dll
 0001:0005f494       _TlsSetValue@8             10060494 f   kernel32:KERNEL32.dll
 0001:0005f49a       _TlsFree@4                 1006049a f   kernel32:KERNEL32.dll
 0001:0005f4a0       _FreeLibrary@4             100604a0 f   kernel32:KERNEL32.dll
 0001:0005f4a6       _LoadLibraryExW@12         100604a6 f   kernel32:KERNEL32.dll
 0001:0005f4ac       _ExitProcess@4             100604ac f   kernel32:KERNEL32.dll
 0001:0005f4b2       _GetModuleHandleExW@12     100604b2 f   kernel32:KERNEL32.dll
 0001:0005f4b8       _GetStdHandle@4            100604b8 f   kernel32:KERNEL32.dll
 0001:0005f4be       _GetFileType@4             100604be f   kernel32:KERNEL32.dll
 0001:0005f4c4       _GetModuleFileNameA@12     100604c4 f   kernel32:KERNEL32.dll
 0001:0005f4ca       _GetModuleFileNameW@12     100604ca f   kernel32:KERNEL32.dll
 0001:0005f4d0       _WriteConsoleW@20          100604d0 f   kernel32:KERNEL32.dll
 0001:0005f4d6       _RaiseException@16         100604d6 f   kernel32:KERNEL32.dll
 0001:0005f4dc       _MultiByteToWideChar@24    100604dc f   kernel32:KERNEL32.dll
 0001:0005f4e2       _WideCharToMultiByte@32    100604e2 f   kernel32:KERNEL32.dll
 0001:0005f4e8       _HeapFree@12               100604e8 f   kernel32:KERNEL32.dll
 0001:0005f4ee       _HeapAlloc@12              100604ee f   kernel32:KERNEL32.dll
 0001:0005f4f4       _GetDateFormatW@24         100604f4 f   kernel32:KERNEL32.dll
 0001:0005f4fa       _GetTimeFormatW@24         100604fa f   kernel32:KERNEL32.dll
 0001:0005f500       _CompareStringW@24         10060500 f   kernel32:KERNEL32.dll
 0001:0005f506       _LCMapStringW@24           10060506 f   kernel32:KERNEL32.dll
 0001:0005f50c       _GetLocaleInfoW@16         1006050c f   kernel32:KERNEL32.dll
 0001:0005f512       _IsValidLocale@8           10060512 f   kernel32:KERNEL32.dll
 0001:0005f518       _GetUserDefaultLCID@0      10060518 f   kernel32:KERNEL32.dll
 0001:0005f51e       _EnumSystemLocalesW@8      1006051e f   kernel32:KERNEL32.dll
 0001:0005f524       _GetCurrentThread@0        10060524 f   kernel32:KERNEL32.dll
 0001:0005f52a       _GetACP@0                  1006052a f   kernel32:KERNEL32.dll
 0001:0005f530       _HeapReAlloc@16            10060530 f   kernel32:KERNEL32.dll
 0001:0005f536       _CloseHandle@4             10060536 f   kernel32:KERNEL32.dll
 0001:0005f53c       _ReadFile@20               1006053c f   kernel32:KERNEL32.dll
 0001:0005f542       _GetConsoleMode@8          10060542 f   kernel32:KERNEL32.dll
 0001:0005f548       _ReadConsoleW@20           10060548 f   kernel32:KERNEL32.dll
 0001:0005f54e       _WriteFile@20              1006054e f   kernel32:KERNEL32.dll
 0001:0005f554       _GetConsoleCP@0            10060554 f   kernel32:KERNEL32.dll
 0001:0005f55a       _DeleteFileW@4             1006055a f   kernel32:KERNEL32.dll
 0001:0005f560       _SetFilePointerEx@20       10060560 f   kernel32:KERNEL32.dll
 0001:0005f566       _OutputDebugStringA@4      10060566 f   kernel32:KERNEL32.dll
 0001:0005f56c       _OutputDebugStringW@4      1006056c f   kernel32:KERNEL32.dll
 0001:0005f572       _WaitForSingleObjectEx@12  10060572 f   kernel32:KERNEL32.dll
 0001:0005f578       _CreateThread@24           10060578 f   kernel32:KERNEL32.dll
 0001:0005f57e       _SetConsoleCtrlHandler@8   1006057e f   kernel32:KERNEL32.dll
 0001:0005f584       _FindClose@4               10060584 f   kernel32:KERNEL32.dll
 0001:0005f58a       _FindFirstFileExA@24       1006058a f   kernel32:KERNEL32.dll
 0001:0005f590       _FindFirstFileExW@24       10060590 f   kernel32:KERNEL32.dll
 0001:0005f596       _FindNextFileA@8           10060596 f   kernel32:KERNEL32.dll
 0001:0005f59c       _FindNextFileW@8           1006059c f   kernel32:KERNEL32.dll
 0001:0005f5a2       _IsValidCodePage@4         100605a2 f   kernel32:KERNEL32.dll
 0001:0005f5a8       _GetOEMCP@0                100605a8 f   kernel32:KERNEL32.dll
 0001:0005f5ae       _GetCPInfo@8               100605ae f   kernel32:KERNEL32.dll
 0001:0005f5b4       _GetCommandLineA@0         100605b4 f   kernel32:KERNEL32.dll
 0001:0005f5ba       _GetCommandLineW@0         100605ba f   kernel32:KERNEL32.dll
 0001:0005f5c0       _GetEnvironmentStringsW@0  100605c0 f   kernel32:KERNEL32.dll
 0001:0005f5c6       _FreeEnvironmentStringsW@4 100605c6 f   kernel32:KERNEL32.dll
 0001:0005f5cc       _SetEnvironmentVariableA@8 100605cc f   kernel32:KERNEL32.dll
 0001:0005f5d2       _SetEnvironmentVariableW@8 100605d2 f   kernel32:KERNEL32.dll
 0001:0005f5d8       _GetProcessHeap@0          100605d8 f   kernel32:KERNEL32.dll
 0001:0005f5de       _GetStringTypeW@16         100605de f   kernel32:KERNEL32.dll
 0001:0005f5e4       _FlushFileBuffers@4        100605e4 f   kernel32:KERNEL32.dll
 0001:0005f5ea       _SetStdHandle@8            100605ea f   kernel32:KERNEL32.dll
 0001:0005f5f0       _CreateFileW@28            100605f0 f   kernel32:KERNEL32.dll
 0001:0005f5f6       _HeapSize@12               100605f6 f   kernel32:KERNEL32.dll
 0001:0005f5fc       _SetEndOfFile@4            100605fc f   kernel32:KERNEL32.dll
 0001:0005f602       _EncodePointer@4           10060602 f   kernel32:KERNEL32.dll
 0001:0005f608       _DecodePointer@4           10060608 f   kernel32:KERNEL32.dll
 0001:0005f610       _strrchr                   10060610 f   libvcruntime:strrchr.obj
 0001:0005f8f7       _memcmp                    100608f7 f   libvcruntime:_memcmp_.obj
 0001:000633df       _wcschr                    100643df f   libvcruntime:wcschr.obj
 0002:00000000       ___xc_a                    10065000     LIBCMT:initializers.obj
 0002:00000104       ___xc_z                    10065104     LIBCMT:initializers.obj
 0002:00000208       ___xi_a                    10065208     LIBCMT:initializers.obj
 0002:0000030c       ___acrt_stdio_initializer  1006530c     libucrt:stdio_initializer.obj
 0002:00000310       ___acrt_multibyte_initializer 10065310     libucrt:multibyte_initializer.obj
 0002:00000314       ___acrt_tran_sse2_initializer 10065314     libucrt:sse2_initializer.obj
 0002:0000041c       ___xi_z                    1006541c     LIBCMT:initializers.obj
 0002:00000520       ___xp_a                    10065520     LIBCMT:initializers.obj
 0002:00000624       ___acrt_locale_terminator  10065624     libucrt:locale_initializer.obj
 0002:00000628       ___dcrt_console_output_terminator 10065628     libucrt:console_output_initializer.obj
 0002:00000730       ___acrt_stdio_terminator   10065730     libucrt:stdio_initializer.obj
 0002:00000834       ___xp_z                    10065834     LIBCMT:initializers.obj
 0002:00000938       ___xt_a                    10065938     LIBCMT:initializers.obj
 0002:00000a3c       ___xt_z                    10065a3c     LIBCMT:initializers.obj
 0002:00000b40       ??_C@_08INHBMDAJ@Setpoint?$AA@ 10065b40     proj3.obj
 0002:00000b4c       ??_C@_0N@HEKJLKAN@Error?5Signal?$AA@ 10065b4c     proj3.obj
 0002:00000b5c       ??_C@_0P@HGGDJAMI@Motor?5Position?$AA@ 10065b5c     proj3.obj
 0002:00000b70       ??_C@_0BD@MHFOBIJC@proj3?1setpoint_Out?$AA@ 10065b70     proj3.obj
 0002:00000b88       ??_C@_0BG@EAOPOPIE@proj3?1errorSignal_Out?$AA@ 10065b88     proj3.obj
 0002:00000ba4       ??_C@_0BD@MJFCFGIA@proj3?1motorPos_Out?$AA@ 10065ba4     proj3.obj
 0002:00000bc0       _proj3_M                   10065bc0     proj3.obj
 0002:00000c3c       ??_C@_0BI@PEBACBDB@Error?5creating?5scope?53?6?$AA@ 10065c3c     proj3.obj
 0002:00000c58       ??_C@_07PFAGFFFO@Gain?1s1?$AA@ 10065c58     proj3.obj
 0002:00000c64       ??_C@_07NOCLAGJN@Gain?1s2?$AA@ 10065c64     proj3.obj
 0002:00000c70       ??_C@_07MHDADHNM@Gain?1s3?$AA@ 10065c70     proj3.obj
 0002:00000c7c       ??_C@_0BG@HCGNMBDA@Setpoint?5?5?5?5?5?5?5?5?$CF3?42f?$AA@ 10065c7c     proj3.obj
 0002:00000c98       ??_C@_0BG@KBNMBNLJ@Motor?5Position?5?5?$CF3?42f?$AA@ 10065c98     proj3.obj
 0002:00000cb4       ??_C@_0BG@OKNLFNOK@Error?5Signal?5?5?5?5?$CF3?42f?$AA@ 10065cb4     proj3.obj
 0002:00000cd0       ??_C@_0BI@PFNCELAG@Error?5creating?5scope?52?6?$AA@ 10065cd0     proj3.obj
 0002:00000cec       ??_C@_04JMNNLCJG@Sum1?$AA@ 10065cec     proj3.obj
 0002:00000cf4       ??_C@_0BI@PDBJIJON@Error?5creating?5scope?57?6?$AA@ 10065cf4     proj3.obj
 0002:00000d10       ??_C@_0BF@IJDKOOBM@switching?5logic?1Sum2?$AA@ 10065d10     proj3.obj
 0002:00000d2c       ??_C@_0BI@PHJEPFFP@Error?5creating?5scope?51?6?$AA@ 10065d2c     proj3.obj
 0002:00000d48       ??_C@_04CNCNIFFP@gain?$AA@ 10065d48     proj3.obj
 0002:00000d50       ??_C@_04CMIMOENB@ode3?$AA@ 10065d50     proj3.obj
 0002:00000d58       ??_C@_04EPKDLPPB@tout?$AA@ 10065d58     proj3.obj
 0002:00000d5e       ??_C@_00CNPNBAHC@?$AA@     10065d5e     proj3.obj
 0002:00000d60       ??_C@_03HBFGMJOD@rt_?$AA@  10065d60     proj3.obj
 0002:00000d64       ??_C@_04LHDDHLEA@yout?$AA@ 10065d64     proj3.obj
 0002:00000d6c       ??_C@_0BO@FGDALDHL@Channel?50?5of?5?6Encoder?5Inputs?5?$AA@ 10065d6c     proj3.obj
 0002:00000d90       ??_C@_0CP@OFBFDMEM@proj3?1Real?5motor?1Channel?50?5of?5?5E@ 10065d90     proj3.obj
 0002:00000dc8       ??_C@_0DH@LFMGCAGH@Channel?50?5?9Control?5signal?5to?5?6mo@ 10065dc8     proj3.obj
 0002:00000e10       ??_C@_0EI@IKHHAHJI@proj3?1Real?5motor?1Channel?50?5?9Cont@ 10065e10     proj3.obj
 0002:00000e68       __real@3f50624dd2f1a9fc    10065e68     proj3.obj
 0002:00000e78       __real@3fcc71c71c71c71c    10065e78     proj3.obj
 0002:00000e88       __real@3fd5555555555555    10065e88     proj3.obj
 0002:00000e98       __real@3fdc71c71c71c71c    10065e98     proj3.obj
 0002:00000ea8       __real@3fe0000000000000    10065ea8     proj3.obj
 0002:00000eb8       __real@3fe8000000000000    10065eb8     proj3.obj
 0002:00000ec8       __real@4008000000000000    10065ec8     proj3.obj
 0002:00000ed8       __real@4024000000000000    10065ed8     proj3.obj
 0002:00000ee8       __real@4065400000000000    10065ee8     proj3.obj
 0002:00000ef8       __real@4066800000000000    10065ef8     proj3.obj
 0002:00000f08       __real@4069000000000000    10065f08     proj3.obj
 0002:00000f18       __real@407f400000000000    10065f18     proj3.obj
 0002:00000f28       __real@41f0000000000000    10065f28     proj3.obj
 0002:00000f38       __real@bff0000000000000    10065f38     proj3.obj
 0002:00000f48       __real@c066800000000000    10065f48     proj3.obj
 0002:00000f60       __xmm@000000530000001f0000002800000002 10065f60     proj3.obj
 0002:00000f80       __xmm@3f50624dd2f1a9fc0000000000000000 10065f80     proj3.obj
 0002:00000fa0       __xmm@41f00000000000000000000000000000 10065fa0     proj3.obj
 0002:00000fb8       __real@3cb0000000000000    10065fb8     rt_matrx.obj
 0002:00000fc8       __real@3ff0000000000000    10065fc8     rt_matrx.obj
 0002:00001838       ??_C@_0DJ@FHKINPLE@Unexpected?5itemKind?5?$DN?5DATA_ITEM?5@ 10066838     rt_logging.obj
 0002:0000187c       ??_C@_0DA@IEHFPFCJ@Unexpected?5itemKind?$DN?$CFd?5in?5rt_Pro@ 1006687c     rt_logging.obj
 0002:000018b8       ??_C@_0DA@IFLHJPBO@Unexpected?5itemKind?$DN?$CFd?5in?5rt_Pro@ 100668b8     rt_logging.obj
 0002:000018f4       ??_C@_0DA@IAPIIJJL@Unexpected?5itemKind?$DN?$CFd?5in?5rt_Pro@ 100668f4     rt_logging.obj
 0002:00001930       ??_C@_0BE@LCIGPJIG@MATLAB?55?40?5MAT?9file?$AA@ 10066930     rt_logging.obj
 0002:00001948       ??_C@_0FB@PCJEAJIB@?$CK?$CK?$CK?5Log?5variable?5?$CFs?5has?5wrapped?5@ 10066948     rt_logging.obj
 0002:000019b0       ??_C@_0MG@NKMLMOGF@?$CK?$CK?$CK?5To?5avoid?5wrapping?0?5explicitl@ 100669b0     rt_logging.obj
 0002:00001aa0       ??_C@_0N@IPAEOLLP@_rtw_tmw?4tmw?$AA@ 10066aa0     rt_logging.obj
 0002:00001ab0       ??_C@_04HDOCAJNK@?$CFs?$CFs?$AA@ 10066ab0     rt_logging.obj
 0002:00001ab8       ??_C@_03ELIABIOC@w?$CLb?$AA@ 10066ab8     rt_logging.obj
 0002:00001abc       ??_C@_0BF@JPILDDFA@?$CK?$CK?$CK?5Error?5opening?5?$CFs?$AA@ 10066abc     rt_logging.obj
 0002:00001ad8       ??_C@_0BK@EEMDELA@unable?5to?5open?5data?5file?6?$AA@ 10066ad8     rt_logging.obj
 0002:00001af8       ??_C@_04CGFJFPFD@none?$AA@ 10066af8     rt_logging.obj
 0002:00001b00       ??_C@_0EE@LCGFPNON@?$CK?$CK?$CK?5Error?5creating?5signals?5struc@ 10066b00     rt_logging.obj
 0002:00001b54       ??_C@_0CE@NHECEDMK@?$CK?$CK?$CK?5Error?5creating?5log?5variable?5@ 10066b54     rt_logging.obj
 0002:00001b80       ??_C@_0DB@IOCGKAGH@?$CK?$CK?$CK?5Errors?5occurred?5when?5startin@ 10066b80     rt_logging.obj
 0002:00001bbc       ??_C@_0BO@BBLOGEBK@?$CK?$CK?$CK?5Memory?5allocation?5error?4?6?$AA@ 10066bbc     rt_logging.obj
 0002:00001be0       ??_C@_0N@LGFBAGEL@?5?$CIreal?5part?$CJ?$AA@ 10066be0     rt_logging.obj
 0002:00001bf0       ??_C@_0KH@CGNMHNFE@?5?5?5?5varName?5?5?5?5?5?5?5?5?5?5?$DN?5?$CFs?$CFs?6?5?5?5?5@ 10066bf0     rt_logging.obj
 0002:00001cb8       ??_C@_0LE@OALKKEFM@?5?5?5?5varName?5?5?5?5?5?5?5?5?5?5?$DN?5?$CFs?5?$CIcompl@ 10066cb8     rt_logging.obj
 0002:00001d90       ??_C@_0KF@JDDLEOKO@?5?5?5?5varName?5?5?5?5?5?5?5?5?5?5?$DN?5?$CFs?6?5?5?5?5nR@ 10066d90     rt_logging.obj
 0002:00001e58       ??_C@_0DP@HPDMIOFM@?$CK?$CK?$CK?5Using?5a?5default?5buffer?5of?5si@ 10066e58     rt_logging.obj
 0002:00001ea8       ??_C@_0KE@JEFOLKNF@?6?$CK?$CK?$CK?5Memory?5required?5to?5log?5vari@ 10066ea8     rt_logging.obj
 0002:00001f70       ??_C@_0JP@DKLMHCBI@?$CK?$CK?$CK?5Details?3?6?5?5?5?5?5?5?5varName?5?5?5?5?5@ 10066f70     rt_logging.obj
 0002:00002030       ??_C@_0CM@CAMILBED@?$CK?$CK?$CK?5Error?5allocating?5memory?5for?5@ 10067030     rt_logging.obj
 0002:00002064       ??_C@_0DF@BBCNMOPM@?$CK?$CK?$CK?5Error?5allocating?5memory?5for?5@ 10067064     rt_logging.obj
 0002:000020a8       ??_C@_0JP@DBCLPCCI@?$CK?$CK?$CK?5Details?3?6?5?5?5?5?5?5?5varName?5?5?5?5?5@ 100670a8     rt_logging.obj
 0002:00002168       ??_C@_0FK@DPGAOBGA@?$CK?$CK?$CK?5Error?5allocating?5memory?5for?5@ 10067168     rt_logging.obj
 0002:000021d4       ??_C@_0BI@GGDNPHLJ@?$CK?$CK?$CK?5Error?5writing?5to?5?$CFs?$AA@ 100671d4     rt_logging.obj
 0002:000021f0       ??_C@_0CB@IBGJGELG@?$CK?$CK?$CK?5Error?5writing?5?$CFs?5due?5to?3?5?$CFs?6@ 100671f0     rt_logging.obj
 0002:00002218       ??_C@_0CN@FLMCHCPB@?$CK?$CK?$CK?5Error?5writing?5log?5variable?5?$CF@ 10067218     rt_logging.obj
 0002:00002250       ??_C@_0DH@GAJCNOJP@?$CK?$CK?$CK?5Error?5writing?5structure?5log?5@ 10067250     rt_logging.obj
 0002:00002294       ??_C@_0BD@POEALECL@?$CK?$CK?5created?5?$CFs?5?$CK?$CK?6?6?$AA@ 10067294     rt_logging.obj
 0002:000022b0       __real@0000000000000000    100672b0     rt_logging.obj
 0002:000022c0       __real@4020000000000000    100672c0     rt_logging.obj
 0002:000022d0       __real@41dfffffffc00000    100672d0     rt_logging.obj
 0002:000022e0       __real@41efffffffe00000    100672e0     rt_logging.obj
 0002:000022f0       __real@4330000000000000    100672f0     rt_logging.obj
 0002:00002300       __real@8000000000000000    10067300     rt_logging.obj
 0002:00002310       __real@bfbf9add3afd2773    10067310     rt_logging.obj
 0002:00002320       __real@c000000000000000    10067320     rt_logging.obj
 0002:00002330       __xmm@20202020202020202020202020202020 10067330     rt_logging.obj
 0002:00002c40       ??_C@_0CL@DBFIMAMP@1?5?9?5Use?5simulated?5motor?50?5?9?5Use?5@ 10067c40     proj3_capi.obj
 0002:00002c74       ??_C@_0M@BBMKJJKL@Derivative1?$AA@ 10067c74     proj3_capi.obj
 0002:00002c84       ??_C@_04OMOMKKFL@Gain?$AA@ 10067c84     proj3_capi.obj
 0002:00002c8c       ??_C@_02HNOAOKGP@Kd?$AA@   10067c8c     proj3_capi.obj
 0002:00002c90       ??_C@_02MIEOJECC@Ki?$AA@   10067c90     proj3_capi.obj
 0002:00002c94       ??_C@_02FDEODNDK@Kp?$AA@   10067c94     proj3_capi.obj
 0002:00002c98       ??_C@_0M@FOFKEGEP@Integrator1?$AA@ 10067c98     proj3_capi.obj
 0002:00002ca8       ??_C@_04OBKKEGND@Sum4?$AA@ 10067ca8     proj3_capi.obj
 0002:00002cb0       ??_C@_0EN@BAAEGADN@Real?5motor?1angular_position?5?$DN?5?5?$FL@ 10067cb0     proj3_capi.obj
 0002:00002d0c       ??_C@_0BG@IEJBBPNL@Real?5motor?1Saturation?$AA@ 10067d0c     proj3_capi.obj
 0002:00002d28       ??_C@_0CJ@GBFCCONM@Real?5motor?1Channel?50?5of?5?5Encoder@ 10067d28     proj3_capi.obj
 0002:00002d5c       ??_C@_0BN@JFKEALAE@Simulated?5motor?1Back?5emf?5Ke1?$AA@ 10067d5c     proj3_capi.obj
 0002:00002d80       ??_C@_0BL@JFAIANOE@Simulated?5motor?1Damping?5b1?$AA@ 10067d80     proj3_capi.obj
 0002:00002da0       ??_C@_0BJ@JADIAMI@Simulated?5motor?1Gain?5Kt2?$AA@ 10067da0     proj3_capi.obj
 0002:00002dc0       ??_C@_0BJ@BABILBIJ@Simulated?5motor?1Gain?5Kt3?$AA@ 10067dc0     proj3_capi.obj
 0002:00002de0       ??_C@_0BL@GGHHPFCL@Simulated?5motor?1Inductance?$AA@ 10067de0     proj3_capi.obj
 0002:00002e00       ??_C@_0BO@KPGEGBOH@Simulated?5motor?1Resistance?5R1?$AA@ 10067e00     proj3_capi.obj
 0002:00002e24       ??_C@_0BM@HPJMPEDA@Simulated?5motor?1Integrator1?$AA@ 10067e24     proj3_capi.obj
 0002:00002e48       ??_C@_0BM@BLPADBDE@Simulated?5motor?1Integrator5?$AA@ 10067e48     proj3_capi.obj
 0002:00002e6c       ??_C@_0BM@DANNGCPH@Simulated?5motor?1Integrator6?$AA@ 10067e6c     proj3_capi.obj
 0002:00002e90       ??_C@_0BF@MILJHLKE@Simulated?5motor?1Sum1?$AA@ 10067e90     proj3_capi.obj
 0002:00002eac       ??_C@_0BF@ODJECIGH@Simulated?5motor?1Sum2?$AA@ 10067eac     proj3_capi.obj
 0002:00002ec8       ??_C@_0DA@JPBADGKG@input?5side?5switching?5logic?1compl@ 10067ec8     proj3_capi.obj
 0002:00002f04       ??_C@_0CD@MBHAIBOH@input?5side?5switching?5logic?1Produ@ 10067f04     proj3_capi.obj
 0002:00002f30       ??_C@_0CE@PIPCAAOI@input?5side?5switching?5logic?1Produ@ 10067f30     proj3_capi.obj
 0002:00002f5c       ??_C@_0CG@LEACHJAL@switching?5logic?1complement?5the?5i@ 10067f5c     proj3_capi.obj
 0002:00002f8c       ??_C@_0BJ@NAFHJMMA@switching?5logic?1Product2?$AA@ 10067f8c     proj3_capi.obj
 0002:00002fac       ??_C@_0BJ@MJEMKNIB@switching?5logic?1Product3?$AA@ 10067fac     proj3_capi.obj
 0002:00002fcc       ??_C@_05LPIJGKJ@Value?$AA@ 10067fcc     proj3_capi.obj
 0002:00002fd4       ??_C@_05LEOPCKHL@myVar?$AA@ 10067fd4     proj3_capi.obj
 0002:00002fdc       ??_C@_0BB@CFEOEMDC@InitialCondition?$AA@ 10067fdc     proj3_capi.obj
 0002:00002ff0       ??_C@_0L@FBCGKKEN@UpperLimit?$AA@ 10067ff0     proj3_capi.obj
 0002:00003000       ??_C@_0L@DGFJOHKP@LowerLimit?$AA@ 10068000     proj3_capi.obj
 0002:00003010       ??_C@_0EC@LJCFPBCG@Real?5motor?1Channel?50?5?9Control?5si@ 10068010     proj3_capi.obj
 0002:00003060       ??_C@_02KKFPAPOP@P1?$AA@   10068060     proj3_capi.obj
 0002:00003064       ??_C@_02IBHCFMCM@P2?$AA@   10068064     proj3_capi.obj
 0002:00003068       ??_C@_02JIGJGNGN@P3?$AA@   10068068     proj3_capi.obj
 0002:0000306c       ??_C@_02NHCIPLKK@P4?$AA@   1006806c     proj3_capi.obj
 0002:00003070       ??_C@_02MODDMKOL@P5?$AA@   10068070     proj3_capi.obj
 0002:00003074       ??_C@_02OFBOJJCI@P6?$AA@   10068074     proj3_capi.obj
 0002:00003078       ??_C@_02PMAFKIGJ@P7?$AA@   10068078     proj3_capi.obj
 0002:0000307c       ??_C@_02HLJNLEKG@P8?$AA@   1006807c     proj3_capi.obj
 0002:00003080       ??_C@_02GCIGIFOH@P9?$AA@   10068080     proj3_capi.obj
 0002:00003084       ??_C@_03OPFJJGBF@P10?$AA@  10068084     proj3_capi.obj
 0002:00003088       ??_C@_03PGECKHFE@P11?$AA@  10068088     proj3_capi.obj
 0002:0000308c       ??_C@_03NNGPPEJH@P12?$AA@  1006808c     proj3_capi.obj
 0002:00003090       ??_C@_06BNJCAIGJ@double?$AA@ 10068090     proj3_capi.obj
 0002:00003098       ??_C@_06CNMIJIPB@real_T?$AA@ 10068098     proj3_capi.obj
 0002:000030a0       ??_C@_0O@PPAIJIHF@unsigned?5char?$AA@ 100680a0     proj3_capi.obj
 0002:000030b0       ??_C@_09JBMFCIMO@boolean_T?$AA@ 100680b0     proj3_capi.obj
 0002:000030bc       ??_C@_05KNFBNCOH@float?$AA@ 100680bc     proj3_capi.obj
 0002:000030c4       ??_C@_0DL@PGGFBBLM@Error?3?5task?5ID?5?$CFd?5is?5out?5of?5rang@ 100680c4     proj3_xcp_TET.obj
 0002:00003110       __real@3e112e0be826d695    10068110     proj3_xcp_TET.obj
 0002:00003120       __real@3f847ae147ae147b    10068120     proj3_xcp_TET.obj
 0002:00003130       __real@3fefae147ae147ae    10068130     proj3_xcp_TET.obj
 0002:0000313c       _serialfifoground          1006813c     xpc_datatype_ground.obj
 0002:00003148       _bcmsg1553ground           10068148     xpc_datatype_ground.obj
 0002:00003158       _bcstatground              10068158     xpc_datatype_ground.obj
 0002:00003170       _bmmsg1553ground           10068170     xpc_datatype_ground.obj
 0002:000031ac       ??_C@_0BI@INNPNFJN@Memory?5Allocation?5Error?$AA@ 100681ac     rtw_modelmap_utils.obj
 0002:000031c8       ??_C@_1HC@FPPMHEFB@?$AAC?$AA?3?$AA?2?$AAP?$AAR?$AAO?$AAG?$AAR?$AAA?$AA?$HO?$AA1?$AA?2?$AAM?$AAA?$AAT?$AAL?$AAA?$AAB?$AA?2?$AAR?$AA2?$AA0?$AA1?$AA7?$AAb?$AA?2?$AAr?$AAt?$AAw?$AA?2?$AAc?$AA?2@ 100681c8     rtw_modelmap_utils.obj
 0002:00003250       ??_C@_1CI@OEAJCJND@?$AAj?$AA?5?$AA?$DN?$AA?$DN?$AA?5?$AAe?$AAn?$AAc?$AAo?$AAd?$AAe?$AAd?$AAP?$AAa?$AAt?$AAh?$AAL?$AAe?$AAn?$AA?$AA@ 10068250     rtw_modelmap_utils.obj
 0002:00003280       ??_C@_1DC@NFAOIFKB@?$AAe?$AAn?$AAc?$AAo?$AAd?$AAe?$AAd?$AAP?$AAa?$AAt?$AAh?$AA?$FL?$AAj?$AA?9?$AA1?$AA?$FN?$AA?5?$AA?$DN?$AA?$DN?$AA?5?$AA?8?$AA?2?$AA0?$AA?8?$AA?$AA@ 10068280     rtw_modelmap_utils.obj
 0002:000032bc       ??_C@_1DI@FLNJGPEE@?$AAs?$AAi?$AAg?$AAC?$AAo?$AAm?$AAp?$AAl?$AAe?$AAx?$AAi?$AAt?$AAy?$AA?$FL?$AA?$CK?$AAs?$AAi?$AAg?$AAI?$AAd?$AAx?$AA?$FN?$AA?5?$AA?$CB?$AA?$DN?$AA?5?$AA1?$AA?$AA@ 100682bc     rtw_modelmap_utils.obj
 0002:00003300       ??_C@_1KI@OFELMGBG@?$AA?$CI?$AA?$CI?$AA?$CI?$AAd?$AAa?$AAt?$AAa?$AAT?$AAy?$AAp?$AAe?$AAM?$AAa?$AAp?$AA?$CJ?$AA?$FL?$AA?$CI?$AA?$CI?$AA?$CI?$AAs?$AAt?$AAa?$AAt?$AAe?$AAs?$AA?$CJ?$AA?$FL?$AA?$CI?$AAi?$AA?$CJ?$AA?$FN?$AA?4@ 10068300     rtw_modelmap_utils.obj
 0002:000033cc       ??_C@_1DA@ILCMPHNE@?$AAf?$AAu?$AAl?$AAl?$AAP?$AAa?$AAt?$AAh?$AA?5?$AA?$CB?$AA?$DN?$AA?5?$AA?$CI?$AA?$CI?$AAv?$AAo?$AAi?$AAd?$AA?5?$AA?$CK?$AA?$CJ?$AA0?$AA?$CJ?$AA?$AA@ 100683cc     rtw_modelmap_utils.obj
 0002:00003408       ??_C@_1CI@OEPPFCCA@?$AAp?$AAa?$AAt?$AAh?$AA?5?$AA?$CB?$AA?$DN?$AA?5?$AA?$CI?$AA?$CI?$AAv?$AAo?$AAi?$AAd?$AA?5?$AA?$CK?$AA?$CJ?$AA0?$AA?$CJ?$AA?$AA@ 10068408     rtw_modelmap_utils.obj
 0002:00003438       ??_C@_1FK@GLJIMFHB@?$AA?$CI?$AA?$CI?$AAm?$AAm?$AAi?$AA?$CJ?$AA?9?$AA?$DO?$AAI?$AAn?$AAs?$AAt?$AAa?$AAn?$AAc?$AAe?$AAM?$AAa?$AAp?$AA?4?$AAf?$AAu?$AAl?$AAl?$AAP?$AAa?$AAt?$AAh?$AA?$CJ?$AA?5?$AA?$DN?$AA?$DN@ 10068438     rtw_modelmap_utils.obj
 0002:000034a4       ??_C@_1DG@HPCJGNCE@?$AAm?$AAm?$AAi?$AAP?$AAa?$AAt?$AAh?$AA?$FL?$AAp?$AAa?$AAt?$AAh?$AAL?$AAe?$AAn?$AA?9?$AA1?$AA?$FN?$AA?5?$AA?$DN?$AA?$DN?$AA?5?$AA?8?$AA?2?$AA0?$AA?8?$AA?$AA@ 100684a4     rtw_modelmap_utils.obj
 0002:000034e4       ??_C@_1DM@DBAOGGOO@?$AAm?$AAm?$AAi?$AAP?$AAa?$AAt?$AAh?$AA?$FL?$AAm?$AAm?$AAi?$AAP?$AAa?$AAt?$AAh?$AAL?$AAe?$AAn?$AA?9?$AA1?$AA?$FN?$AA?5?$AA?$DN?$AA?$DN?$AA?5?$AA?8?$AA?2?$AA0?$AA?8?$AA?$AA@ 100684e4     rtw_modelmap_utils.obj
 0002:0000352c       ??_C@_1DC@LHIAKAFE@?$AAb?$AAl?$AAo?$AAc?$AAk?$AAP?$AAa?$AAt?$AAh?$AA?5?$AA?$CB?$AA?$DN?$AA?5?$AA?$CI?$AA?$CI?$AAv?$AAo?$AAi?$AAd?$AA?5?$AA?$CK?$AA?$CJ?$AA0?$AA?$CJ?$AA?$AA@ 1006852c     rtw_modelmap_utils.obj
 0002:00003568       ??_C@_1GI@KIEJKPGC@?$AAf?$AAu?$AAl?$AAl?$AAS?$AAt?$AAa?$AAt?$AAe?$AAB?$AAl?$AAo?$AAc?$AAk?$AAP?$AAa?$AAt?$AAh?$AA?$FL?$AAf?$AAu?$AAl?$AAl?$AAS?$AAt?$AAa?$AAt?$AAe?$AAB?$AAl?$AAo?$AAc@ 10068568     rtw_modelmap_utils.obj
 0002:000035e8       ??_C@_1EE@DNPIBJHC@?$AA?$CI?$AA?$CI?$AAd?$AAi?$AAm?$AAM?$AAa?$AAp?$AA?$CJ?$AA?$FL?$AA?$CI?$AAm?$AAa?$AAp?$AAI?$AAd?$AAx?$AA?$CJ?$AA?$FN?$AA?4?$AAn?$AAu?$AAm?$AAD?$AAi?$AAm?$AAs?$AA?$CJ?$AA?5?$AA?$DN?$AA?$DN?$AA?5@ 100685e8     rtw_modelmap_utils.obj
 0002:0000363c       ??_C@_06JFOKFOED@CSTATE?$AA@ 1006863c     rtw_modelmap_utils.obj
 0002:00003644       ??_C@_06FAENGAMN@DSTATE?$AA@ 10068644     rtw_modelmap_utils.obj
 0002:0000364c       ??_C@_1BI@LEBJNOGG@?$AAc?$AAs?$AAv?$AAI?$AAd?$AAx?$AA?5?$AA?$DO?$AA?$DN?$AA?5?$AA0?$AA?$AA@ 1006864c     rtw_modelmap_utils.obj
 0002:00003668       ??_C@_1BA@KDMGHCHP@?$AAT?$AAI?$AAD?$AA?$DN?$AA?$DN?$AA?9?$AA1?$AA?$AA@ 10068668     rtw_modelmap_utils.obj
 0002:0000367c       ??_C@_1DM@DHGKBPCE@?$AAs?$AAi?$AAg?$AAP?$AAa?$AAt?$AAh?$AA?$FL?$AAs?$AAi?$AAg?$AAP?$AAa?$AAt?$AAh?$AAL?$AAe?$AAn?$AA?9?$AA1?$AA?$FN?$AA?5?$AA?$DN?$AA?$DN?$AA?5?$AA?8?$AA?2?$AA0?$AA?8?$AA?$AA@ 1006867c     rtw_modelmap_utils.obj
 0002:000036c4       _ptsetfilename             100686c4     xpctarget.obj
 0002:000036c8       _xmlfile                   100686c8     xpctarget.obj
 0002:000036d0       ??_C@_05BEGDCMKB@proj3?$AA@ 100686d0     xpctarget.obj
 0002:000036d8       ??_C@_03KJCPEMEA@6?47?$AA@ 100686d8     xpctarget.obj
 0002:000036e0       __real@3fb999999999999a    100686e0     xpctarget.obj
 0002:000036f0       __real@408f400000000000    100686f0     xpctarget.obj
 0002:00003700       _proj3_BIOMAP              10068700     appmappingData.obj
 0002:00003880       _proj3_LBLMAP              10068880     appmappingData.obj
 0002:00003a00       _proj3_SIDMAP              10068a00     appmappingData.obj
 0002:00003b80       _proj3_SBIO                10068b80     appmappingData.obj
 0002:00003c00       _proj3_SLBL                10068c00     appmappingData.obj
 0002:00003c80       _proj3_PTIDSMAP            10068c80     appmappingData.obj
 0002:00003dd0       _proj3_PTNAMESMAP          10068dd0     appmappingData.obj
 0002:00003f20       _proj3_SPTMAP              10068f20     appmappingData.obj
 0002:00003fc8       _proj3_dtmap               10068fc8     appmappingData.obj
 0002:00003fe0       _appInfo                   10068fe0     appmappingData.obj
 0002:00004204       ??_C@_0CC@FIFFDAB@?$CFd?5input?5args?5expected?0?5?$CFd?5passe@ 10069204     daquanserq8.obj
 0002:0000422c       ??_C@_0L@GPCJJFPH@Quanser?5Q8?$AA@ 1006922c     daquanserq8.obj
 0002:0000423c       ??_C@_0L@MDJMNKPL@Quanser?5Q4?$AA@ 1006923c     daquanserq8.obj
 0002:0000424c       ??_C@_0BI@IHCNPKCM@No?5?$CFs?5at?5bus?5?$CFd?5slot?5?$CFd?$AA@ 1006924c     daquanserq8.obj
 0002:00004268       ??_C@_0BK@DJPPGIA@Bad?5channel?5in?5?$CFs?5D?1A?3?5?$CFn?$AA@ 10069268     daquanserq8.obj
 0002:00004288       ??_C@_0BI@OLGKMIEO@Bad?5range?5in?5?$CFs?5D?1A?3?5?$CFd?$AA@ 10069288     daquanserq8.obj
 0002:000042a8       __real@4014000000000000    100692a8     daquanserq8.obj
 0002:000042b8       __real@406999999999999a    100692b8     daquanserq8.obj
 0002:000042c8       __real@407999999999999a    100692c8     daquanserq8.obj
 0002:000042d4       ??_C@_0BL@NBOIGMKP@Q8?1Q4?5encoder?5error?5?$CFx?5?$CFx?6?$AA@ 100692d4     encquanserq8.obj
 0002:000042f4       ??_C@_0BK@EBKJELMI@maxfunc?5?$DN?5?$CFd?5at?5?$FL?$CFd?0?5?$CFd?$FN?6?$AA@ 100692f4     xpcruntime:xpcimports.obj
 0002:00004314       ??_C@_0CC@DMFKNLL@VendorId?5?$DN?50x?$CFx?0?5DeviceId?5?$DN?50x?$CFx@ 10069314     xpcruntime:xpcimports.obj
 0002:0000433c       ??_C@_0DH@OHCBLNMG@Subsystem?5Device?5ID?5?$DN?50x?$CFx?6Subsy@ 1006933c     xpcruntime:xpcimports.obj
 0002:00004380       ??_C@_0BD@MMMMEFCM@Class?5Code?5?$DN?50x?$CFx?6?$AA@ 10069380     xpcruntime:xpcimports.obj
 0002:00004398       ??_C@_0BE@OLDDDNHM@InterruptLine?5?$DN?5?$CFd?6?$AA@ 10069398     xpcruntime:xpcimports.obj
 0002:000043b0       ??_C@_0CE@IBMFFAPN@bus?5?$DN?5?$CFd?0?5slot?5?$DN?5?$CFd?0?5function?5?$DN?5@ 100693b0     xpcruntime:xpcimports.obj
 0002:000043dc       ??_C@_0CE@DGLLGDFH@?5?5?5?5Phys?5?5?5Virtual?5?5?5Length?5IO?1M@ 100693dc     xpcruntime:xpcimports.obj
 0002:00004408       ??_C@_0BI@FEOPLEMG@?$CF08x?5?$CF08x?5?$CF08x?5?5?5?5?5?5?$CFc?6?$AA@ 10069408     xpcruntime:xpcimports.obj
 0002:00004424       ??_C@_0BB@BNNCEDPC@rl32eScopeExists?$AA@ 10069424     xpcruntime:xpcimports.obj
 0002:00004438       ??_C@_0BM@FJBFEGFG@rl32eScopeExists?5not?5found?6?$AA@ 10069438     xpcruntime:xpcimports.obj
 0002:0000445c       ??_C@_0O@BNNGKJEA@rl32eDefScope?$AA@ 1006945c     xpcruntime:xpcimports.obj
 0002:0000446c       ??_C@_0BJ@CDNOENKA@rl32eDefScope?5not?5found?6?$AA@ 1006946c     xpcruntime:xpcimports.obj
 0002:0000448c       ??_C@_0P@CKNKILDP@rl32eAddSignal?$AA@ 1006948c     xpcruntime:xpcimports.obj
 0002:000044a0       ??_C@_0BK@GMJAJBAI@rl32eAddSignal?5not?5found?6?$AA@ 100694a0     xpcruntime:xpcimports.obj
 0002:000044c0       ??_C@_0BB@LDMIHGCE@rl32eGetSignalNo?$AA@ 100694c0     xpcruntime:xpcimports.obj
 0002:000044d4       ??_C@_0BM@LGAMBAID@rl32eGetSignalNo?5not?5found?6?$AA@ 100694d4     xpcruntime:xpcimports.obj
 0002:000044f8       ??_C@_0O@CFDGALBP@rl32eSetScope?$AA@ 100694f8     xpcruntime:xpcimports.obj
 0002:00004508       ??_C@_0BJ@JCLHHIN@rl32eSetScope?5not?5found?6?$AA@ 10069508     xpcruntime:xpcimports.obj
 0002:00004528       ??_C@_0P@IKMCBMHH@xpceFSScopeSet?$AA@ 10069528     xpcruntime:xpcimports.obj
 0002:0000453c       ??_C@_0BK@JODJPNNH@xpceFSScopeSet?5not?5found?6?$AA@ 1006953c     xpcruntime:xpcimports.obj
 0002:0000455c       ??_C@_0BE@DLACEEJM@rl32eSetTargetScope?$AA@ 1006955c     xpcruntime:xpcimports.obj
 0002:00004574       ??_C@_0BP@JCHFMKPJ@rl32eSetTargetScope?5not?5found?6?$AA@ 10069574     xpcruntime:xpcimports.obj
 0002:0000459c       ??_C@_0BJ@LIDLNDHC@rl32eSetTargetScopeSigFt?$AA@ 1006959c     xpcruntime:xpcimports.obj
 0002:000045bc       ??_C@_0CE@JLGHCFHI@rl32eSetTargetScopeSigFt?5not?5fou@ 100695bc     xpcruntime:xpcimports.obj
 0002:000045e8       ??_C@_0BI@JAPOIDNG@rl32eRestartAcquisition?$AA@ 100695e8     xpcruntime:xpcimports.obj
 0002:00004604       ??_C@_0CD@LLBEFFBO@rl32eRestartAcquisition?5not?5foun@ 10069604     xpcruntime:xpcimports.obj
 0002:00004630       ??_C@_0P@IEIIADJB@xpceScopeAcqOK?$AA@ 10069630     xpcruntime:xpcimports.obj
 0002:00004644       ??_C@_0BK@NJCKNFPN@xpceScopeAcqOK?5not?5found?6?$AA@ 10069644     xpcruntime:xpcimports.obj
 0002:00004664       ??_C@_0BA@IJINKAHF@xpceRegisterISR?$AA@ 10069664     xpcruntime:xpcimports.obj
 0002:00004678       ??_C@_0BL@NNDLOEJE@xpceRegisterISR?5not?5found?6?$AA@ 10069678     xpcruntime:xpcimports.obj
 0002:00004698       ??_C@_0BC@NLBADGKF@xpceDeRegisterISR?$AA@ 10069698     xpcruntime:xpcimports.obj
 0002:000046b0       ??_C@_0BN@DCAIKFFD@xpceDeRegisterISR?5not?5found?6?$AA@ 100696b0     xpcruntime:xpcimports.obj
 0002:000046d4       ??_C@_07JPMEPILD@xpcInpB?$AA@ 100696d4     xpcruntime:xpcimports.obj
 0002:000046e0       ??_C@_0BD@PGABEJOL@xpcInpB?5not?5found?6?$AA@ 100696e0     xpcruntime:xpcimports.obj
 0002:000046f8       ??_C@_07KIHBBOKH@xpcInpW?$AA@ 100696f8     xpcruntime:xpcimports.obj
 0002:00004704       ??_C@_0BD@FPCJFMCC@xpcInpW?5not?5found?6?$AA@ 10069704     xpcruntime:xpcimports.obj
 0002:0000471c       ??_C@_08KDIAJBOP@xpcInpDW?$AA@ 1006971c     xpcruntime:xpcimports.obj
 0002:00004728       ??_C@_0BE@PIELDNIL@xpcInpDW?5not?5found?6?$AA@ 10069728     xpcruntime:xpcimports.obj
 0002:00004740       ??_C@_08PJFMOIGO@xpcOutpB?$AA@ 10069740     xpcruntime:xpcimports.obj
 0002:0000474c       ??_C@_0BE@HCKNCEKF@xpcOutpB?5not?5found?6?$AA@ 1006974c     xpcruntime:xpcimports.obj
 0002:00004764       ??_C@_08MOOJAOHK@xpcOutpW?$AA@ 10069764     xpcruntime:xpcimports.obj
 0002:00004770       ??_C@_0BE@NLIFDBGM@xpcOutpW?5not?5found?6?$AA@ 10069770     xpcruntime:xpcimports.obj
 0002:00004788       ??_C@_09FLIEKHJG@xpcOutpDW?$AA@ 10069788     xpcruntime:xpcimports.obj
 0002:00004794       ??_C@_0BF@GJKLPNHB@xpcOutpDW?5not?5found?6?$AA@ 10069794     xpcruntime:xpcimports.obj
 0002:000047b0       ??_C@_0BH@EHOLELHH@xpcReserveMemoryRegion?$AA@ 100697b0     xpcruntime:xpcimports.obj
 0002:000047cc       ??_C@_0CC@KAAAGPI@xpcReserveMemoryRegion?5not?5found@ 100697cc     xpcruntime:xpcimports.obj
 0002:000047f4       ??_C@_0BA@JGPMHGAF@rl32eShowPCIDev?$AA@ 100697f4     xpcruntime:xpcimports.obj
 0002:00004808       ??_C@_0BL@DDFFLNHI@rl32eShowPCIDev?5not?5found?6?$AA@ 10069808     xpcruntime:xpcimports.obj
 0002:00004828       ??_C@_0BB@KBCOJPFB@rl32eShowPCIInfo?$AA@ 10069828     xpcruntime:xpcimports.obj
 0002:0000483c       ??_C@_0BM@IFDMAGLO@rl32eShowPCIInfo?5not?5found?6?$AA@ 1006983c     xpcruntime:xpcimports.obj
 0002:00004860       ??_C@_0BA@BGPAADB@rl32eGetPCIInfo?$AA@ 10069860     xpcruntime:xpcimports.obj
 0002:00004874       ??_C@_0BL@IGOMLDCK@rl32eGetPCIInfo?5not?5found?6?$AA@ 10069874     xpcruntime:xpcimports.obj
 0002:00004894       ??_C@_0BG@NJPFKFDP@rl32eGetPCIInfoAtSlot?$AA@ 10069894     xpcruntime:xpcimports.obj
 0002:000048b0       ??_C@_0CB@BBKIPMLA@rl32eGetPCIInfoAtSlot?5not?5found?6@ 100698b0     xpcruntime:xpcimports.obj
 0002:000048d8       ??_C@_0BH@OKBOPNFG@xpceAssignPCIInterrupt?$AA@ 100698d8     xpcruntime:xpcimports.obj
 0002:000048f4       ??_C@_0CC@CDNDNJBJ@xpceAssignPCIInterrupt?5not?5found@ 100698f4     xpcruntime:xpcimports.obj
 0002:0000491c       ??_C@_0BD@PCKOKHO@xpceGetSignalValue?$AA@ 1006991c     xpcruntime:xpcimports.obj
 0002:00004934       ??_C@_0BO@GCBDJHMB@xpceGetSignalValue?5not?5found?6?$AA@ 10069934     xpcruntime:xpcimports.obj
 0002:00004958       ??_C@_0BB@BJONJAGA@xpceSetParameter?$AA@ 10069958     xpcruntime:xpcimports.obj
 0002:0000496c       ??_C@_0BM@BJIKDLHA@xpceSetParameter?5not?5found?6?$AA@ 1006996c     xpcruntime:xpcimports.obj
 0002:00004990       ??_C@_0BB@GNFDFMCM@xpceGetParameter?$AA@ 10069990     xpcruntime:xpcimports.obj
 0002:000049a4       ??_C@_0BM@POHNKBC@xpceGetParameter?5not?5found?6?$AA@ 100699a4     xpcruntime:xpcimports.obj
 0002:000049c8       ??_C@_0BB@CEIJLFCD@xpceGetParamDims?$AA@ 100699c8     xpcruntime:xpcimports.obj
 0002:000049dc       ??_C@_0BM@OABDBKAO@xpceGetParamDims?5not?5found?6?$AA@ 100699dc     xpcruntime:xpcimports.obj
 0002:00004a00       ??_C@_0L@OCBLLHBM@xpceGetTET?$AA@ 10069a00     xpcruntime:xpcimports.obj
 0002:00004a10       ??_C@_0BG@HNOFBOB@xpceGetTET?5not?5found?6?$AA@ 10069a10     xpcruntime:xpcimports.obj
 0002:00004a2c       ??_C@_0P@OKGNGAGH@xpcIsModelInit?$AA@ 10069a2c     xpcruntime:xpcimports.obj
 0002:00004a40       ??_C@_0BK@DHEMLBIM@xpcIsModelInit?5not?5found?6?$AA@ 10069a40     xpcruntime:xpcimports.obj
 0002:00004a60       ??_C@_0BH@KJJLCAOJ@xpcAllocPhysicalMemory?$AA@ 10069a60     xpcruntime:xpcimports.obj
 0002:00004a7c       ??_C@_0CC@MOJPNHKL@xpcAllocPhysicalMemory?5not?5found@ 10069a7c     xpcruntime:xpcimports.obj
 0002:00004aa4       ??_C@_0BG@CBNPGAEL@xpcFreePhysicalMemory?$AA@ 10069aa4     xpcruntime:xpcimports.obj
 0002:00004ac0       ??_C@_0CB@PKJEBPOG@xpcFreePhysicalMemory?5not?5found?6@ 10069ac0     xpcruntime:xpcimports.obj
 0002:00004ae8       ??_C@_0BC@JGKNLICL@xpcGetElapsedTime?$AA@ 10069ae8     xpcruntime:xpcimports.obj
 0002:00004b00       ??_C@_0BN@OEOAHCIO@xpcGetElapsedTime?5not?5found?6?$AA@ 10069b00     xpcruntime:xpcimports.obj
 0002:00004b24       ??_C@_0M@ICBLMODA@xpcBusyWait?$AA@ 10069b24     xpcruntime:xpcimports.obj
 0002:00004b34       ??_C@_0BH@FBOPECBI@xpcBusyWait?5not?5found?6?$AA@ 10069b34     xpcruntime:xpcimports.obj
 0002:00004b50       ??_C@_0N@LKKJEKKA@TBCreateSpin?$AA@ 10069b50     xpcruntime:xpcimports.obj
 0002:00004b60       ??_C@_0BI@FHKMLKOE@TBCreateSpin?5not?5found?6?$AA@ 10069b60     xpcruntime:xpcimports.obj
 0002:00004b7c       ??_C@_0N@HOAJHNBD@TBDeleteSpin?$AA@ 10069b7c     xpcruntime:xpcimports.obj
 0002:00004b8c       ??_C@_0BI@BKCPAAG@TBDeleteSpin?5not?5found?6?$AA@ 10069b8c     xpcruntime:xpcimports.obj
 0002:00004ba8       ??_C@_0P@DAHDDBJG@TBTakeSpinFast?$AA@ 10069ba8     xpcruntime:xpcimports.obj
 0002:00004bbc       ??_C@_0BK@NKAIBHGB@TBTakeSpinFast?5not?5found?6?$AA@ 10069bbc     xpcruntime:xpcimports.obj
 0002:00004bdc       ??_C@_0P@FKNAAELA@TBGiveSpinFast?$AA@ 10069bdc     xpcruntime:xpcimports.obj
 0002:00004bf0       ??_C@_0BK@KGPJBJND@TBGiveSpinFast?5not?5found?6?$AA@ 10069bf0     xpcruntime:xpcimports.obj
 0002:00004c10       ??_C@_0BE@IIGBFDHK@xpceCreateSemaphore?$AA@ 10069c10     xpcruntime:xpcimports.obj
 0002:00004c28       ??_C@_0BP@KFBAFFKJ@xpceCreateSemaphore?5not?5found?6?$AA@ 10069c28     xpcruntime:xpcimports.obj
 0002:00004c50       ??_C@_0BC@IFNIONKJ@xpceWaitSemaphore?$AA@ 10069c50     xpcruntime:xpcimports.obj
 0002:00004c68       ??_C@_0BN@NMFAADIO@xpceWaitSemaphore?5not?5found?6?$AA@ 10069c68     xpcruntime:xpcimports.obj
 0002:00004c8c       ??_C@_0BE@NNDIOBKE@xpceSignalSemaphore?$AA@ 10069c8c     xpcruntime:xpcimports.obj
 0002:00004ca4       ??_C@_0BP@LBANMHJP@xpceSignalSemaphore?5not?5found?6?$AA@ 10069ca4     xpcruntime:xpcimports.obj
 0002:00004ccc       ??_C@_0BE@MEBEKOIM@xpceDeleteSemaphore?$AA@ 10069ccc     xpcruntime:xpcimports.obj
 0002:00004ce4       ??_C@_0BP@OFNCKOJH@xpceDeleteSemaphore?5not?5found?6?$AA@ 10069ce4     xpcruntime:xpcimports.obj
 0002:00004d0c       ??_C@_0BD@MFNDMBOF@FindUsbVideoDevice?$AA@ 10069d0c     xpcruntime:xpcimports.obj
 0002:00004d24       ??_C@_0BO@POKLDHMI@FindUsbVideoDevice?5not?5found?6?$AA@ 10069d24     xpcruntime:xpcimports.obj
 0002:00004d48       ??_C@_0BA@PLPAPNAB@GetVideoConfigs?$AA@ 10069d48     xpcruntime:xpcimports.obj
 0002:00004d5c       ??_C@_0BL@DALDHKHC@GetVideoConfigs?5not?5found?6?$AA@ 10069d5c     xpcruntime:xpcimports.obj
 0002:00004d7c       ??_C@_0L@GBAEMHMH@StartVideo?$AA@ 10069d7c     xpcruntime:xpcimports.obj
 0002:00004d8c       ??_C@_0BG@HDCELEBP@StartVideo?5not?5found?6?$AA@ 10069d8c     xpcruntime:xpcimports.obj
 0002:00004da8       ??_C@_0BA@FDNPOCLN@ReadFrameBuffer?$AA@ 10069da8     xpcruntime:xpcimports.obj
 0002:00004dbc       ??_C@_0BL@JHGHPNBI@ReadFrameBuffer?5not?5found?6?$AA@ 10069dbc     xpcruntime:xpcimports.obj
 0002:00004ddc       ??_C@_09FAHCLKAG@StopVideo?$AA@ 10069ddc     xpcruntime:xpcimports.obj
 0002:00004de8       ??_C@_0BF@NKGKKADL@StopVideo?5not?5found?6?$AA@ 10069de8     xpcruntime:xpcimports.obj
 0002:00004e04       ??_C@_0O@MCPKDLLL@ConvertUImage?$AA@ 10069e04     xpcruntime:xpcimports.obj
 0002:00004e14       ??_C@_0BJ@PHJKOAFL@ConvertUImage?5not?5found?6?$AA@ 10069e14     xpcruntime:xpcimports.obj
 0002:00004e34       ??_C@_0BD@NKCBPBJJ@CreateVideoDisplay?$AA@ 10069e34     xpcruntime:xpcimports.obj
 0002:00004e4c       ??_C@_0BO@HPPLLNFP@CreateVideoDisplay?5not?5found?6?$AA@ 10069e4c     xpcruntime:xpcimports.obj
 0002:00004e70       ??_C@_0BE@KJCKGPHA@DestroyVideoDisplay?$AA@ 10069e70     xpcruntime:xpcimports.obj
 0002:00004e88       ??_C@_0BP@FMGLJAIJ@DestroyVideoDisplay?5not?5found?6?$AA@ 10069e88     xpcruntime:xpcimports.obj
 0002:00004eb0       ??_C@_0BC@HCMIMIDN@StartVideoDisplay?$AA@ 10069eb0     xpcruntime:xpcimports.obj
 0002:00004ec8       ??_C@_0BN@EFIEBGOO@StartVideoDisplay?5not?5found?6?$AA@ 10069ec8     xpcruntime:xpcimports.obj
 0002:00004eec       ??_C@_0BB@JBBLMILG@StopVideoDisplay?$AA@ 10069eec     xpcruntime:xpcimports.obj
 0002:00004f00       ??_C@_0BM@DBJBPLEL@StopVideoDisplay?5not?5found?6?$AA@ 10069f00     xpcruntime:xpcimports.obj
 0002:00004f24       ??_C@_0M@MFJEGMHC@StreamVideo?$AA@ 10069f24     xpcruntime:xpcimports.obj
 0002:00004f34       ??_C@_0BH@OINCDMLA@StreamVideo?5not?5found?6?$AA@ 10069f34     xpcruntime:xpcimports.obj
 0002:00004f50       ??_C@_0N@IGGLCIGE@xpceaddEvent?$AA@ 10069f50     xpcruntime:xpcimports.obj
 0002:00004f60       ??_C@_0BI@NHJNFMKH@xpceaddEvent?5not?5found?6?$AA@ 10069f60     xpcruntime:xpcimports.obj
 0002:00004f7c       ??_C@_0BC@MLJODBHJ@slrtStartProfiler?$AA@ 10069f7c     xpcruntime:xpcimports.obj
 0002:00004f94       ??_C@_0BN@HLNCOKA@slrtStartProfiler?5not?5found?6?$AA@ 10069f94     xpcruntime:xpcimports.obj
 0002:00004fb8       ??_C@_0BB@ONJONMCD@slrtStopProfiler?$AA@ 10069fb8     xpcruntime:xpcimports.obj
 0002:00004fcc       ??_C@_0BM@GAKJEGBA@slrtStopProfiler?5not?5found?6?$AA@ 10069fcc     xpcruntime:xpcimports.obj
 0002:00004ff0       ??_C@_0BF@EILBHBBF@slrtGetProfilerState?$AA@ 10069ff0     xpcruntime:xpcimports.obj
 0002:0000500c       ??_C@_0CA@EDDFOCLE@slrtGetProfilerState?5not?5found?6?$AA@ 1006a00c     xpcruntime:xpcimports.obj
 0002:00005034       ??_C@_0BB@HDPOIJAB@xpceDAQPostEvent?$AA@ 1006a034     xpcruntime:xpcimports.obj
 0002:00005048       ??_C@_0BM@IHANBKGN@xpceDAQPostEvent?5not?5found?6?$AA@ 1006a048     xpcruntime:xpcimports.obj
 0002:0000506c       ??_C@_0BH@MBACMOD@xpceDAQUpdateTimeStamp?$AA@ 1006a06c     xpcruntime:xpcimports.obj
 0002:00005088       ??_C@_0CC@DAKBBINL@xpceDAQUpdateTimeStamp?5not?5found@ 1006a088     xpcruntime:xpcimports.obj
 0002:000050b0       ??_C@_0BG@CCHICKPN@slrteSetStepSizeDelta?$AA@ 1006a0b0     xpcruntime:xpcimports.obj
 0002:000050cc       ??_C@_0CB@MKHINEIJ@slrteSetStepSizeDelta?5not?5found?6@ 1006a0cc     xpcruntime:xpcimports.obj
 0002:000050f4       ??_C@_0BI@CLNBLDKJ@slrteGetCurrentStepSize?$AA@ 1006a0f4     xpcruntime:xpcimports.obj
 0002:00005110       ??_C@_0CD@GIOJPGJA@slrteGetCurrentStepSize?5not?5foun@ 1006a110     xpcruntime:xpcimports.obj
 0002:0000513c       ??_C@_0BE@FCLCBOC@registerPTPTimeRead?$AA@ 1006a13c     xpcruntime:xpcimports.obj
 0002:00005154       ??_C@_0BP@LHPKAJIP@registerPTPTimeRead?5not?5found?6?$AA@ 1006a154     xpcruntime:xpcimports.obj
 0002:0000517c       ??_C@_0BG@KIGCDDJI@unRegisterPTPTimeRead?$AA@ 1006a17c     xpcruntime:xpcimports.obj
 0002:00005198       ??_C@_0CB@MLFFBFCM@unRegisterPTPTimeRead?5not?5found?6@ 1006a198     xpcruntime:xpcimports.obj
 0002:000051c0       ??_C@_0BB@IPMDDBHK@slTestInitialize?$AA@ 1006a1c0     xpcruntime:xpcimports.obj
 0002:000051d4       ??_C@_0BM@LAJFCCJH@slTestInitialize?5not?5found?6?$AA@ 1006a1d4     xpcruntime:xpcimports.obj
 0002:000051f8       ??_C@_0BF@OOMPMEBC@slTestLogAssessments?$AA@ 1006a1f8     xpcruntime:xpcimports.obj
 0002:00005214       ??_C@_0CA@FGJCEBAG@slTestLogAssessments?5not?5found?6?$AA@ 1006a214     xpcruntime:xpcimports.obj
 0002:0000523c       ??_C@_0BB@HJHKONHO@slTestEvalOnFail?$AA@ 1006a23c     xpcruntime:xpcimports.obj
 0002:00005250       ??_C@_0BM@JIKCFFNJ@slTestEvalOnFail?5not?5found?6?$AA@ 1006a250     xpcruntime:xpcimports.obj
 0002:00005274       ??_C@_0BA@LBHLABFP@slTestTerminate?$AA@ 1006a274     xpcruntime:xpcimports.obj
 0002:00005288       ??_C@_0BL@EMFGKAPA@slTestTerminate?5not?5found?6?$AA@ 1006a288     xpcruntime:xpcimports.obj
 0002:000052a8       ??_C@_0BE@JPNPBBEO@slTestRegAssessment?$AA@ 1006a2a8     xpcruntime:xpcimports.obj
 0002:000052c0       ??_C@_0BP@FBDEJJJH@slTestRegAssessment?5not?5found?6?$AA@ 1006a2c0     xpcruntime:xpcimports.obj
 0002:000052e8       ??_C@_0O@NCLGDNIB@slrteSetupMSI?$AA@ 1006a2e8     xpcruntime:xpcimports.obj
 0002:000052f8       ??_C@_0BJ@HEFMECLM@slrteSetupMSI?5not?5found?6?$AA@ 1006a2f8     xpcruntime:xpcimports.obj
 0002:00005318       ??_C@_0BH@BPOLALHD@slrtGetCRBScratchSpace?$AA@ 1006a318     xpcruntime:xpcimports.obj
 0002:00005334       ??_C@_0CC@KCKAJKKJ@slrtGetCRBScratchSpace?5not?5found@ 1006a334     xpcruntime:xpcimports.obj
 0002:0000535c       ??_C@_0BC@MKFDAKOL@slrtGetSgCRBSpace?$AA@ 1006a35c     xpcruntime:xpcimports.obj
 0002:00005374       ??_C@_0BN@JDPHPLHL@slrtGetSgCRBSpace?5not?5found?6?$AA@ 1006a374     xpcruntime:xpcimports.obj
 0002:00005398       ??_C@_0P@EPAPKLIF@slrtfsOpenFile?$AA@ 1006a398     xpcruntime:xpcimports.obj
 0002:000053ac       ??_C@_0BK@FIHCBOHG@slrtfsOpenFile?5not?5found?6?$AA@ 1006a3ac     xpcruntime:xpcimports.obj
 0002:000053cc       ??_C@_0BA@LILAFDDL@slrtfsCloseFile?$AA@ 1006a3cc     xpcruntime:xpcimports.obj
 0002:000053e0       ??_C@_0BL@DEGHJFIB@slrtfsCloseFile?5not?5found?6?$AA@ 1006a3e0     xpcruntime:xpcimports.obj
 0002:00005400       ??_C@_0BC@OKMJDIEH@slrtfsWriteToFile?$AA@ 1006a400     xpcruntime:xpcimports.obj
 0002:00005418       ??_C@_0BN@KCFLCLAH@slrtfsWriteToFile?5not?5found?6?$AA@ 1006a418     xpcruntime:xpcimports.obj
 0002:0000543c       ??_C@_0BK@GIPNFFFF@slrtfsGetFileErrorMessage?$AA@ 1006a43c     xpcruntime:xpcimports.obj
 0002:0000545c       ??_C@_0CF@BCBLMKLE@slrtfsGetFileErrorMessage?5not?5fo@ 1006a45c     xpcruntime:xpcimports.obj
 0002:00005488       ??_C@_0BD@ICBOKMK@slrtfsGetFileError?$AA@ 1006a488     xpcruntime:xpcimports.obj
 0002:000054a0       ??_C@_0BO@FNBANAE@slrtfsGetFileError?5not?5found?6?$AA@ 1006a4a0     xpcruntime:xpcimports.obj
 0002:000054c4       ??_C@_0BE@PPAJMHJP@slrtfsOpenFileAsync?$AA@ 1006a4c4     xpcruntime:xpcimports.obj
 0002:000054dc       ??_C@_0BP@HKBMMJOK@slrtfsOpenFileAsync?5not?5found?6?$AA@ 1006a4dc     xpcruntime:xpcimports.obj
 0002:00005504       ??_C@_0BF@IGNDIBPF@slrtfsCloseFileAsync?$AA@ 1006a504     xpcruntime:xpcimports.obj
 0002:00005520       ??_C@_0CA@GJPFDBKN@slrtfsCloseFileAsync?5not?5found?6?$AA@ 1006a520     xpcruntime:xpcimports.obj
 0002:00005548       ??_C@_0BE@IOLEBNB@slrtfsGetFileStatus?$AA@ 1006a548     xpcruntime:xpcimports.obj
 0002:00005560       ??_C@_0BP@PEFHDGHL@slrtfsGetFileStatus?5not?5found?6?$AA@ 1006a560     xpcruntime:xpcimports.obj
 0002:00005588       ??_C@_0M@HKIJIMG@slrtfsFread?$AA@ 1006a588     xpcruntime:xpcimports.obj
 0002:00005598       ??_C@_0BH@OOKBGONO@slrtfsFread?5not?5found?6?$AA@ 1006a598     xpcruntime:xpcimports.obj
 0002:000055b4       ??_C@_0BE@OGCMPLAP@slrtGetDefaultDrive?$AA@ 1006a5b4     xpcruntime:xpcimports.obj
 0002:000055cc       ??_C@_0BP@HKFGLHOE@slrtGetDefaultDrive?5not?5found?6?$AA@ 1006a5cc     xpcruntime:xpcimports.obj
 0002:000055f4       ??_C@_0N@NAJIKFFI@slrtLogEvent?$AA@ 1006a5f4     xpcruntime:xpcimports.obj
 0002:00005604       ??_C@_0BI@NKCEACND@slrtLogEvent?5not?5found?6?$AA@ 1006a604     xpcruntime:xpcimports.obj
 0002:00005620       ??_C@_0N@IDKFJOHI@getlasterror?$AA@ 1006a620     xpcruntime:xpcimports.obj
 0002:00005630       ??_C@_0BI@MIHMCHGL@getlasterror?5not?5found?6?$AA@ 1006a630     xpcruntime:xpcimports.obj
 0002:0000564c       ??_C@_0P@OKHGKJKN@geterrorstring?$AA@ 1006a64c     xpcruntime:xpcimports.obj
 0002:00005660       ??_C@_0BK@NOHFDMLP@geterrorstring?5not?5found?6?$AA@ 1006a660     xpcruntime:xpcimports.obj
 0002:00005680       ??_C@_0BD@HNFFKMGJ@slrtGetCPUTCelsius?$AA@ 1006a680     xpcruntime:xpcimports.obj
 0002:00005698       ??_C@_0BO@LHBFKLIH@slrtGetCPUTCelsius?5not?5found?6?$AA@ 1006a698     xpcruntime:xpcimports.obj
 0002:000056bc       ??_C@_0M@OONCNCLM@slrtWarning?$AA@ 1006a6bc     xpcruntime:xpcimports.obj
 0002:000056cc       ??_C@_0BH@ICKGIEMB@slrtWarning?5not?5found?6?$AA@ 1006a6cc     xpcruntime:xpcimports.obj
 0002:000056e8       ??_C@_0M@JACEPOPN@registerNIC?$AA@ 1006a6e8     xpcruntime:xpcimports.obj
 0002:000056f8       ??_C@_0BH@JMDHJIAC@registerNIC?5not?5found?6?$AA@ 1006a6f8     xpcruntime:xpcimports.obj
 0002:00005714       ??_C@_0M@KBKHECFH@NICSetIface?$AA@ 1006a714     xpcruntime:xpcimports.obj
 0002:00005724       ??_C@_0BH@NJAHOBA@NICSetIface?5not?5found?6?$AA@ 1006a724     xpcruntime:xpcimports.obj
 0002:00005740       ??_C@_0M@FAILFBCK@NICGetIface?$AA@ 1006a740     xpcruntime:xpcimports.obj
 0002:00005750       ??_C@_0BH@KDLLDOGM@NICGetIface?5not?5found?6?$AA@ 1006a750     xpcruntime:xpcimports.obj
 0002:0000576c       ??_C@_0L@JNFPDPO@releaseNIC?$AA@ 1006a76c     xpcruntime:xpcimports.obj
 0002:0000577c       ??_C@_0BG@EBGJANLA@releaseNIC?5not?5found?6?$AA@ 1006a77c     xpcruntime:xpcimports.obj
 0002:00005798       ??_C@_0BC@HLDKJAG@SetIPTASKPriority?$AA@ 1006a798     xpcruntime:xpcimports.obj
 0002:000057b0       ??_C@_0BN@OGKMHHAE@SetIPTASKPriority?5not?5found?6?$AA@ 1006a7b0     xpcruntime:xpcimports.obj
 0002:000057d4       ??_C@_0O@LHENMBDD@OpenInterface?$AA@ 1006a7d4     xpcruntime:xpcimports.obj
 0002:000057e4       ??_C@_0BJ@PFGDBKHB@OpenInterface?5not?5found?6?$AA@ 1006a7e4     xpcruntime:xpcimports.obj
 0002:00005804       ??_C@_0P@IINFELKD@CloseInterface?$AA@ 1006a804     xpcruntime:xpcimports.obj
 0002:00005818       ??_C@_0BK@PAPDNDBK@CloseInterface?5not?5found?6?$AA@ 1006a818     xpcruntime:xpcimports.obj
 0002:00005838       ??_C@_05LEFIAAOI@SetIP?$AA@ 1006a838     xpcruntime:xpcimports.obj
 0002:00005840       ??_C@_0BB@CGLIBAMM@SetIP?5not?5found?6?$AA@ 1006a840     xpcruntime:xpcimports.obj
 0002:00005854       ??_C@_0BA@HIJJHHMD@AddGatewayRoute?$AA@ 1006a854     xpcruntime:xpcimports.obj
 0002:00005868       ??_C@_0BL@BFCFMDMN@AddGatewayRoute?5not?5found?6?$AA@ 1006a868     xpcruntime:xpcimports.obj
 0002:00005888       ??_C@_0M@PHMABFPI@DeleteRoute?$AA@ 1006a888     xpcruntime:xpcimports.obj
 0002:00005898       ??_C@_0BH@JPJGLLID@DeleteRoute?5not?5found?6?$AA@ 1006a898     xpcruntime:xpcimports.obj
 0002:000058b4       ??_C@_0BA@FCDIMKIJ@GetHostTarIPAdd?$AA@ 1006a8b4     xpcruntime:xpcimports.obj
 0002:000058c8       ??_C@_0BL@MBKDGKBO@GetHostTarIPAdd?5not?5found?6?$AA@ 1006a8c8     xpcruntime:xpcimports.obj
 0002:000058e8       ??_C@_0M@HPMIPIBI@GetDCUUsage?$AA@ 1006a8e8     xpcruntime:xpcimports.obj
 0002:000058f8       ??_C@_0BH@EBLJKCJC@GetDCUUsage?5not?5found?6?$AA@ 1006a8f8     xpcruntime:xpcimports.obj
 0002:00005914       ??_C@_06MPKMECK@accept?$AA@ 1006a914     xpcruntime:xpcimports.obj
 0002:0000591c       ??_C@_0BC@GBGIEMNO@accept?5not?5found?6?$AA@ 1006a91c     xpcruntime:xpcimports.obj
 0002:00005934       ??_C@_04NPNJNMMP@bind?$AA@ 1006a934     xpcruntime:xpcimports.obj
 0002:0000593c       ??_C@_0BA@DAJNENLO@bind?5not?5found?6?$AA@ 1006a93c     xpcruntime:xpcimports.obj
 0002:00005950       ??_C@_0L@CKHNIFCM@setsockopt?$AA@ 1006a950     xpcruntime:xpcimports.obj
 0002:00005960       ??_C@_0BG@MFIIOMFE@setsockopt?5not?5found?6?$AA@ 1006a960     xpcruntime:xpcimports.obj
 0002:0000597c       ??_C@_0M@ODDJDCDK@closesocket?$AA@ 1006a97c     xpcruntime:xpcimports.obj
 0002:0000598c       ??_C@_0BH@JHGHMIL@closesocket?5not?5found?6?$AA@ 1006a98c     xpcruntime:xpcimports.obj
 0002:000059a8       ??_C@_07KAIBNCHO@connect?$AA@ 1006a9a8     xpcruntime:xpcimports.obj
 0002:000059b4       ??_C@_0BD@MKLLMBM@connect?5not?5found?6?$AA@ 1006a9b4     xpcruntime:xpcimports.obj
 0002:000059cc       ??_C@_0M@PBPOCKDG@ioctlsocket?$AA@ 1006a9cc     xpcruntime:xpcimports.obj
 0002:000059dc       ??_C@_0BH@NFCNHHIH@ioctlsocket?5not?5found?6?$AA@ 1006a9dc     xpcruntime:xpcimports.obj
 0002:000059f8       ??_C@_06OODDLKLE@listen?$AA@ 1006a9f8     xpcruntime:xpcimports.obj
 0002:00005a00       ??_C@_0BC@NHBILEKI@listen?5not?5found?6?$AA@ 1006aa00     xpcruntime:xpcimports.obj
 0002:00005a18       ??_C@_08HMBBGFHE@recvfrom?$AA@ 1006aa18     xpcruntime:xpcimports.obj
 0002:00005a24       ??_C@_0BE@BJAJFFLF@recvfrom?5not?5found?6?$AA@ 1006aa24     xpcruntime:xpcimports.obj
 0002:00005a3c       ??_C@_06MEPBGKEC@sendto?$AA@ 1006aa3c     xpcruntime:xpcimports.obj
 0002:00005a44       ??_C@_0BC@BHPIMDJO@sendto?5not?5found?6?$AA@ 1006aa44     xpcruntime:xpcimports.obj
 0002:00005a5c       ??_C@_09JKBDEEOB@inet_addr?$AA@ 1006aa5c     xpcruntime:xpcimports.obj
 0002:00005a68       ??_C@_0BF@HKJPGECN@inet_addr?5not?5found?6?$AA@ 1006aa68     xpcruntime:xpcimports.obj
 0002:00005a84       ??_C@_06HBELJPBO@socket?$AA@ 1006aa84     xpcruntime:xpcimports.obj
 0002:00005a8c       ??_C@_0BC@NAGFFJGA@socket?5not?5found?6?$AA@ 1006aa8c     xpcruntime:xpcimports.obj
 0002:00005aa4       ??_C@_09ICJIFGNC@GetSocket?$AA@ 1006aaa4     xpcruntime:xpcimports.obj
 0002:00005ab0       ??_C@_0BF@KDBCKMOJ@GetSocket?5not?5found?6?$AA@ 1006aab0     xpcruntime:xpcimports.obj
 0002:00005acc       ??_C@_0P@KJEGJMJI@GetSocketState?$AA@ 1006aacc     xpcruntime:xpcimports.obj
 0002:00005ae0       ??_C@_0BK@IALBJHEB@GetSocketState?5not?5found?6?$AA@ 1006aae0     xpcruntime:xpcimports.obj
 0002:00005b00       ??_C@_0L@MEAJHNHB@SocketSend?$AA@ 1006ab00     xpcruntime:xpcimports.obj
 0002:00005b10       ??_C@_0BG@EOCMBFJA@SocketSend?5not?5found?6?$AA@ 1006ab10     xpcruntime:xpcimports.obj
 0002:00005b2c       ??_C@_0O@PFPCLEMF@SocketReceive?$AA@ 1006ab2c     xpcruntime:xpcimports.obj
 0002:00005b3c       ??_C@_0BJ@HIBADDFO@SocketReceive?5not?5found?6?$AA@ 1006ab3c     xpcruntime:xpcimports.obj
 0002:00005b5c       ??_C@_0BD@OOGFNAIK@CreateServerSocket?$AA@ 1006ab5c     xpcruntime:xpcimports.obj
 0002:00005b74       ??_C@_0BO@GKIJHIPH@CreateServerSocket?5not?5found?6?$AA@ 1006ab74     xpcruntime:xpcimports.obj
 0002:00005b98       ??_C@_0BB@KGHJGFFO@OpenServerListen?$AA@ 1006ab98     xpcruntime:xpcimports.obj
 0002:00005bac       ??_C@_0BM@NFMMLIO@OpenServerListen?5not?5found?6?$AA@ 1006abac     xpcruntime:xpcimports.obj
 0002:00005bd0       ??_C@_0BE@BAJLDJAH@ConnectServerSocket?$AA@ 1006abd0     xpcruntime:xpcimports.obj
 0002:00005be8       ??_C@_0BP@KJNODIKE@ConnectServerSocket?5not?5found?6?$AA@ 1006abe8     xpcruntime:xpcimports.obj
 0002:00005c10       ??_C@_0BC@PLKKJDIM@CloseServerSocket?$AA@ 1006ac10     xpcruntime:xpcimports.obj
 0002:00005c28       ??_C@_0BN@KEJEPNMB@CloseServerSocket?5not?5found?6?$AA@ 1006ac28     xpcruntime:xpcimports.obj
 0002:00005c4c       ??_C@_0BC@IHMNIGFJ@ResetServerSocket?$AA@ 1006ac4c     xpcruntime:xpcimports.obj
 0002:00005c64       ??_C@_0BN@NIOGJLCG@ResetServerSocket?5not?5found?6?$AA@ 1006ac64     xpcruntime:xpcimports.obj
 0002:00005c88       ??_C@_0BD@MCLPKCPP@CreateClientSocket?$AA@ 1006ac88     xpcruntime:xpcimports.obj
 0002:00005ca0       ??_C@_0BO@DILAGPFN@CreateClientSocket?5not?5found?6?$AA@ 1006aca0     xpcruntime:xpcimports.obj
 0002:00005cc4       ??_C@_0BB@DAPKNNLG@BindClientSocket?$AA@ 1006acc4     xpcruntime:xpcimports.obj
 0002:00005cd8       ??_C@_0BM@LLLMMDFN@BindClientSocket?5not?5found?6?$AA@ 1006acd8     xpcruntime:xpcimports.obj
 0002:00005cfc       ??_C@_0BE@DMEBELHC@ConnectClientSocket?$AA@ 1006acfc     xpcruntime:xpcimports.obj
 0002:00005d14       ??_C@_0BP@PLOHCPAO@ConnectClientSocket?5not?5found?6?$AA@ 1006ad14     xpcruntime:xpcimports.obj
 0002:00005d3c       ??_C@_0BC@NHHAOBPJ@CloseClientSocket?$AA@ 1006ad3c     xpcruntime:xpcimports.obj
 0002:00005d54       ??_C@_0BN@PGKNOKGL@CloseClientSocket?5not?5found?6?$AA@ 1006ad54     xpcruntime:xpcimports.obj
 0002:00005d78       ??_C@_0BC@KLBHPECM@ResetClientSocket?$AA@ 1006ad78     xpcruntime:xpcimports.obj
 0002:00005d90       ??_C@_0BN@IKNPIMIM@ResetClientSocket?5not?5found?6?$AA@ 1006ad90     xpcruntime:xpcimports.obj
 0002:00005db4       ??_C@_0M@IJOPFCCE@UDPOpenSend?$AA@ 1006adb4     xpcruntime:xpcimports.obj
 0002:00005dc4       ??_C@_0BH@CCHBDPG@UDPOpenSend?5not?5found?6?$AA@ 1006adc4     xpcruntime:xpcimports.obj
 0002:00005de0       ??_C@_0P@MEPACHPD@UDPOpenReceive?$AA@ 1006ade0     xpcruntime:xpcimports.obj
 0002:00005df4       ??_C@_0BK@PFMCPKIO@UDPOpenReceive?5not?5found?6?$AA@ 1006adf4     xpcruntime:xpcimports.obj
 0002:00005e14       ??_C@_0N@NMMOLOEM@UDPCloseSend?$AA@ 1006ae14     xpcruntime:xpcimports.obj
 0002:00005e24       ??_C@_0BI@ENKCOCDG@UDPCloseSend?5not?5found?6?$AA@ 1006ae24     xpcruntime:xpcimports.obj
 0002:00005e40       ??_C@_0BA@DMJGBBIA@UDPCloseReceive?$AA@ 1006ae40     xpcruntime:xpcimports.obj
 0002:00005e54       ??_C@_0BL@PEBIMLNC@UDPCloseReceive?5not?5found?6?$AA@ 1006ae54     xpcruntime:xpcimports.obj
 0002:00005f28       __pRawDllMain              1006af28     LIBCMT:dll_dllmain.obj
 0002:00005f28       __pDefaultRawDllMain       1006af28     LIBCMT:dll_dllmain.obj
 0002:00005f40       ??_C@_1BC@DNHGCMLG@?$AAa?$AAd?$AAv?$AAa?$AAp?$AAi?$AA3?$AA2?$AA?$AA@ 1006af40     libvcruntime:winapi_downlevel.obj
 0002:00005f58       ??_C@_1DM@KHCHBNEB@?$AAa?$AAp?$AAi?$AA?9?$AAm?$AAs?$AA?9?$AAw?$AAi?$AAn?$AA?9?$AAc?$AAo?$AAr?$AAe?$AA?9?$AAf?$AAi?$AAb?$AAe?$AAr?$AAs?$AA?9?$AAl?$AA1?$AA?9?$AA1?$AA?9?$AA1?$AA?$AA@ 1006af58     libvcruntime:winapi_downlevel.obj
 0002:00005fa0       ??_C@_1DK@LPPGFMPP@?$AAa?$AAp?$AAi?$AA?9?$AAm?$AAs?$AA?9?$AAw?$AAi?$AAn?$AA?9?$AAc?$AAo?$AAr?$AAe?$AA?9?$AAs?$AAy?$AAn?$AAc?$AAh?$AA?9?$AAl?$AA1?$AA?9?$AA2?$AA?9?$AA0?$AA?$AA@ 1006afa0     libvcruntime:winapi_downlevel.obj
 0002:00005fe8       ??_C@_1BC@GDMECMAK@?$AAk?$AAe?$AAr?$AAn?$AAe?$AAl?$AA3?$AA2?$AA?$AA@ 1006afe8     libvcruntime:winapi_downlevel.obj
 0002:00006004       ??_C@_0O@BAMBGLIE@EventRegister?$AA@ 1006b004     libvcruntime:winapi_downlevel.obj
 0002:00006018       ??_C@_0BE@BJEEGHGK@EventSetInformation?$AA@ 1006b018     libvcruntime:winapi_downlevel.obj
 0002:00006034       ??_C@_0BA@FAKLIPIC@EventUnregister?$AA@ 1006b034     libvcruntime:winapi_downlevel.obj
 0002:0000604c       ??_C@_0BD@PKLHJPHD@EventWriteTransfer?$AA@ 1006b04c     libvcruntime:winapi_downlevel.obj
 0002:00006070       ??_C@_08KNHFBNJ@FlsAlloc?$AA@ 1006b070     libvcruntime:winapi_downlevel.obj
 0002:00006088       ??_C@_07PEJMOBNF@FlsFree?$AA@ 1006b088     libvcruntime:winapi_downlevel.obj
 0002:000060a0       ??_C@_0M@GDNOONDI@FlsGetValue?$AA@ 1006b0a0     libvcruntime:winapi_downlevel.obj
 0002:000060bc       ??_C@_0M@JCPCPOEF@FlsSetValue?$AA@ 1006b0bc     libvcruntime:winapi_downlevel.obj
 0002:000060d8       ??_C@_0BM@HCFOFFN@InitializeCriticalSectionEx?$AA@ 1006b0d8     libvcruntime:winapi_downlevel.obj
 0002:000062e0       ??_C@_08EHJDFFNH@__based?$CI?$AA@ 1006b2e0     libvcruntime:undname.obj
 0002:000062ec       ??_C@_07KOLFKCDI@__cdecl?$AA@ 1006b2ec     libvcruntime:undname.obj
 0002:000062f8       ??_C@_08GHMPAG@__pascal?$AA@ 1006b2f8     libvcruntime:undname.obj
 0002:00006304       ??_C@_09IFJBGAPI@__stdcall?$AA@ 1006b304     libvcruntime:undname.obj
 0002:00006310       ??_C@_0L@NPHFGOKO@__thiscall?$AA@ 1006b310     libvcruntime:undname.obj
 0002:00006320       ??_C@_0L@JMKHOMEK@__fastcall?$AA@ 1006b320     libvcruntime:undname.obj
 0002:00006330       ??_C@_0N@BCKKPABJ@__vectorcall?$AA@ 1006b330     libvcruntime:undname.obj
 0002:00006340       ??_C@_09HIJEGCPM@__clrcall?$AA@ 1006b340     libvcruntime:undname.obj
 0002:0000634c       ??_C@_06GHPCKEAG@__eabi?$AA@ 1006b34c     libvcruntime:undname.obj
 0002:00006354       ??_C@_07JOMMBBKO@__ptr64?$AA@ 1006b354     libvcruntime:undname.obj
 0002:00006360       ??_C@_0L@PILCLIHE@__restrict?$AA@ 1006b360     libvcruntime:undname.obj
 0002:00006370       ??_C@_0M@GFIIJFMG@__unaligned?$AA@ 1006b370     libvcruntime:undname.obj
 0002:00006380       ??_C@_09DHDLOLLB@restrict?$CI?$AA@ 1006b380     libvcruntime:undname.obj
 0002:0000638c       ??_C@_04NIHEBCM@?5new?$AA@ 1006b38c     libvcruntime:undname.obj
 0002:00006394       ??_C@_07FPCDHGMM@?5delete?$AA@ 1006b394     libvcruntime:undname.obj
 0002:000063a0       ??_C@_01NEMOKFLO@?$DN?$AA@ 1006b3a0     libvcruntime:undname.obj
 0002:000063a4       ??_C@_02GPIOPFAK@?$DO?$DO?$AA@ 1006b3a4     libvcruntime:undname.obj
 0002:000063a8       ??_C@_02FODMEDOG@?$DM?$DM?$AA@ 1006b3a8     libvcruntime:undname.obj
 0002:000063ac       ??_C@_01DCLJPIOD@?$CB?$AA@ 1006b3ac     libvcruntime:undname.obj
 0002:000063b0       ??_C@_02EGOFBIJA@?$DN?$DN?$AA@ 1006b3b0     libvcruntime:undname.obj
 0002:000063b4       ??_C@_02FDNJECIE@?$CB?$DN?$AA@ 1006b3b4     libvcruntime:undname.obj
 0002:000063b8       ??_C@_02GPECMEKF@?$FL?$FN?$AA@ 1006b3b8     libvcruntime:undname.obj
 0002:000063bc       ??_C@_08LHJFAFGD@operator?$AA@ 1006b3bc     libvcruntime:undname.obj
 0002:000063c8       ??_C@_02HBOOOICD@?9?$DO?$AA@ 1006b3c8     libvcruntime:undname.obj
 0002:000063cc       ??_C@_01NBENCBCI@?$CK?$AA@ 1006b3cc     libvcruntime:undname.obj
 0002:000063d0       ??_C@_02ECNGHCIF@?$CL?$CL?$AA@ 1006b3d0     libvcruntime:undname.obj
 0002:000063d4       ??_C@_02BAABKJLB@?9?9?$AA@ 1006b3d4     libvcruntime:undname.obj
 0002:000063d8       ??_C@_01JOAMLHOP@?9?$AA@   1006b3d8     libvcruntime:undname.obj
 0002:000063dc       ??_C@_01MIFGBAGJ@?$CL?$AA@ 1006b3dc     libvcruntime:undname.obj
 0002:000063e0       ??_C@_01HNPIGOCE@?$CG?$AA@ 1006b3e0     libvcruntime:undname.obj
 0002:000063e4       ??_C@_03MNHNFDLC@?9?$DO?$CK?$AA@ 1006b3e4     libvcruntime:undname.obj
 0002:000063e8       ??_C@_01KMDKNFGN@?1?$AA@   1006b3e8     libvcruntime:undname.obj
 0002:000063ec       ??_C@_01FGNFDNOH@?$CF?$AA@ 1006b3ec     libvcruntime:undname.obj
 0002:000063f0       ??_C@_01MNNFJEPP@?$DM?$AA@ 1006b3f0     libvcruntime:undname.obj
 0002:000063f4       ??_C@_02EHCHHCKH@?$DM?$DN?$AA@ 1006b3f4     libvcruntime:undname.obj
 0002:000063f8       ??_C@_01PPODPGHN@?$DO?$AA@ 1006b3f8     libvcruntime:undname.obj
 0002:000063fc       ??_C@_02EEKDKGMJ@?$DO?$DN?$AA@ 1006b3fc     libvcruntime:undname.obj
 0002:00006400       ??_C@_01IHBHIGKO@?0?$AA@   1006b400     libvcruntime:undname.obj
 0002:00006404       ??_C@_02HCKGKOFO@?$CI?$CJ?$AA@ 1006b404     libvcruntime:undname.obj
 0002:00006408       ??_C@_01PJKLJHI@?$HO?$AA@  1006b408     libvcruntime:undname.obj
 0002:0000640c       ??_C@_01JKBOJNNK@?$FO?$AA@ 1006b40c     libvcruntime:undname.obj
 0002:00006410       ??_C@_01DNKMNLPK@?$HM?$AA@ 1006b410     libvcruntime:undname.obj
 0002:00006414       ??_C@_02PPKAJPJL@?$CG?$CG?$AA@ 1006b414     libvcruntime:undname.obj
 0002:00006418       ??_C@_02NONPIBCD@?$HM?$HM?$AA@ 1006b418     libvcruntime:undname.obj
 0002:0000641c       ??_C@_02FPIMKNGF@?$CK?$DN?$AA@ 1006b41c     libvcruntime:undname.obj
 0002:00006420       ??_C@_02FOEOMHFC@?$CL?$DN?$AA@ 1006b420     libvcruntime:undname.obj
 0002:00006424       ??_C@_02FKMDLLOA@?9?$DN?$AA@ 1006b424     libvcruntime:undname.obj
 0002:00006428       ??_C@_02FJEHGPIO@?1?$DN?$AA@ 1006b428     libvcruntime:undname.obj
 0002:0000642c       ??_C@_02FENAOKFI@?$CF?$DN?$AA@ 1006b42c     libvcruntime:undname.obj
 0002:00006430       ??_C@_03IKFCCPFF@?$DO?$DO?$DN?$AA@ 1006b430     libvcruntime:undname.obj
 0002:00006434       ??_C@_03CDNPDDLA@?$DM?$DM?$DN?$AA@ 1006b434     libvcruntime:undname.obj
 0002:00006438       ??_C@_02FGJGFEAB@?$CG?$DN?$AA@ 1006b438     libvcruntime:undname.obj
 0002:0000643c       ??_C@_02DHLNPPGH@?$HM?$DN?$AA@ 1006b43c     libvcruntime:undname.obj
 0002:00006440       ??_C@_02MHEGNOJ@?$FO?$DN?$AA@ 1006b440     libvcruntime:undname.obj
 0002:00006444       ??_C@_09IFPLHPGF@?$GAvftable?8?$AA@ 1006b444     libvcruntime:undname.obj
 0002:00006450       ??_C@_09BLBHBJP@?$GAvbtable?8?$AA@ 1006b450     libvcruntime:undname.obj
 0002:0000645c       ??_C@_07FEEIOKP@?$GAvcall?8?$AA@ 1006b45c     libvcruntime:undname.obj
 0002:00006468       ??_C@_08LLFFHHDJ@?$GAtypeof?8?$AA@ 1006b468     libvcruntime:undname.obj
 0002:00006474       ??_C@_0BF@KDPPACIK@?$GAlocal?5static?5guard?8?$AA@ 1006b474     libvcruntime:undname.obj
 0002:00006490       ??_C@_08OBABFOLI@?$GAstring?8?$AA@ 1006b490     libvcruntime:undname.obj
 0002:0000649c       ??_C@_0BD@JDLKDPAB@?$GAvbase?5destructor?8?$AA@ 1006b49c     libvcruntime:undname.obj
 0002:000064b4       ??_C@_0BN@DEGPLNFK@?$GAvector?5deleting?5destructor?8?$AA@ 1006b4b4     libvcruntime:undname.obj
 0002:000064d8       ??_C@_0BO@OBMKPJIG@?$GAdefault?5constructor?5closure?8?$AA@ 1006b4d8     libvcruntime:undname.obj
 0002:000064fc       ??_C@_0BN@IMDCHIKM@?$GAscalar?5deleting?5destructor?8?$AA@ 1006b4fc     libvcruntime:undname.obj
 0002:00006520       ??_C@_0BO@PFGOCPJJ@?$GAvector?5constructor?5iterator?8?$AA@ 1006b520     libvcruntime:undname.obj
 0002:00006544       ??_C@_0BN@LFPFMEDL@?$GAvector?5destructor?5iterator?8?$AA@ 1006b544     libvcruntime:undname.obj
 0002:00006568       ??_C@_0CE@IKBNEHA@?$GAvector?5vbase?5constructor?5iterat@ 1006b568     libvcruntime:undname.obj
 0002:00006594       ??_C@_0BL@NILFHHPC@?$GAvirtual?5displacement?5map?8?$AA@ 1006b594     libvcruntime:undname.obj
 0002:000065b4       ??_C@_0CB@JONCMFFK@?$GAeh?5vector?5constructor?5iterator?8@ 1006b5b4     libvcruntime:undname.obj
 0002:000065dc       ??_C@_0CA@GCEOPDGL@?$GAeh?5vector?5destructor?5iterator?8?$AA@ 1006b5dc     libvcruntime:undname.obj
 0002:00006604       ??_C@_0CH@OOJPLCPH@?$GAeh?5vector?5vbase?5constructor?5ite@ 1006b604     libvcruntime:undname.obj
 0002:00006634       ??_C@_0BL@LLKPOHJI@?$GAcopy?5constructor?5closure?8?$AA@ 1006b634     libvcruntime:undname.obj
 0002:00006654       ??_C@_0BA@KBCDOMBN@?$GAudt?5returning?8?$AA@ 1006b654     libvcruntime:undname.obj
 0002:00006668       ??_C@_03KLGMFNMG@?$GAEH?$AA@ 1006b668     libvcruntime:undname.obj
 0002:0000666c       ??_C@_05KHLCHHI@?$GARTTI?$AA@ 1006b66c     libvcruntime:undname.obj
 0002:00006674       ??_C@_0BA@KKLDJDLB@?$GAlocal?5vftable?8?$AA@ 1006b674     libvcruntime:undname.obj
 0002:00006688       ??_C@_0CE@IIHCMGGL@?$GAlocal?5vftable?5constructor?5closu@ 1006b688     libvcruntime:undname.obj
 0002:000066b4       ??_C@_06FHBGPFGH@?5new?$FL?$FN?$AA@ 1006b6b4     libvcruntime:undname.obj
 0002:000066bc       ??_C@_09LBNFPBCA@?5delete?$FL?$FN?$AA@ 1006b6bc     libvcruntime:undname.obj
 0002:000066c8       ??_C@_0P@HJKNJFNN@?$GAomni?5callsig?8?$AA@ 1006b6c8     libvcruntime:undname.obj
 0002:000066dc       ??_C@_0BL@CNOONJFP@?$GAplacement?5delete?5closure?8?$AA@ 1006b6dc     libvcruntime:undname.obj
 0002:000066fc       ??_C@_0BN@CKNJLHMB@?$GAplacement?5delete?$FL?$FN?5closure?8?$AA@ 1006b6fc     libvcruntime:undname.obj
 0002:00006720       ??_C@_0CG@CFDHKGGD@?$GAmanaged?5vector?5constructor?5iter@ 1006b720     libvcruntime:undname.obj
 0002:00006750       ??_C@_0CF@IMGKMJNO@?$GAmanaged?5vector?5destructor?5itera@ 1006b750     libvcruntime:undname.obj
 0002:0000677c       ??_C@_0CG@HLDDJMAG@?$GAeh?5vector?5copy?5constructor?5iter@ 1006b77c     libvcruntime:undname.obj
 0002:000067ac       ??_C@_0CM@FCBBDIGB@?$GAeh?5vector?5vbase?5copy?5constructo@ 1006b7ac     libvcruntime:undname.obj
 0002:000067e0       ??_C@_0BL@CLIPGLGB@?$GAdynamic?5initializer?5for?5?8?$AA@ 1006b7e0     libvcruntime:undname.obj
 0002:00006800       ??_C@_0CB@PDBIFEP@?$GAdynamic?5atexit?5destructor?5for?5?8@ 1006b800     libvcruntime:undname.obj
 0002:00006828       ??_C@_0CD@CGAJBKEJ@?$GAvector?5copy?5constructor?5iterato@ 1006b828     libvcruntime:undname.obj
 0002:00006854       ??_C@_0CJ@GJELGAMM@?$GAvector?5vbase?5copy?5constructor?5i@ 1006b854     libvcruntime:undname.obj
 0002:00006888       ??_C@_0CL@FGIJHLCE@?$GAmanaged?5vector?5copy?5constructor@ 1006b888     libvcruntime:undname.obj
 0002:000068bc       ??_C@_0BM@PMGGMLDN@?$GAlocal?5static?5thread?5guard?8?$AA@ 1006b8bc     libvcruntime:undname.obj
 0002:000068e0       ??_C@_0N@BDNMDMOL@operator?5?$CC?$CC?5?$AA@ 1006b8e0     libvcruntime:undname.obj
 0002:000068f0       ??_C@_0BC@DAFEJGAK@?5Type?5Descriptor?8?$AA@ 1006b8f0     libvcruntime:undname.obj
 0002:00006908       ??_C@_0BM@LDKODKLH@?5Base?5Class?5Descriptor?5at?5?$CI?$AA@ 1006b908     libvcruntime:undname.obj
 0002:0000692c       ??_C@_0BD@LGICGFMM@?5Base?5Class?5Array?8?$AA@ 1006b92c     libvcruntime:undname.obj
 0002:00006944       ??_C@_0BN@MECKDCOJ@?5Class?5Hierarchy?5Descriptor?8?$AA@ 1006b944     libvcruntime:undname.obj
 0002:00006968       ??_C@_0BK@CFCOFLF@?5Complete?5Object?5Locator?8?$AA@ 1006b968     libvcruntime:undname.obj
 0002:00006988       ??_C@_04HEJADOOB@CV?3?5?$AA@ 1006b988     libvcruntime:undname.obj
 0002:00006990       ??_C@_02MOLJINC@?3?3?$AA@  1006b990     libvcruntime:undname.obj
 0002:00006994       ??_C@_0BE@JAEOCHPE@template?9parameter?9?$AA@ 1006b994     libvcruntime:undname.obj
 0002:000069ac       ??_C@_0O@KHGCOMHP@generic?9type?9?$AA@ 1006b9ac     libvcruntime:undname.obj
 0002:000069bc       ??_C@_01NLNLIGKH@?$GA?$AA@ 1006b9bc     libvcruntime:undname.obj
 0002:000069c0       ??_C@_01GEODFPGF@?8?$AA@   1006b9c0     libvcruntime:undname.obj
 0002:000069c4       ??_C@_0BG@JNJLAMPM@?$GAanonymous?5namespace?8?$AA@ 1006b9c4     libvcruntime:undname.obj
 0002:000069e0       ??_C@_02OHHJMEON@?8?8?$AA@ 1006b9e0     libvcruntime:undname.obj
 0002:000069e4       ??_C@_0BN@IBLMMFAP@?$GAnon?9type?9template?9parameter?$AA@ 1006b9e4     libvcruntime:undname.obj
 0002:00006a08       ??_C@_04GKJNKENE@void?$AA@ 1006ba08     libvcruntime:undname.obj
 0002:00006a10       ??_C@_0BE@EODMJLIF@?$GAtemplate?9parameter?$AA@ 1006ba10     libvcruntime:undname.obj
 0002:00006a28       ??_C@_03KHICJKCI@?4?4?4?$AA@ 1006ba28     libvcruntime:undname.obj
 0002:00006a2c       ??_C@_04HIBGFPH@NULL?$AA@  1006ba2c     libvcruntime:undname.obj
 0002:00006a34       ??_C@_02DPKJAMEF@?$CFd?$AA@ 1006ba34     libvcruntime:undname.obj
 0002:00006a38       ??_C@_0BK@IHCCFNEL@?$GAtemplate?9type?9parameter?9?$AA@ 1006ba38     libvcruntime:undname.obj
 0002:00006a58       ??_C@_0BK@OFCNNNKO@?$GAgeneric?9class?9parameter?9?$AA@ 1006ba58     libvcruntime:undname.obj
 0002:00006a78       ??_C@_0BL@NGJBLFIL@?$GAgeneric?9method?9parameter?9?$AA@ 1006ba78     libvcruntime:undname.obj
 0002:00006a98       ??_C@_03OPGICMGF@?$HN?8?5?$AA@ 1006ba98     libvcruntime:undname.obj
 0002:00006a9c       ??_C@_02IGFCGPIL@?$HN?8?$AA@ 1006ba9c     libvcruntime:undname.obj
 0002:00006aa0       ??_C@_01CLKCMJKC@?5?$AA@   1006baa0     libvcruntime:undname.obj
 0002:00006aa4       ??_C@_0N@CBHHHENL@?$GAvtordispex?$HL?$AA@ 1006baa4     libvcruntime:undname.obj
 0002:00006ab4       ??_C@_0L@GHPFDFH@?$GAvtordisp?$HL?$AA@ 1006bab4     libvcruntime:undname.obj
 0002:00006ac4       ??_C@_0L@HNGCOGAE@?$GAadjustor?$HL?$AA@ 1006bac4     libvcruntime:undname.obj
 0002:00006ad4       ??_C@_0CB@KJDOOODE@?$GAlocal?5static?5destructor?5helper?8@ 1006bad4     libvcruntime:undname.obj
 0002:00006afc       ??_C@_0DB@ILEFOCIJ@?$GAtemplate?5static?5data?5member?5con@ 1006bafc     libvcruntime:undname.obj
 0002:00006b38       ??_C@_0DA@HGFJFBBE@?$GAtemplate?5static?5data?5member?5des@ 1006bb38     libvcruntime:undname.obj
 0002:00006b74       ??_C@_07PGOEDBHP@static?5?$AA@ 1006bb74     libvcruntime:undname.obj
 0002:00006b80       ??_C@_08NIEOINHE@virtual?5?$AA@ 1006bb80     libvcruntime:undname.obj
 0002:00006b8c       ??_C@_09LAPHOOG@private?3?5?$AA@ 1006bb8c     libvcruntime:undname.obj
 0002:00006b98       ??_C@_0M@GAIFPFIP@protected?3?5?$AA@ 1006bb98     libvcruntime:undname.obj
 0002:00006ba8       ??_C@_08GPDDCMKI@public?3?5?$AA@ 1006bba8     libvcruntime:undname.obj
 0002:00006bb4       ??_C@_08KJLFOPNE@?$FLthunk?$FN?3?$AA@ 1006bbb4     libvcruntime:undname.obj
 0002:00006bc0       ??_C@_0M@DHNBOJMP@extern?5?$CCC?$CC?5?$AA@ 1006bbc0     libvcruntime:undname.obj
 0002:00006bd0       ??_C@_02KCKGHPCA@?$CJ?5?$AA@ 1006bbd0     libvcruntime:undname.obj
 0002:00006bd4       ??_C@_05CIHEBHNO@char?5?$AA@ 1006bbd4     libvcruntime:undname.obj
 0002:00006bdc       ??_C@_06EHJMALKF@short?5?$AA@ 1006bbdc     libvcruntime:undname.obj
 0002:00006be4       ??_C@_04LAHKHJMA@int?5?$AA@ 1006bbe4     libvcruntime:undname.obj
 0002:00006bec       ??_C@_05CJIMAING@long?5?$AA@ 1006bbec     libvcruntime:undname.obj
 0002:00006bf4       ??_C@_09EBBEKKIH@unsigned?5?$AA@ 1006bbf4     libvcruntime:undname.obj
 0002:00006c00       ??_C@_05BEFAKPML@void?5?$AA@ 1006bc00     libvcruntime:undname.obj
 0002:00006c08       ??_C@_08PABEKFH@volatile?$AA@ 1006bc08     libvcruntime:undname.obj
 0002:00006c14       ??_C@_0BA@LKIJLKPP@std?3?3nullptr_t?5?$AA@ 1006bc14     libvcruntime:undname.obj
 0002:00006c28       ??_C@_0P@GCOCNKDM@std?3?3nullptr_t?$AA@ 1006bc28     libvcruntime:undname.obj
 0002:00006c3c       ??_C@_0L@EGPHHEKN@?$DMellipsis?$DO?$AA@ 1006bc3c     libvcruntime:undname.obj
 0002:00006c4c       ??_C@_04EENFHACM@?0?4?4?4?$AA@ 1006bc4c     libvcruntime:undname.obj
 0002:00006c54       ??_C@_0M@ELJOJFFH@?0?$DMellipsis?$DO?$AA@ 1006bc54     libvcruntime:undname.obj
 0002:00006c64       ??_C@_07HDJPLPEK@?5throw?$CI?$AA@ 1006bc64     libvcruntime:undname.obj
 0002:00006c70       ??_C@_03PBJBJNON@cpu?$AA@  1006bc70     libvcruntime:undname.obj
 0002:00006c74       ??_C@_03DCBBJBAA@amp?$AA@  1006bc74     libvcruntime:undname.obj
 0002:00006c78       ??_C@_02KEGNLNML@?0?5?$AA@ 1006bc78     libvcruntime:undname.obj
 0002:00006c7c       ??_C@_04ENMBGAPA@char?$AA@ 1006bc7c     libvcruntime:undname.obj
 0002:00006c84       ??_C@_05BFKKPKCG@short?$AA@ 1006bc84     libvcruntime:undname.obj
 0002:00006c8c       ??_C@_03JBIPMCLC@int?$AA@  1006bc8c     libvcruntime:undname.obj
 0002:00006c90       ??_C@_04GOKPGOLB@long?$AA@ 1006bc90     libvcruntime:undname.obj
 0002:00006c98       ??_C@_04DDKJGDCM@bool?$AA@ 1006bc98     libvcruntime:undname.obj
 0002:00006ca0       ??_C@_06EBGKOKIG@__int8?$AA@ 1006bca0     libvcruntime:undname.obj
 0002:00006ca8       ??_C@_07ICFHOGAF@__int16?$AA@ 1006bca8     libvcruntime:undname.obj
 0002:00006cb4       ??_C@_07OFLPPHGP@__int32?$AA@ 1006bcb4     libvcruntime:undname.obj
 0002:00006cc0       ??_C@_07LFCOJCAC@__int64?$AA@ 1006bcc0     libvcruntime:undname.obj
 0002:00006ccc       ??_C@_08GAHOLHEO@__int128?$AA@ 1006bccc     libvcruntime:undname.obj
 0002:00006cd8       ??_C@_09EEKGDCPH@?$DMunknown?$DO?$AA@ 1006bcd8     libvcruntime:undname.obj
 0002:00006ce4       ??_C@_08HBIPOFJB@char16_t?$AA@ 1006bce4     libvcruntime:undname.obj
 0002:00006cf0       ??_C@_08IECNCBKG@char32_t?$AA@ 1006bcf0     libvcruntime:undname.obj
 0002:00006cfc       ??_C@_07CLGGIAMF@wchar_t?$AA@ 1006bcfc     libvcruntime:undname.obj
 0002:00006d08       ??_C@_06GCICPBLB@__w64?5?$AA@ 1006bd08     libvcruntime:undname.obj
 0002:00006d10       ??_C@_07NFANNNEC@UNKNOWN?$AA@ 1006bd10     libvcruntime:undname.obj
 0002:00006d1c       ??_C@_07EDHNAJHC@signed?5?$AA@ 1006bd1c     libvcruntime:undname.obj
 0002:00006d28       ??_C@_05BNCCCJPP@const?$AA@ 1006bd28     libvcruntime:undname.obj
 0002:00006d30       ??_C@_09EFNPDFFP@?5volatile?$AA@ 1006bd30     libvcruntime:undname.obj
 0002:00006d3c       ??_C@_0P@GCIFDJCJ@?$GAunknown?5ecsu?8?$AA@ 1006bd3c     libvcruntime:undname.obj
 0002:00006d50       ??_C@_06MOJHIBMG@union?5?$AA@ 1006bd50     libvcruntime:undname.obj
 0002:00006d58       ??_C@_07DIBCDNGL@struct?5?$AA@ 1006bd58     libvcruntime:undname.obj
 0002:00006d64       ??_C@_06LJBABKPM@class?5?$AA@ 1006bd64     libvcruntime:undname.obj
 0002:00006d6c       ??_C@_08KOFANOFK@coclass?5?$AA@ 1006bd6c     libvcruntime:undname.obj
 0002:00006d78       ??_C@_0N@DLIEFKNA@cointerface?5?$AA@ 1006bd78     libvcruntime:undname.obj
 0002:00006d88       ??_C@_05LJGMCFOG@enum?5?$AA@ 1006bd88     libvcruntime:undname.obj
 0002:00006d90       ??_C@_09GAIEOBLP@volatile?5?$AA@ 1006bd90     libvcruntime:undname.obj
 0002:00006d9c       ??_C@_06LIJLOJAG@const?5?$AA@ 1006bd9c     libvcruntime:undname.obj
 0002:00006da4       ??_C@_02KJPKDIBN@?$CG?5?$AA@ 1006bda4     libvcruntime:undname.obj
 0002:00006da8       ??_C@_03PCKGMOPB@?$CG?$CG?5?$AA@ 1006bda8     libvcruntime:undname.obj
 0002:00006dac       ??_C@_0M@EALIELKG@cli?3?3array?$DM?$AA@ 1006bdac     libvcruntime:undname.obj
 0002:00006dbc       ??_C@_0O@GKABPPIF@cli?3?3pin_ptr?$DM?$AA@ 1006bdbc     libvcruntime:undname.obj
 0002:00006dcc       ??_C@_02GOGNNPBN@?$CJ?$FL?$AA@ 1006bdcc     libvcruntime:undname.obj
 0002:00006dd0       ??_C@_06EEGAIFAK@?$HLflat?$HN?$AA@ 1006bdd0     libvcruntime:undname.obj
 0002:00006dd8       ??_C@_05JIBOFOHK@?$HLfor?5?$AA@ 1006bdd8     libvcruntime:undname.obj
 0002:00006de0       ??_C@_02MDINNEEG@s?5?$AA@  1006bde0     libvcruntime:undname.obj
 0002:00006de8       ??_7DNameNode@@6B@         1006bde8     libvcruntime:undname.obj
 0002:00006dfc       ??_7charNode@@6B@          1006bdfc     libvcruntime:undname.obj
 0002:00006e10       ??_7pcharNode@@6B@         1006be10     libvcruntime:undname.obj
 0002:00006e24       ??_7pDNameNode@@6B@        1006be24     libvcruntime:undname.obj
 0002:00006e38       ??_7DNameStatusNode@@6B@   1006be38     libvcruntime:undname.obj
 0002:00006e4c       ??_7pairNode@@6B@          1006be4c     libvcruntime:undname.obj
 0002:00006e5c       ??_C@_04OKOHEJBO@?5?$DP?$DP?5?$AA@ 1006be5c     libvcruntime:undname.obj
 0002:00006e68       _standard_lookup_table     1006be68     libucrt:output.obj
 0002:00006ed8       _format_validation_lookup_table 1006bed8     libucrt:output.obj
 0002:00006f48       ??_C@_06OJHGLDPL@?$CInull?$CJ?$AA@ 1006bf48     libucrt:output.obj
 0002:00006f50       ??_C@_1O@CEDCILHN@?$AA?$CI?$AAn?$AAu?$AAl?$AAl?$AA?$CJ?$AA?$AA@ 1006bf50     libucrt:output.obj
 0002:00006f60       _RtlNtPathSeperatorString  1006bf60     libucrt:exit.obj
 0002:00006f6c       ??_C@_13FPGAJAPJ@?$AA?2?$AA?$AA@ 1006bf6c     libucrt:exit.obj
 0002:00006f70       _RtlDosPathSeperatorsString 1006bf70     libucrt:exit.obj
 0002:00006f7c       ??_C@_15MNCACJLI@?$AA?2?$AA?1?$AA?$AA@ 1006bf7c     libucrt:exit.obj
 0002:00006f84       _RtlAlternateDosPathSeperatorString 1006bf84     libucrt:exit.obj
 0002:00006f90       ??_C@_13CGOKJPIL@?$AA?1?$AA?$AA@ 1006bf90     libucrt:exit.obj
 0002:00006f94       ??_C@_1BI@BGOHAHKC@?$AAm?$AAs?$AAc?$AAo?$AAr?$AAe?$AAe?$AA?4?$AAd?$AAl?$AAl?$AA?$AA@ 1006bf94     libucrt:exit.obj
 0002:00006fb0       ??_C@_0P@MIGLKIOC@CorExitProcess?$AA@ 1006bfb0     libucrt:exit.obj
 0002:00006fc4       ??_C@_0CF@GOGNBNAK@Microsoft?5Visual?5C?$CL?$CL?5Runtime?5Lib@ 1006bfc4     libucrt:assert.obj
 0002:00006ff0       ??_C@_1EK@MBDPDCGA@?$AAM?$AAi?$AAc?$AAr?$AAo?$AAs?$AAo?$AAf?$AAt?$AA?5?$AAV?$AAi?$AAs?$AAu?$AAa?$AAl?$AA?5?$AAC?$AA?$CL?$AA?$CL?$AA?5?$AAR?$AAu?$AAn?$AAt?$AAi?$AAm?$AAe?$AA?5?$AAL?$AAi?$AAb@ 1006bff0     libucrt:assert.obj
 0002:00007048       ??_C@_0CK@CFPGFGGO@Assertion?5failed?3?5?$CFTs?0?5file?5?$CFTs?0@ 1006c048     libucrt:assert.obj
 0002:00007080       ??_C@_1FE@LHBLIKM@?$AAA?$AAs?$AAs?$AAe?$AAr?$AAt?$AAi?$AAo?$AAn?$AA?5?$AAf?$AAa?$AAi?$AAl?$AAe?$AAd?$AA?3?$AA?5?$AA?$CF?$AAT?$AAs?$AA?0?$AA?5?$AAf?$AAi?$AAl?$AAe?$AA?5?$AA?$CF?$AAT?$AAs?$AA?0@ 1006c080     libucrt:assert.obj
 0002:000070e4       ??_C@_0BC@LAIDCHCH@Assertion?5failed?$CB?$AA@ 1006c0e4     libucrt:assert.obj
 0002:000070fc       ??_C@_1CE@OJBNHDMO@?$AAA?$AAs?$AAs?$AAe?$AAr?$AAt?$AAi?$AAo?$AAn?$AA?5?$AAf?$AAa?$AAi?$AAl?$AAe?$AAd?$AA?$CB?$AA?$AA@ 1006c0fc     libucrt:assert.obj
 0002:00007128       ??_C@_09KLGCKDOD@Program?3?5?$AA@ 1006c128     libucrt:assert.obj
 0002:00007134       ??_C@_1BE@PHKBBGE@?$AAP?$AAr?$AAo?$AAg?$AAr?$AAa?$AAm?$AA?3?$AA?5?$AA?$AA@ 1006c134     libucrt:assert.obj
 0002:0000714c       ??_C@_06IGPBOHMJ@File?3?5?$AA@ 1006c14c     libucrt:assert.obj
 0002:00007154       ??_C@_1O@HEMHKNDC@?$AAF?$AAi?$AAl?$AAe?$AA?3?$AA?5?$AA?$AA@ 1006c154     libucrt:assert.obj
 0002:00007164       ??_C@_06FIEBOLOH@Line?3?5?$AA@ 1006c164     libucrt:assert.obj
 0002:0000716c       ??_C@_1O@KCAFKHJE@?$AAL?$AAi?$AAn?$AAe?$AA?3?$AA?5?$AA?$AA@ 1006c16c     libucrt:assert.obj
 0002:0000717c       ??_C@_0N@MEECIJGN@Expression?3?5?$AA@ 1006c17c     libucrt:assert.obj
 0002:0000718c       ??_C@_1BK@PEDCIPMA@?$AAE?$AAx?$AAp?$AAr?$AAe?$AAs?$AAs?$AAi?$AAo?$AAn?$AA?3?$AA?5?$AA?$AA@ 1006c18c     libucrt:assert.obj
 0002:000071b0       ??_C@_0HA@OJHAGA@For?5information?5on?5how?5your?5prog@ 1006c1b0     libucrt:assert.obj
 0002:00007238       ??_C@_1OA@EGMLFBHJ@?$AAF?$AAo?$AAr?$AA?5?$AAi?$AAn?$AAf?$AAo?$AAr?$AAm?$AAa?$AAt?$AAi?$AAo?$AAn?$AA?5?$AAo?$AAn?$AA?5?$AAh?$AAo?$AAw?$AA?5?$AAy?$AAo?$AAu?$AAr?$AA?5?$AAp?$AAr?$AAo?$AAg@ 1006c238     libucrt:assert.obj
 0002:00007344       ??_C@_0DN@EBBNMLME@?$CIPress?5Retry?5to?5debug?5the?5applic@ 1006c344     libucrt:assert.obj
 0002:00007390       ??_C@_1HK@POCJMFGK@?$AA?$CI?$AAP?$AAr?$AAe?$AAs?$AAs?$AA?5?$AAR?$AAe?$AAt?$AAr?$AAy?$AA?5?$AAt?$AAo?$AA?5?$AAd?$AAe?$AAb?$AAu?$AAg?$AA?5?$AAt?$AAh?$AAe?$AA?5?$AAa?$AAp?$AAp?$AAl?$AAi?$AAc@ 1006c390     libucrt:assert.obj
 0002:00007424       ??_C@_17LGKOMLJ@?$AA?4?$AA?4?$AA?4?$AA?$AA@ 1006c424     libucrt:assert.obj
 0002:00007430       ??_C@_01EEMJAFIK@?6?$AA@   1006c430     libucrt:assert.obj
 0002:00007434       ??_C@_13LBAGMAIH@?$AA?6?$AA?$AA@ 1006c434     libucrt:assert.obj
 0002:00007438       ??_C@_02PHMGELLB@?6?6?$AA@ 1006c438     libucrt:assert.obj
 0002:0000743c       ??_C@_15IABLJNFO@?$AA?6?$AA?6?$AA?$AA@ 1006c43c     libucrt:assert.obj
 0002:00007444       ??_C@_0BH@DNAGHKFM@?$DMprogram?5name?5unknown?$DO?$AA@ 1006c444     libucrt:assert.obj
 0002:00007460       ??_C@_1CO@EAEJAADC@?$AA?$DM?$AAp?$AAr?$AAo?$AAg?$AAr?$AAa?$AAm?$AA?5?$AAn?$AAa?$AAm?$AAe?$AA?5?$AAu?$AAn?$AAk?$AAn?$AAo?$AAw?$AAn?$AA?$DO?$AA?$AA@ 1006c460     libucrt:assert.obj
 0002:00007498       ??_C@_04FJHINJAO@tanh?$AA@ 1006c498     libucrt:fpexcept.obj
 0002:000074a0       ??_C@_04FIHNOPOL@asin?$AA@ 1006c4a0     libucrt:fpexcept.obj
 0002:000074a8       ??_C@_04PDIFKINK@acos?$AA@ 1006c4a8     libucrt:fpexcept.obj
 0002:000074b0       ??_C@_04MLLJIGOK@atan?$AA@ 1006c4b0     libucrt:fpexcept.obj
 0002:000074b8       ??_C@_05KNGEOGJB@atan2?$AA@ 1006c4b8     libucrt:fpexcept.obj
 0002:000074c0       ??_C@_04EIAKFFMI@sqrt?$AA@ 1006c4c0     libucrt:fpexcept.obj
 0002:000074c8       ??_C@_03BLEJJJBH@sin?$AA@  1006c4c8     libucrt:fpexcept.obj
 0002:000074cc       ??_C@_03LALBNOCG@cos?$AA@  1006c4cc     libucrt:fpexcept.obj
 0002:000074d0       ??_C@_03IIINPABG@tan?$AA@  1006c4d0     libucrt:fpexcept.obj
 0002:000074d4       ??_C@_04GFPJNGEK@ceil?$AA@ 1006c4d4     libucrt:fpexcept.obj
 0002:000074dc       ??_C@_05PBJFFIGL@floor?$AA@ 1006c4dc     libucrt:fpexcept.obj
 0002:000074e4       ??_C@_04ODHECPBC@fabs?$AA@ 1006c4e4     libucrt:fpexcept.obj
 0002:000074ec       ??_C@_04EHEDPDJG@modf?$AA@ 1006c4ec     libucrt:fpexcept.obj
 0002:000074f4       ??_C@_05CEJMAHNP@ldexp?$AA@ 1006c4f4     libucrt:fpexcept.obj
 0002:000074fc       ??_C@_05KBKMEMPO@_cabs?$AA@ 1006c4fc     libucrt:fpexcept.obj
 0002:00007504       ??_C@_06MEIMCGCF@_hypot?$AA@ 1006c504     libucrt:fpexcept.obj
 0002:0000750c       ??_C@_04KEPJIHGP@fmod?$AA@ 1006c50c     libucrt:fpexcept.obj
 0002:00007514       ??_C@_05GKKHEGJL@frexp?$AA@ 1006c514     libucrt:fpexcept.obj
 0002:0000751c       ??_C@_03MJLDFKDL@_y0?$AA@  1006c51c     libucrt:fpexcept.obj
 0002:00007520       ??_C@_03NAKIGLHK@_y1?$AA@  1006c520     libucrt:fpexcept.obj
 0002:00007524       ??_C@_03ONILCKOB@_yn?$AA@  1006c524     libucrt:fpexcept.obj
 0002:00007528       ??_C@_05JGDBENOH@_logb?$AA@ 1006c528     libucrt:fpexcept.obj
 0002:00007530       ??_C@_0L@KDOEJCKC@_nextafter?$AA@ 1006c530     libucrt:fpexcept.obj
 0002:00007658       ??_C@_03KHJOGHMM@exp?$AA@  1006c658     libucrt:fpexcept.obj
 0002:0000765c       ??_C@_03JGHBODFD@pow?$AA@  1006c65c     libucrt:fpexcept.obj
 0002:00007660       ??_C@_03MGHMBJCF@log?$AA@  1006c660     libucrt:fpexcept.obj
 0002:00007664       ??_C@_05HGHHAHAP@log10?$AA@ 1006c664     libucrt:fpexcept.obj
 0002:0000766c       ??_C@_04COOMCNPB@sinh?$AA@ 1006c66c     libucrt:fpexcept.obj
 0002:00007674       ??_C@_04HPJJNFIM@cosh?$AA@ 1006c674     libucrt:fpexcept.obj
 0002:00007680       ___acrt_exception_action_table 1006c680     libucrt:exception_filter.obj
 0002:0000772c       ___acrt_signal_action_table_count 1006c72c     libucrt:exception_filter.obj
 0002:00007730       ___acrt_signal_action_table_size 1006c730     libucrt:exception_filter.obj
 0002:00007734       ___acrt_signal_action_first_fpe_index 1006c734     libucrt:exception_filter.obj
 0002:00007738       ___acrt_signal_action_fpe_count 1006c738     libucrt:exception_filter.obj
 0002:000077d0       ??_C@_1BG@HHIFPOEK@?$AAm?$AAs?$AAv?$AAc?$AAr?$AAt?$AA?4?$AAd?$AAl?$AAl?$AA?$AA@ 1006c7d0     libucrt:free_base.obj
 0002:000077ec       __Fenv0                    1006c7ec     libucrt:atox.obj
 0002:00007a08       ??_C@_1EG@CNNIPFIM@?$AAa?$AAp?$AAi?$AA?9?$AAm?$AAs?$AA?9?$AAw?$AAi?$AAn?$AA?9?$AAa?$AAp?$AAp?$AAm?$AAo?$AAd?$AAe?$AAl?$AA?9?$AAr?$AAu?$AAn?$AAt?$AAi?$AAm?$AAe?$AA?9?$AAl?$AA1?$AA?9?$AA1@ 1006ca08     libucrt:winapi_thunks.obj
 0002:00007a60       ??_C@_1EA@JGEFHKEI@?$AAa?$AAp?$AAi?$AA?9?$AAm?$AAs?$AA?9?$AAw?$AAi?$AAn?$AA?9?$AAc?$AAo?$AAr?$AAe?$AA?9?$AAd?$AAa?$AAt?$AAe?$AAt?$AAi?$AAm?$AAe?$AA?9?$AAl?$AA1?$AA?9?$AA1?$AA?9?$AA1?$AA?$AA@ 1006ca60     libucrt:winapi_thunks.obj
 0002:00007aac       ??_C@_1DI@GCIAAENM@?$AAa?$AAp?$AAi?$AA?9?$AAm?$AAs?$AA?9?$AAw?$AAi?$AAn?$AA?9?$AAc?$AAo?$AAr?$AAe?$AA?9?$AAf?$AAi?$AAl?$AAe?$AA?9?$AAl?$AA2?$AA?9?$AA1?$AA?9?$AA1?$AA?$AA@ 1006caac     libucrt:winapi_thunks.obj
 0002:00007af0       ??_C@_1EI@MPIAOHOC@?$AAa?$AAp?$AAi?$AA?9?$AAm?$AAs?$AA?9?$AAw?$AAi?$AAn?$AA?9?$AAc?$AAo?$AAr?$AAe?$AA?9?$AAl?$AAo?$AAc?$AAa?$AAl?$AAi?$AAz?$AAa?$AAt?$AAi?$AAo?$AAn?$AA?9?$AAl?$AA1?$AA?9@ 1006caf0     libucrt:winapi_thunks.obj
 0002:00007b48       ??_C@_1FK@FPHCKFIE@?$AAa?$AAp?$AAi?$AA?9?$AAm?$AAs?$AA?9?$AAw?$AAi?$AAn?$AA?9?$AAc?$AAo?$AAr?$AAe?$AA?9?$AAl?$AAo?$AAc?$AAa?$AAl?$AAi?$AAz?$AAa?$AAt?$AAi?$AAo?$AAn?$AA?9?$AAo?$AAb?$AAs@ 1006cb48     libucrt:winapi_thunks.obj
 0002:00007bb8       ??_C@_1EM@DILCGIIO@?$AAa?$AAp?$AAi?$AA?9?$AAm?$AAs?$AA?9?$AAw?$AAi?$AAn?$AA?9?$AAc?$AAo?$AAr?$AAe?$AA?9?$AAp?$AAr?$AAo?$AAc?$AAe?$AAs?$AAs?$AAt?$AAh?$AAr?$AAe?$AAa?$AAd?$AAs?$AA?9?$AAl@ 1006cbb8     libucrt:winapi_thunks.obj
 0002:00007c14       ??_C@_1DM@LNCGDDPN@?$AAa?$AAp?$AAi?$AA?9?$AAm?$AAs?$AA?9?$AAw?$AAi?$AAn?$AA?9?$AAc?$AAo?$AAr?$AAe?$AA?9?$AAs?$AAt?$AAr?$AAi?$AAn?$AAg?$AA?9?$AAl?$AA1?$AA?9?$AA1?$AA?9?$AA0?$AA?$AA@ 1006cc14     libucrt:winapi_thunks.obj
 0002:00007c5c       ??_C@_1DO@FPAPJEMD@?$AAa?$AAp?$AAi?$AA?9?$AAm?$AAs?$AA?9?$AAw?$AAi?$AAn?$AA?9?$AAc?$AAo?$AAr?$AAe?$AA?9?$AAs?$AAy?$AAs?$AAi?$AAn?$AAf?$AAo?$AA?9?$AAl?$AA1?$AA?9?$AA2?$AA?9?$AA1?$AA?$AA@ 1006cc5c     libucrt:winapi_thunks.obj
 0002:00007ca8       ??_C@_1DK@NDHNAHIO@?$AAa?$AAp?$AAi?$AA?9?$AAm?$AAs?$AA?9?$AAw?$AAi?$AAn?$AA?9?$AAc?$AAo?$AAr?$AAe?$AA?9?$AAw?$AAi?$AAn?$AAr?$AAt?$AA?9?$AAl?$AA1?$AA?9?$AA1?$AA?9?$AA0?$AA?$AA@ 1006cca8     libucrt:winapi_thunks.obj
 0002:00007cf0       ??_C@_1DM@KGHDGBCM@?$AAa?$AAp?$AAi?$AA?9?$AAm?$AAs?$AA?9?$AAw?$AAi?$AAn?$AA?9?$AAc?$AAo?$AAr?$AAe?$AA?9?$AAx?$AAs?$AAt?$AAa?$AAt?$AAe?$AA?9?$AAl?$AA2?$AA?9?$AA1?$AA?9?$AA0?$AA?$AA@ 1006ccf0     libucrt:winapi_thunks.obj
 0002:00007d38       ??_C@_1EO@IJIOEFOH@?$AAa?$AAp?$AAi?$AA?9?$AAm?$AAs?$AA?9?$AAw?$AAi?$AAn?$AA?9?$AAr?$AAt?$AAc?$AAo?$AAr?$AAe?$AA?9?$AAn?$AAt?$AAu?$AAs?$AAe?$AAr?$AA?9?$AAw?$AAi?$AAn?$AAd?$AAo?$AAw?$AA?9@ 1006cd38     libucrt:winapi_thunks.obj
 0002:00007d98       ??_C@_1FG@HHGEKANL@?$AAa?$AAp?$AAi?$AA?9?$AAm?$AAs?$AA?9?$AAw?$AAi?$AAn?$AA?9?$AAs?$AAe?$AAc?$AAu?$AAr?$AAi?$AAt?$AAy?$AA?9?$AAs?$AAy?$AAs?$AAt?$AAe?$AAm?$AAf?$AAu?$AAn?$AAc?$AAt?$AAi@ 1006cd98     libucrt:winapi_thunks.obj
 0002:00007e00       ??_C@_1FG@NCKKOLKO@?$AAe?$AAx?$AAt?$AA?9?$AAm?$AAs?$AA?9?$AAw?$AAi?$AAn?$AA?9?$AAk?$AAe?$AAr?$AAn?$AAe?$AAl?$AA3?$AA2?$AA?9?$AAp?$AAa?$AAc?$AAk?$AAa?$AAg?$AAe?$AA?9?$AAc?$AAu?$AAr?$AAr@ 1006ce00     libucrt:winapi_thunks.obj
 0002:00007e68       ??_C@_1EG@DBIOJECG@?$AAe?$AAx?$AAt?$AA?9?$AAm?$AAs?$AA?9?$AAw?$AAi?$AAn?$AA?9?$AAn?$AAt?$AAu?$AAs?$AAe?$AAr?$AA?9?$AAd?$AAi?$AAa?$AAl?$AAo?$AAg?$AAb?$AAo?$AAx?$AA?9?$AAl?$AA1?$AA?9?$AA1@ 1006ce68     libucrt:winapi_thunks.obj
 0002:00007ec0       ??_C@_1EO@FIHMJCLF@?$AAe?$AAx?$AAt?$AA?9?$AAm?$AAs?$AA?9?$AAw?$AAi?$AAn?$AA?9?$AAn?$AAt?$AAu?$AAs?$AAe?$AAr?$AA?9?$AAw?$AAi?$AAn?$AAd?$AAo?$AAw?$AAs?$AAt?$AAa?$AAt?$AAi?$AAo?$AAn?$AA?9@ 1006cec0     libucrt:winapi_thunks.obj
 0002:00007f20       ??_C@_1O@BCCLBEOE@?$AAu?$AAs?$AAe?$AAr?$AA3?$AA2?$AA?$AA@ 1006cf20     libucrt:winapi_thunks.obj
 0002:00007f34       ??_C@_0BA@FHFNEAED@AreFileApisANSI?$AA@ 1006cf34     libucrt:winapi_thunks.obj
 0002:00007f54       ??_C@_0BA@IHGNDAEB@CompareStringEx?$AA@ 1006cf54     libucrt:winapi_thunks.obj
 0002:00007f74       ??_C@_0BE@LJANKFHF@EnumSystemLocalesEx?$AA@ 1006cf74     libucrt:winapi_thunks.obj
 0002:00007fc8       ??_C@_0BA@HNOPNCHB@GetActiveWindow?$AA@ 1006cfc8     libucrt:winapi_thunks.obj
 0002:00007fe8       ??_C@_0BE@JOGNEJCI@GetCurrentPackageId?$AA@ 1006cfe8     libucrt:winapi_thunks.obj
 0002:0000800c       ??_C@_0BA@EPCJIIPD@GetDateFormatEx?$AA@ 1006d00c     libucrt:winapi_thunks.obj
 0002:0000802c       ??_C@_0BJ@DIBIJBHA@GetEnabledXStateFeatures?$AA@ 1006d02c     libucrt:winapi_thunks.obj
 0002:00008058       ??_C@_0BN@NEEHBBPO@GetFileInformationByHandleEx?$AA@ 1006d058     libucrt:winapi_thunks.obj
 0002:00008088       ??_C@_0BD@HHGDFDBJ@GetLastActivePopup?$AA@ 1006d088     libucrt:winapi_thunks.obj
 0002:000080ac       ??_C@_0BA@ONOKGCMP@GetLocaleInfoEx?$AA@ 1006d0ac     libucrt:winapi_thunks.obj
 0002:000080cc       ??_C@_0BI@DFKBFLJE@GetProcessWindowStation?$AA@ 1006d0cc     libucrt:winapi_thunks.obj
 0002:000080ec       ??_C@_0BP@FPNJPEJC@GetSystemTimePreciseAsFileTime?$AA@ 1006d0ec     libucrt:winapi_thunks.obj
 0002:00008120       ??_C@_0BA@CIJJKCJJ@GetTimeFormatEx?$AA@ 1006d120     libucrt:winapi_thunks.obj
 0002:00008140       ??_C@_0BJ@PBCCBIPI@GetUserDefaultLocaleName?$AA@ 1006d140     libucrt:winapi_thunks.obj
 0002:0000816c       ??_C@_0BK@DEKFELLI@GetUserObjectInformationW?$AA@ 1006d16c     libucrt:winapi_thunks.obj
 0002:00008198       ??_C@_0BG@IKLDMBLM@GetXStateFeaturesMask?$AA@ 1006d198     libucrt:winapi_thunks.obj
 0002:000081cc       ??_C@_0BC@CELBKLLA@IsValidLocaleName?$AA@ 1006d1cc     libucrt:winapi_thunks.obj
 0002:000081f0       ??_C@_0O@KKBNKAPF@LCMapStringEx?$AA@ 1006d1f0     libucrt:winapi_thunks.obj
 0002:0000820c       ??_C@_0BB@CDHDDLLP@LCIDToLocaleName?$AA@ 1006d20c     libucrt:winapi_thunks.obj
 0002:0000822c       ??_C@_0BB@HBDEELFH@LocaleNameToLCID?$AA@ 1006d22c     libucrt:winapi_thunks.obj
 0002:0000824c       ??_C@_0BE@KINNKFDA@LocateXStateFeature?$AA@ 1006d24c     libucrt:winapi_thunks.obj
 0002:00008270       ??_C@_0M@CHKKJDAI@MessageBoxA?$AA@ 1006d270     libucrt:winapi_thunks.obj
 0002:0000828c       ??_C@_0M@DLDCCGNP@MessageBoxW?$AA@ 1006d28c     libucrt:winapi_thunks.obj
 0002:000082a0       ??_C@_0N@PPOMPGGK@RoInitialize?$AA@ 1006d2a0     libucrt:winapi_thunks.obj
 0002:000082b4       ??_C@_0P@LLFHBIJD@RoUninitialize?$AA@ 1006d2b4     libucrt:winapi_thunks.obj
 0002:000082d4       ??_C@_0BI@BKLFFAPO@SetThreadStackGuarantee?$AA@ 1006d2d4     libucrt:winapi_thunks.obj
 0002:000082fc       ??_C@_0BC@JEAENNKH@SystemFunction036?$AA@ 1006d2fc     libucrt:winapi_thunks.obj
 0002:00008314       ??_C@_03OEIAHPBN@INF?$AA@  1006d314     libucrt:cvt.obj
 0002:00008318       ??_C@_03OJHLLCGB@inf?$AA@  1006d318     libucrt:cvt.obj
 0002:0000831c       ??_C@_03LKNCIKJB@NAN?$AA@  1006d31c     libucrt:cvt.obj
 0002:00008320       ??_C@_03LHCJEHON@nan?$AA@  1006d320     libucrt:cvt.obj
 0002:00008324       ??_C@_09OFJJIMPC@NAN?$CISNAN?$CJ?$AA@ 1006d324     libucrt:cvt.obj
 0002:00008330       ??_C@_09IPFBKMDL@nan?$CIsnan?$CJ?$AA@ 1006d330     libucrt:cvt.obj
 0002:0000833c       ??_C@_08IKHNHAJ@NAN?$CIIND?$CJ?$AA@ 1006d33c     libucrt:cvt.obj
 0002:00008348       ??_C@_08OFCDMILK@nan?$CIind?$CJ?$AA@ 1006d348     libucrt:cvt.obj
 0002:00008354       ??_C@_05KLBDPFGC@e?$CL000?$AA@ 1006d354     libucrt:cvt.obj
 0002:00008360       ___lc_category             1006d360     libucrt:wsetlocale.obj
 0002:000083b8       ??_C@_1O@GIFLHMA@?$AAL?$AAC?$AA_?$AAA?$AAL?$AAL?$AA?$AA@ 1006d3b8     libucrt:wsetlocale.obj
 0002:000083c8       ??_C@_1BG@PPOMIBNJ@?$AAL?$AAC?$AA_?$AAC?$AAO?$AAL?$AAL?$AAA?$AAT?$AAE?$AA?$AA@ 1006d3c8     libucrt:wsetlocale.obj
 0002:000083e4       ??_C@_1BC@FFJGAPJM@?$AAL?$AAC?$AA_?$AAC?$AAT?$AAY?$AAP?$AAE?$AA?$AA@ 1006d3e4     libucrt:wsetlocale.obj
 0002:000083fc       ??_C@_1BI@PCKFNJFB@?$AAL?$AAC?$AA_?$AAM?$AAO?$AAN?$AAE?$AAT?$AAA?$AAR?$AAY?$AA?$AA@ 1006d3fc     libucrt:wsetlocale.obj
 0002:00008418       ??_C@_1BG@ENIEDKID@?$AAL?$AAC?$AA_?$AAN?$AAU?$AAM?$AAE?$AAR?$AAI?$AAC?$AA?$AA@ 1006d418     libucrt:wsetlocale.obj
 0002:00008434       ??_C@_1BA@HAAOMIIG@?$AAL?$AAC?$AA_?$AAT?$AAI?$AAM?$AAE?$AA?$AA@ 1006d434     libucrt:wsetlocale.obj
 0002:000084e0       ??_C@_15NBPDDFIP@?$AA?$DN?$AA?$DL?$AA?$AA@ 1006d4e0     libucrt:wsetlocale.obj
 0002:000084e8       ??_C@_13PJJBFPED@?$AA?$DL?$AA?$AA@ 1006d4e8     libucrt:wsetlocale.obj
 0002:000084ec       ??_C@_13NMPKAAJP@?$AA?$DN?$AA?$AA@ 1006d4ec     libucrt:wsetlocale.obj
 0002:000084f0       ??_C@_13FHBKNHDA@?$AAC?$AA?$AA@ 1006d4f0     libucrt:wsetlocale.obj
 0002:000084f4       ??_C@_17MBJJLFDM@?$AA_?$AA?4?$AA?0?$AA?$AA@ 1006d4f4     libucrt:wsetlocale.obj
 0002:00008500       ??_C@_13ENNFDPBH@?$AA_?$AA?$AA@ 1006d500     libucrt:wsetlocale.obj
 0002:00008504       ??_C@_13JOFGPIOO@?$AA?4?$AA?$AA@ 1006d504     libucrt:wsetlocale.obj
 0002:00008508       ??_C@_03KOEHGMDN@Sun?$AA@  1006d508     libucrt:nlsdata.obj
 0002:0000850c       ??_C@_03PDAGKDH@Mon?$AA@   1006d50c     libucrt:nlsdata.obj
 0002:00008510       ??_C@_03NAGEINEP@Tue?$AA@  1006d510     libucrt:nlsdata.obj
 0002:00008514       ??_C@_03MHOMLAJA@Wed?$AA@  1006d514     libucrt:nlsdata.obj
 0002:00008518       ??_C@_03IOFIKPDN@Thu?$AA@  1006d518     libucrt:nlsdata.obj
 0002:0000851c       ??_C@_03IDIOELNC@Fri?$AA@  1006d51c     libucrt:nlsdata.obj
 0002:00008520       ??_C@_03FEFJNEK@Sat?$AA@   1006d520     libucrt:nlsdata.obj
 0002:00008524       ??_C@_06OOPIFAJ@Sunday?$AA@ 1006d524     libucrt:nlsdata.obj
 0002:0000852c       ??_C@_06JLEDEDGH@Monday?$AA@ 1006d52c     libucrt:nlsdata.obj
 0002:00008534       ??_C@_07BAAGCFCM@Tuesday?$AA@ 1006d534     libucrt:nlsdata.obj
 0002:00008540       ??_C@_09DLIGFAKA@Wednesday?$AA@ 1006d540     libucrt:nlsdata.obj
 0002:0000854c       ??_C@_08HACCIKIA@Thursday?$AA@ 1006d54c     libucrt:nlsdata.obj
 0002:00008558       ??_C@_06JECMNKMI@Friday?$AA@ 1006d558     libucrt:nlsdata.obj
 0002:00008560       ??_C@_08INBOOONO@Saturday?$AA@ 1006d560     libucrt:nlsdata.obj
 0002:0000856c       ??_C@_03JIHJHPIE@Jan?$AA@  1006d56c     libucrt:nlsdata.obj
 0002:00008570       ??_C@_03HJBDCHOM@Feb?$AA@  1006d570     libucrt:nlsdata.obj
 0002:00008574       ??_C@_03ODNJBKGA@Mar?$AA@  1006d574     libucrt:nlsdata.obj
 0002:00008578       ??_C@_03LEOLGMJP@Apr?$AA@  1006d578     libucrt:nlsdata.obj
 0002:0000857c       ??_C@_03CNMDKL@May?$AA@    1006d57c     libucrt:nlsdata.obj
 0002:00008580       ??_C@_03IDFGHECI@Jun?$AA@  1006d580     libucrt:nlsdata.obj
 0002:00008584       ??_C@_03LBGABGKK@Jul?$AA@  1006d584     libucrt:nlsdata.obj
 0002:00008588       ??_C@_03IFJFEIGA@Aug?$AA@  1006d588     libucrt:nlsdata.obj
 0002:0000858c       ??_C@_03GGCAPAJC@Sep?$AA@  1006d58c     libucrt:nlsdata.obj
 0002:00008590       ??_C@_03BMAOKBAD@Oct?$AA@  1006d590     libucrt:nlsdata.obj
 0002:00008594       ??_C@_03JPJOFNIA@Nov?$AA@  1006d594     libucrt:nlsdata.obj
 0002:00008598       ??_C@_03MKABNOCG@Dec?$AA@  1006d598     libucrt:nlsdata.obj
 0002:0000859c       ??_C@_07CGJPFGJA@January?$AA@ 1006d59c     libucrt:nlsdata.obj
 0002:000085a8       ??_C@_08GNJGEPFN@February?$AA@ 1006d5a8     libucrt:nlsdata.obj
 0002:000085b4       ??_C@_05HPCKOFNC@March?$AA@ 1006d5b4     libucrt:nlsdata.obj
 0002:000085bc       ??_C@_05DMJDNLEJ@April?$AA@ 1006d5bc     libucrt:nlsdata.obj
 0002:000085c4       ??_C@_04CNLMGBGM@June?$AA@ 1006d5c4     libucrt:nlsdata.obj
 0002:000085cc       ??_C@_04MIEPOIFP@July?$AA@ 1006d5cc     libucrt:nlsdata.obj
 0002:000085d4       ??_C@_06LBBHFDDG@August?$AA@ 1006d5d4     libucrt:nlsdata.obj
 0002:000085dc       ??_C@_09BHHEALKD@September?$AA@ 1006d5dc     libucrt:nlsdata.obj
 0002:000085e8       ??_C@_07JJNFCEND@October?$AA@ 1006d5e8     libucrt:nlsdata.obj
 0002:000085f4       ??_C@_08HCHEGEOA@November?$AA@ 1006d5f4     libucrt:nlsdata.obj
 0002:00008600       ??_C@_08EDHMEBNP@December?$AA@ 1006d600     libucrt:nlsdata.obj
 0002:0000860c       ??_C@_02DEDBPAFC@AM?$AA@   1006d60c     libucrt:nlsdata.obj
 0002:00008610       ??_C@_02CJNFDJBF@PM?$AA@   1006d610     libucrt:nlsdata.obj
 0002:00008614       ??_C@_08BPBNCDIB@MM?1dd?1yy?$AA@ 1006d614     libucrt:nlsdata.obj
 0002:00008620       ??_C@_0BE@CKGJFCPC@dddd?0?5MMMM?5dd?0?5yyyy?$AA@ 1006d620     libucrt:nlsdata.obj
 0002:00008638       ??_C@_08JCCMCCIL@HH?3mm?3ss?$AA@ 1006d638     libucrt:nlsdata.obj
 0002:00008644       ??_C@_17MBGCMIPB@?$AAS?$AAu?$AAn?$AA?$AA@ 1006d644     libucrt:nlsdata.obj
 0002:00008650       ??_C@_17KBOMKBF@?$AAM?$AAo?$AAn?$AA?$AA@ 1006d650     libucrt:nlsdata.obj
 0002:0000865c       ??_C@_17BMKGEGOJ@?$AAT?$AAu?$AAe?$AA?$AA@ 1006d65c     libucrt:nlsdata.obj
 0002:00008668       ??_C@_17CJEDCEPE@?$AAW?$AAe?$AAd?$AA?$AA@ 1006d668     libucrt:nlsdata.obj
 0002:00008674       ??_C@_17PDPHAADD@?$AAT?$AAh?$AAu?$AA?$AA@ 1006d674     libucrt:nlsdata.obj
 0002:00008680       ??_C@_17HFOLPPLP@?$AAF?$AAr?$AAi?$AA?$AA@ 1006d680     libucrt:nlsdata.obj
 0002:0000868c       ??_C@_17GGIBDPIH@?$AAS?$AAa?$AAt?$AA?$AA@ 1006d68c     libucrt:nlsdata.obj
 0002:00008698       ??_C@_1O@IHNHDHPB@?$AAS?$AAu?$AAn?$AAd?$AAa?$AAy?$AA?$AA@ 1006d698     libucrt:nlsdata.obj
 0002:000086a8       ??_C@_1O@MMNBFLIA@?$AAM?$AAo?$AAn?$AAd?$AAa?$AAy?$AA?$AA@ 1006d6a8     libucrt:nlsdata.obj
 0002:000086b8       ??_C@_1BA@ENFBFFEK@?$AAT?$AAu?$AAe?$AAs?$AAd?$AAa?$AAy?$AA?$AA@ 1006d6b8     libucrt:nlsdata.obj
 0002:000086cc       ??_C@_1BE@EBOGMDOH@?$AAW?$AAe?$AAd?$AAn?$AAe?$AAs?$AAd?$AAa?$AAy?$AA?$AA@ 1006d6cc     libucrt:nlsdata.obj
 0002:000086e4       ??_C@_1BC@HHMNLIHE@?$AAT?$AAh?$AAu?$AAr?$AAs?$AAd?$AAa?$AAy?$AA?$AA@ 1006d6e4     libucrt:nlsdata.obj
 0002:000086fc       ??_C@_1O@PDICJHAG@?$AAF?$AAr?$AAi?$AAd?$AAa?$AAy?$AA?$AA@ 1006d6fc     libucrt:nlsdata.obj
 0002:0000870c       ??_C@_1BC@ENMNNPAJ@?$AAS?$AAa?$AAt?$AAu?$AAr?$AAd?$AAa?$AAy?$AA?$AA@ 1006d70c     libucrt:nlsdata.obj
 0002:00008724       ??_C@_17DKNBKCHM@?$AAJ?$AAa?$AAn?$AA?$AA@ 1006d724     libucrt:nlsdata.obj
 0002:00008730       ??_C@_17LMDJEKJN@?$AAF?$AAe?$AAb?$AA?$AA@ 1006d730     libucrt:nlsdata.obj
 0002:0000873c       ??_C@_17CKNLEDEC@?$AAM?$AAa?$AAr?$AA?$AA@ 1006d73c     libucrt:nlsdata.obj
 0002:00008748       ??_C@_17LFPOIHDD@?$AAA?$AAp?$AAr?$AA?$AA@ 1006d748     libucrt:nlsdata.obj
 0002:00008754       ??_C@_17PNNKMEED@?$AAM?$AAa?$AAy?$AA?$AA@ 1006d754     libucrt:nlsdata.obj
 0002:00008760       ??_C@_17KCJGOCPB@?$AAJ?$AAu?$AAn?$AA?$AA@ 1006d760     libucrt:nlsdata.obj
 0002:0000876c       ??_C@_17IJPCKHK@?$AAJ?$AAu?$AAl?$AA?$AA@ 1006d76c     libucrt:nlsdata.obj
 0002:00008778       ??_C@_17ICPELBCN@?$AAA?$AAu?$AAg?$AA?$AA@ 1006d778     libucrt:nlsdata.obj
 0002:00008784       ??_C@_17HCHCOKMG@?$AAS?$AAe?$AAp?$AA?$AA@ 1006d784     libucrt:nlsdata.obj
 0002:00008790       ??_C@_17FNLKOI@?$AAO?$AAc?$AAt?$AA?$AA@ 1006d790     libucrt:nlsdata.obj
 0002:0000879c       ??_C@_17BBDMLCIG@?$AAN?$AAo?$AAv?$AA?$AA@ 1006d79c     libucrt:nlsdata.obj
 0002:000087a8       ??_C@_17EGKACKIF@?$AAD?$AAe?$AAc?$AA?$AA@ 1006d7a8     libucrt:nlsdata.obj
 0002:000087b4       ??_C@_1BA@EFMEIEBA@?$AAJ?$AAa?$AAn?$AAu?$AAa?$AAr?$AAy?$AA?$AA@ 1006d7b4     libucrt:nlsdata.obj
 0002:000087c8       ??_C@_1BC@JGDDFFAM@?$AAF?$AAe?$AAb?$AAr?$AAu?$AAa?$AAr?$AAy?$AA?$AA@ 1006d7c8     libucrt:nlsdata.obj
 0002:000087e0       ??_C@_1M@IKEENEDF@?$AAM?$AAa?$AAr?$AAc?$AAh?$AA?$AA@ 1006d7e0     libucrt:nlsdata.obj
 0002:000087f0       ??_C@_1M@GJNLMHFD@?$AAA?$AAp?$AAr?$AAi?$AAl?$AA?$AA@ 1006d7f0     libucrt:nlsdata.obj
 0002:00008800       ??_C@_19EPFLPGAP@?$AAJ?$AAu?$AAn?$AAe?$AA?$AA@ 1006d800     libucrt:nlsdata.obj
 0002:0000880c       ??_C@_19BIFMLPCD@?$AAJ?$AAu?$AAl?$AAy?$AA?$AA@ 1006d80c     libucrt:nlsdata.obj
 0002:00008818       ??_C@_1O@PAHLKOAC@?$AAA?$AAu?$AAg?$AAu?$AAs?$AAt?$AA?$AA@ 1006d818     libucrt:nlsdata.obj
 0002:00008828       ??_C@_1BE@DKAAMBJL@?$AAS?$AAe?$AAp?$AAt?$AAe?$AAm?$AAb?$AAe?$AAr?$AA?$AA@ 1006d828     libucrt:nlsdata.obj
 0002:00008840       ??_C@_1BA@EPANDLNG@?$AAO?$AAc?$AAt?$AAo?$AAb?$AAe?$AAr?$AA?$AA@ 1006d840     libucrt:nlsdata.obj
 0002:00008854       ??_C@_1BC@BGLIFPF@?$AAN?$AAo?$AAv?$AAe?$AAm?$AAb?$AAe?$AAr?$AA?$AA@ 1006d854     libucrt:nlsdata.obj
 0002:0000886c       ??_C@_1BC@FEMKIFH@?$AAD?$AAe?$AAc?$AAe?$AAm?$AAb?$AAe?$AAr?$AA?$AA@ 1006d86c     libucrt:nlsdata.obj
 0002:00008884       ??_C@_15ODEHAHHF@?$AAA?$AAM?$AA?$AA@ 1006d884     libucrt:nlsdata.obj
 0002:0000888c       ??_C@_15CLMNNGEL@?$AAP?$AAM?$AA?$AA@ 1006d88c     libucrt:nlsdata.obj
 0002:00008894       ??_C@_1BC@IEBCMHCM@?$AAM?$AAM?$AA?1?$AAd?$AAd?$AA?1?$AAy?$AAy?$AA?$AA@ 1006d894     libucrt:nlsdata.obj
 0002:000088ac       ??_C@_1CI@KNAKOEBC@?$AAd?$AAd?$AAd?$AAd?$AA?0?$AA?5?$AAM?$AAM?$AAM?$AAM?$AA?5?$AAd?$AAd?$AA?0?$AA?5?$AAy?$AAy?$AAy?$AAy?$AA?$AA@ 1006d8ac     libucrt:nlsdata.obj
 0002:000088dc       ??_C@_1BC@GDGBMEMK@?$AAH?$AAH?$AA?3?$AAm?$AAm?$AA?3?$AAs?$AAs?$AA?$AA@ 1006d8dc     libucrt:nlsdata.obj
 0002:000088f4       ??_C@_1M@BMHNFIME@?$AAe?$AAn?$AA?9?$AAU?$AAS?$AA?$AA@ 1006d8f4     libucrt:nlsdata.obj
 0002:00008908       ___lc_time_c               1006d908     libucrt:nlsdata.obj
 0002:00008ab4       ?ccs@?BL@???$__acrt_stdio_parse_mode@D@@YA?AU__acrt_stdio_stream_mode@@QBD@Z@4QBDB 1006dab4     libucrt:openfile.obj
 0002:00008ab8       ?utf8_encoding@?BL@???$__acrt_stdio_parse_mode@D@@YA?AU__acrt_stdio_stream_mode@@QBD@Z@4QBDB 1006dab8     libucrt:openfile.obj
 0002:00008ac0       ?utf16_encoding@?BL@???$__acrt_stdio_parse_mode@D@@YA?AU__acrt_stdio_stream_mode@@QBD@Z@4QBDB 1006dac0     libucrt:openfile.obj
 0002:00008acc       ?unicode_encoding@?BL@???$__acrt_stdio_parse_mode@D@@YA?AU__acrt_stdio_stream_mode@@QBD@Z@4QBDB 1006dacc     libucrt:openfile.obj
 0002:00008ad4       ?ccs@?BL@???$__acrt_stdio_parse_mode@_W@@YA?AU__acrt_stdio_stream_mode@@QB_W@Z@4QB_WB 1006dad4     libucrt:openfile.obj
 0002:00008adc       ?utf8_encoding@?BL@???$__acrt_stdio_parse_mode@_W@@YA?AU__acrt_stdio_stream_mode@@QB_W@Z@4QB_WB 1006dadc     libucrt:openfile.obj
 0002:00008ae8       ?utf16_encoding@?BL@???$__acrt_stdio_parse_mode@_W@@YA?AU__acrt_stdio_stream_mode@@QB_W@Z@4QB_WB 1006dae8     libucrt:openfile.obj
 0002:00008afc       ?unicode_encoding@?BL@???$__acrt_stdio_parse_mode@_W@@YA?AU__acrt_stdio_stream_mode@@QB_W@Z@4QB_WB 1006dafc     libucrt:openfile.obj
 0002:00008b10       __d_inf                    1006db10     libucrt:util.obj
 0002:00008b20       __d_ind                    1006db20     libucrt:util.obj
 0002:00008b30       __d_max                    1006db30     libucrt:util.obj
 0002:00008b40       __d_min                    1006db40     libucrt:util.obj
 0002:00008b50       __d_mzero                  1006db50     libucrt:util.obj
 0002:00008b7c       ??_C@_1DE@JNGNBFGO@?$AAR?$AAu?$AAn?$AAt?$AAi?$AAm?$AAe?$AA?5?$AAE?$AAr?$AAr?$AAo?$AAr?$AA?$CB?$AA?6?$AA?6?$AAP?$AAr?$AAo?$AAg?$AAr?$AAa?$AAm?$AA?3?$AA?5?$AA?$AA@ 1006db7c     libucrt:report_runtime_error.obj
 0002:00008bd0       ??_C@_1M@HPNHIDJI@?$AAj?$AAa?$AA?9?$AAJ?$AAP?$AA?$AA@ 1006dbd0     libucrt:mbctype.obj
 0002:00008be0       ??_C@_1M@BIBDDEMK@?$AAz?$AAh?$AA?9?$AAC?$AAN?$AA?$AA@ 1006dbe0     libucrt:mbctype.obj
 0002:00008bf0       ??_C@_1M@JLOOOEGK@?$AAk?$AAo?$AA?9?$AAK?$AAR?$AA?$AA@ 1006dbf0     libucrt:mbctype.obj
 0002:00008c00       ??_C@_1M@CLNBBOPM@?$AAz?$AAh?$AA?9?$AAT?$AAW?$AA?$AA@ 1006dc00     libucrt:mbctype.obj
 0002:00008c10       __wctype                   1006dc10     libucrt:ctype.obj
 0002:00008e80       ___newctype                1006de80     libucrt:ctype.obj
 0002:00009220       ___newclmap                1006e220     libucrt:ctype.obj
 0002:000093f0       ___newcumap                1006e3f0     libucrt:ctype.obj
 0002:00009e4c       ??_C@_15EMKDOKLE@?$AAa?$AAr?$AA?$AA@ 1006ee4c     libucrt:lcidtoname_downlevel.obj
 0002:00009e54       ??_C@_15KNPADPLH@?$AAb?$AAg?$AA?$AA@ 1006ee54     libucrt:lcidtoname_downlevel.obj
 0002:00009e5c       ??_C@_15EDMHLDMO@?$AAc?$AAa?$AA?$AA@ 1006ee5c     libucrt:lcidtoname_downlevel.obj
 0002:00009e64       ??_C@_1O@BPEAJADD@?$AAz?$AAh?$AA?9?$AAC?$AAH?$AAS?$AA?$AA@ 1006ee64     libucrt:lcidtoname_downlevel.obj
 0002:00009e74       ??_C@_15LJNHCMNK@?$AAc?$AAs?$AA?$AA@ 1006ee74     libucrt:lcidtoname_downlevel.obj
 0002:00009e7c       ??_C@_15FOMCIDHG@?$AAd?$AAa?$AA?$AA@ 1006ee7c     libucrt:lcidtoname_downlevel.obj
 0002:00009e84       ??_C@_15NBKABECB@?$AAd?$AAe?$AA?$AA@ 1006ee84     libucrt:lcidtoname_downlevel.obj
 0002:00009e8c       ??_C@_15GHPEIIAO@?$AAe?$AAl?$AA?$AA@ 1006ee8c     libucrt:lcidtoname_downlevel.obj
 0002:00009e94       ??_C@_15MNPNEAIF@?$AAe?$AAn?$AA?$AA@ 1006ee94     libucrt:lcidtoname_downlevel.obj
 0002:00009e9c       ??_C@_15GPIOMPMH@?$AAe?$AAs?$AA?$AA@ 1006ee9c     libucrt:lcidtoname_downlevel.obj
 0002:00009ea4       ??_C@_15NGLOAKJC@?$AAf?$AAi?$AA?$AA@ 1006eea4     libucrt:lcidtoname_downlevel.obj
 0002:00009eac       ??_C@_15FBKGNKAM@?$AAf?$AAr?$AA?$AA@ 1006eeac     libucrt:lcidtoname_downlevel.obj
 0002:00009eb4       ??_C@_15KGGCNEFK@?$AAh?$AAe?$AA?$AA@ 1006eeb4     libucrt:lcidtoname_downlevel.obj
 0002:00009ebc       ??_C@_15PGHLIDMF@?$AAh?$AAu?$AA?$AA@ 1006eebc     libucrt:lcidtoname_downlevel.obj
 0002:00009ec4       ??_C@_15BIEMAPLM@?$AAi?$AAs?$AA?$AA@ 1006eec4     libucrt:lcidtoname_downlevel.obj
 0002:00009ecc       ??_C@_15IFJLDHAF@?$AAi?$AAt?$AA?$AA@ 1006eecc     libucrt:lcidtoname_downlevel.obj
 0002:00009ed4       ??_C@_15GEMIOCAG@?$AAj?$AAa?$AA?$AA@ 1006eed4     libucrt:lcidtoname_downlevel.obj
 0002:00009edc       ??_C@_15EPELEGJA@?$AAk?$AAo?$AA?$AA@ 1006eedc     libucrt:lcidtoname_downlevel.obj
 0002:00009ee4       ??_C@_15NDDHIMN@?$AAn?$AAl?$AA?$AA@ 1006eee4     libucrt:lcidtoname_downlevel.obj
 0002:00009eec       ??_C@_15BPIGNHCD@?$AAn?$AAo?$AA?$AA@ 1006eeec     libucrt:lcidtoname_downlevel.obj
 0002:00009ef4       ??_C@_15DEOPBLCG@?$AAp?$AAl?$AA?$AA@ 1006eef4     libucrt:lcidtoname_downlevel.obj
 0002:00009efc       ??_C@_15KBECGEFG@?$AAp?$AAt?$AA?$AA@ 1006eefc     libucrt:lcidtoname_downlevel.obj
 0002:00009f04       ??_C@_15GLJCBFMD@?$AAr?$AAo?$AA?$AA@ 1006ef04     libucrt:lcidtoname_downlevel.obj
 0002:00009f0c       ??_C@_15FEDGKCDI@?$AAr?$AAu?$AA?$AA@ 1006ef0c     libucrt:lcidtoname_downlevel.obj
 0002:00009f14       ??_C@_15GLKMLLHM@?$AAh?$AAr?$AA?$AA@ 1006ef14     libucrt:lcidtoname_downlevel.obj
 0002:00009f1c       ??_C@_15CPKMFBDB@?$AAs?$AAk?$AA?$AA@ 1006ef1c     libucrt:lcidtoname_downlevel.obj
 0002:00009f24       ??_C@_15BAAIOGMK@?$AAs?$AAq?$AA?$AA@ 1006ef24     libucrt:lcidtoname_downlevel.obj
 0002:00009f2c       ??_C@_15INNPNOHD@?$AAs?$AAv?$AA?$AA@ 1006ef2c     libucrt:lcidtoname_downlevel.obj
 0002:00009f34       ??_C@_15CABMMOGH@?$AAt?$AAh?$AA?$AA@ 1006ef34     libucrt:lcidtoname_downlevel.obj
 0002:00009f3c       ??_C@_15BPLIHJJM@?$AAt?$AAr?$AA?$AA@ 1006ef3c     libucrt:lcidtoname_downlevel.obj
 0002:00009f44       ??_C@_15NEOEKKDJ@?$AAu?$AAr?$AA?$AA@ 1006ef44     libucrt:lcidtoname_downlevel.obj
 0002:00009f4c       ??_C@_15NFICGAJK@?$AAi?$AAd?$AA?$AA@ 1006ef4c     libucrt:lcidtoname_downlevel.obj
 0002:00009f54       ??_C@_15PJPFLCCM@?$AAu?$AAk?$AA?$AA@ 1006ef54     libucrt:lcidtoname_downlevel.obj
 0002:00009f5c       ??_C@_15HPJPHDM@?$AAb?$AAe?$AA?$AA@ 1006ef5c     libucrt:lcidtoname_downlevel.obj
 0002:00009f64       ??_C@_15LCHLGJII@?$AAs?$AAl?$AA?$AA@ 1006ef64     libucrt:lcidtoname_downlevel.obj
 0002:00009f6c       ??_C@_15PCFJPHHO@?$AAe?$AAt?$AA?$AA@ 1006ef6c     libucrt:lcidtoname_downlevel.obj
 0002:00009f74       ??_C@_15HPFPGODN@?$AAl?$AAv?$AA?$AA@ 1006ef74     libucrt:lcidtoname_downlevel.obj
 0002:00009f7c       ??_C@_15NFFGKGLG@?$AAl?$AAt?$AA?$AA@ 1006ef7c     libucrt:lcidtoname_downlevel.obj
 0002:00009f84       ??_C@_15BDAKCCHN@?$AAf?$AAa?$AA?$AA@ 1006ef84     libucrt:lcidtoname_downlevel.obj
 0002:00009f8c       ??_C@_15NFGIAIAJ@?$AAv?$AAi?$AA?$AA@ 1006ef8c     libucrt:lcidtoname_downlevel.obj
 0002:00009f94       ??_C@_15LMKNDMHN@?$AAh?$AAy?$AA?$AA@ 1006ef94     libucrt:lcidtoname_downlevel.obj
 0002:00009f9c       ??_C@_15IJBHMCFL@?$AAa?$AAz?$AA?$AA@ 1006ef9c     libucrt:lcidtoname_downlevel.obj
 0002:00009fa4       ??_C@_15EKOFJABL@?$AAe?$AAu?$AA?$AA@ 1006efa4     libucrt:lcidtoname_downlevel.obj
 0002:00009fac       ??_C@_15BGHADCNK@?$AAm?$AAk?$AA?$AA@ 1006efac     libucrt:lcidtoname_downlevel.obj
 0002:00009fb4       ??_C@_15JDNICKHM@?$AAa?$AAf?$AA?$AA@ 1006efb4     libucrt:lcidtoname_downlevel.obj
 0002:00009fbc       ??_C@_15KPJEDBKD@?$AAk?$AAa?$AA?$AA@ 1006efbc     libucrt:lcidtoname_downlevel.obj
 0002:00009fc4       ??_C@_15PDNFFFEO@?$AAf?$AAo?$AA?$AA@ 1006efc4     libucrt:lcidtoname_downlevel.obj
 0002:00009fcc       ??_C@_15OMLEGLOC@?$AAh?$AAi?$AA?$AA@ 1006efcc     libucrt:lcidtoname_downlevel.obj
 0002:00009fd4       ??_C@_15IDNNENKK@?$AAm?$AAs?$AA?$AA@ 1006efd4     libucrt:lcidtoname_downlevel.obj
 0002:00009fdc       ??_C@_15MACJNBMH@?$AAk?$AAk?$AA?$AA@ 1006efdc     libucrt:lcidtoname_downlevel.obj
 0002:00009fe4       ??_C@_15DKDJEOND@?$AAk?$AAy?$AA?$AA@ 1006efe4     libucrt:lcidtoname_downlevel.obj
 0002:00009fec       ??_C@_15DFGDLJBG@?$AAs?$AAw?$AA?$AA@ 1006efec     libucrt:lcidtoname_downlevel.obj
 0002:00009ff4       ??_C@_15BBFAICNG@?$AAu?$AAz?$AA?$AA@ 1006eff4     libucrt:lcidtoname_downlevel.obj
 0002:00009ffc       ??_C@_15DKNDCGEA@?$AAt?$AAt?$AA?$AA@ 1006effc     libucrt:lcidtoname_downlevel.obj
 0002:0000a004       ??_C@_15MGIFMDPL@?$AAp?$AAa?$AA?$AA@ 1006f004     libucrt:lcidtoname_downlevel.obj
 0002:0000a00c       ??_C@_15HCNDBBA@?$AAg?$AAu?$AA?$AA@ 1006f00c     libucrt:lcidtoname_downlevel.obj
 0002:0000a014       ??_C@_15FNBEIBON@?$AAt?$AAa?$AA?$AA@ 1006f014     libucrt:lcidtoname_downlevel.obj
 0002:0000a01c       ??_C@_15NCHGBGLK@?$AAt?$AAe?$AA?$AA@ 1006f01c     libucrt:lcidtoname_downlevel.obj
 0002:0000a024       ??_C@_15PHPHCBPF@?$AAk?$AAn?$AA?$AA@ 1006f024     libucrt:lcidtoname_downlevel.obj
 0002:0000a02c       ??_C@_15DLGBCKMP@?$AAm?$AAr?$AA?$AA@ 1006f02c     libucrt:lcidtoname_downlevel.obj
 0002:0000a034       ??_C@_15EABBLBFF@?$AAs?$AAa?$AA?$AA@ 1006f034     libucrt:lcidtoname_downlevel.obj
 0002:0000a03c       ??_C@_15CBKOMCOI@?$AAm?$AAn?$AA?$AA@ 1006f03c     libucrt:lcidtoname_downlevel.obj
 0002:0000a044       ??_C@_15CKDMCJAF@?$AAg?$AAl?$AA?$AA@ 1006f044     libucrt:lcidtoname_downlevel.obj
 0002:0000a04c       ??_C@_17CNJFBPG@?$AAk?$AAo?$AAk?$AA?$AA@ 1006f04c     libucrt:lcidtoname_downlevel.obj
 0002:0000a058       ??_C@_17FFBJICPL@?$AAs?$AAy?$AAr?$AA?$AA@ 1006f058     libucrt:lcidtoname_downlevel.obj
 0002:0000a064       ??_C@_17KPNDCPAF@?$AAd?$AAi?$AAv?$AA?$AA@ 1006f064     libucrt:lcidtoname_downlevel.obj
 0002:0000a070       ??_C@_11LOCGONAA@?$AA?$AA@ 1006f070     libucrt:lcidtoname_downlevel.obj
 0002:0000a074       ??_C@_1M@OKAHONE@?$AAa?$AAr?$AA?9?$AAS?$AAA?$AA?$AA@ 1006f074     libucrt:lcidtoname_downlevel.obj
 0002:0000a084       ??_C@_1M@FFFIGIGK@?$AAb?$AAg?$AA?9?$AAB?$AAG?$AA?$AA@ 1006f084     libucrt:lcidtoname_downlevel.obj
 0002:0000a094       ??_C@_1M@BJNKEDC@?$AAc?$AAa?$AA?9?$AAE?$AAS?$AA?$AA@ 1006f094     libucrt:lcidtoname_downlevel.obj
 0002:0000a0a4       ??_C@_1M@IJJHFJHA@?$AAc?$AAs?$AA?9?$AAC?$AAZ?$AA?$AA@ 1006f0a4     libucrt:lcidtoname_downlevel.obj
 0002:0000a0b4       ??_C@_1M@CLPEOBGI@?$AAd?$AAa?$AA?9?$AAD?$AAK?$AA?$AA@ 1006f0b4     libucrt:lcidtoname_downlevel.obj
 0002:0000a0c4       ??_C@_1M@MCMADGCB@?$AAd?$AAe?$AA?9?$AAD?$AAE?$AA?$AA@ 1006f0c4     libucrt:lcidtoname_downlevel.obj
 0002:0000a0d4       ??_C@_1M@OOCKEMAM@?$AAe?$AAl?$AA?9?$AAG?$AAR?$AA?$AA@ 1006f0d4     libucrt:lcidtoname_downlevel.obj
 0002:0000a0e4       ??_C@_1M@DDNJFGID@?$AAf?$AAi?$AA?9?$AAF?$AAI?$AA?$AA@ 1006f0e4     libucrt:lcidtoname_downlevel.obj
 0002:0000a0f4       ??_C@_1M@GLIPPMAC@?$AAf?$AAr?$AA?9?$AAF?$AAR?$AA?$AA@ 1006f0f4     libucrt:lcidtoname_downlevel.obj
 0002:0000a104       ??_C@_1M@GFMCHPE@?$AAh?$AAe?$AA?9?$AAI?$AAL?$AA?$AA@ 1006f104     libucrt:lcidtoname_downlevel.obj
 0002:0000a114       ??_C@_1M@MHLPGNKM@?$AAh?$AAu?$AA?9?$AAH?$AAU?$AA?$AA@ 1006f114     libucrt:lcidtoname_downlevel.obj
 0002:0000a124       ??_C@_1M@LPDDNNPN@?$AAi?$AAs?$AA?9?$AAI?$AAS?$AA?$AA@ 1006f124     libucrt:lcidtoname_downlevel.obj
 0002:0000a134       ??_C@_1M@MADIPODN@?$AAi?$AAt?$AA?9?$AAI?$AAT?$AA?$AA@ 1006f134     libucrt:lcidtoname_downlevel.obj
 0002:0000a144       ??_C@_1M@IHBJJGG@?$AAn?$AAl?$AA?9?$AAN?$AAL?$AA?$AA@ 1006f144     libucrt:lcidtoname_downlevel.obj
 0002:0000a154       ??_C@_1M@EANAGDL@?$AAn?$AAb?$AA?9?$AAN?$AAO?$AA?$AA@ 1006f154     libucrt:lcidtoname_downlevel.obj
 0002:0000a164       ??_C@_1M@NEIEMEGP@?$AAp?$AAl?$AA?9?$AAP?$AAL?$AA?$AA@ 1006f164     libucrt:lcidtoname_downlevel.obj
 0002:0000a174       ??_C@_1M@BOCFIGEP@?$AAp?$AAt?$AA?9?$AAB?$AAR?$AA?$AA@ 1006f174     libucrt:lcidtoname_downlevel.obj
 0002:0000a184       ??_C@_1M@IMPFOPBG@?$AAr?$AAo?$AA?9?$AAR?$AAO?$AA?$AA@ 1006f184     libucrt:lcidtoname_downlevel.obj
 0002:0000a194       ??_C@_1M@IDNNEJMM@?$AAr?$AAu?$AA?9?$AAR?$AAU?$AA?$AA@ 1006f194     libucrt:lcidtoname_downlevel.obj
 0002:0000a1a4       ??_C@_1M@LILEEOGM@?$AAh?$AAr?$AA?9?$AAH?$AAR?$AA?$AA@ 1006f1a4     libucrt:lcidtoname_downlevel.obj
 0002:0000a1b4       ??_C@_1M@FKIFEHPB@?$AAs?$AAk?$AA?9?$AAS?$AAK?$AA?$AA@ 1006f1b4     libucrt:lcidtoname_downlevel.obj
 0002:0000a1c4       ??_C@_1M@LJMAMNPJ@?$AAs?$AAq?$AA?9?$AAA?$AAL?$AA?$AA@ 1006f1c4     libucrt:lcidtoname_downlevel.obj
 0002:0000a1d4       ??_C@_1M@GIAKDKJK@?$AAs?$AAv?$AA?9?$AAS?$AAE?$AA?$AA@ 1006f1d4     libucrt:lcidtoname_downlevel.obj
 0002:0000a1e4       ??_C@_1M@MKJKIKCL@?$AAt?$AAh?$AA?9?$AAT?$AAH?$AA?$AA@ 1006f1e4     libucrt:lcidtoname_downlevel.obj
 0002:0000a1f4       ??_C@_1M@MFLCCMPB@?$AAt?$AAr?$AA?9?$AAT?$AAR?$AA?$AA@ 1006f1f4     libucrt:lcidtoname_downlevel.obj
 0002:0000a204       ??_C@_1M@OIJHDKJN@?$AAu?$AAr?$AA?9?$AAP?$AAK?$AA?$AA@ 1006f204     libucrt:lcidtoname_downlevel.obj
 0002:0000a214       ??_C@_1M@LHIPCIEK@?$AAi?$AAd?$AA?9?$AAI?$AAD?$AA?$AA@ 1006f214     libucrt:lcidtoname_downlevel.obj
 0002:0000a224       ??_C@_1M@MFMOBGI@?$AAu?$AAk?$AA?9?$AAU?$AAA?$AA?$AA@ 1006f224     libucrt:lcidtoname_downlevel.obj
 0002:0000a234       ??_C@_1M@OBGLJIPL@?$AAb?$AAe?$AA?9?$AAB?$AAY?$AA?$AA@ 1006f234     libucrt:lcidtoname_downlevel.obj
 0002:0000a244       ??_C@_1M@BCFAJEAD@?$AAs?$AAl?$AA?9?$AAS?$AAI?$AA?$AA@ 1006f244     libucrt:lcidtoname_downlevel.obj
 0002:0000a254       ??_C@_1M@FKFFEDDN@?$AAe?$AAt?$AA?9?$AAE?$AAE?$AA?$AA@ 1006f254     libucrt:lcidtoname_downlevel.obj
 0002:0000a264       ??_C@_1M@KGKKAACI@?$AAl?$AAv?$AA?9?$AAL?$AAV?$AA?$AA@ 1006f264     libucrt:lcidtoname_downlevel.obj
 0002:0000a274       ??_C@_1M@IFGBIJO@?$AAl?$AAt?$AA?9?$AAL?$AAT?$AA?$AA@ 1006f274     libucrt:lcidtoname_downlevel.obj
 0002:0000a284       ??_C@_1M@FGEAHEDM@?$AAf?$AAa?$AA?9?$AAI?$AAR?$AA?$AA@ 1006f284     libucrt:lcidtoname_downlevel.obj
 0002:0000a294       ??_C@_1M@KBMAIBFN@?$AAv?$AAi?$AA?9?$AAV?$AAN?$AA?$AA@ 1006f294     libucrt:lcidtoname_downlevel.obj
 0002:0000a2a4       ??_C@_1M@GPCBKDJK@?$AAh?$AAy?$AA?9?$AAA?$AAM?$AA?$AA@ 1006f2a4     libucrt:lcidtoname_downlevel.obj
 0002:0000a2b4       ??_C@_1BG@BECMDDJB@?$AAa?$AAz?$AA?9?$AAA?$AAZ?$AA?9?$AAL?$AAa?$AAt?$AAn?$AA?$AA@ 1006f2b4     libucrt:lcidtoname_downlevel.obj
 0002:0000a2d0       ??_C@_1M@MAOFCAEA@?$AAe?$AAu?$AA?9?$AAE?$AAS?$AA?$AA@ 1006f2d0     libucrt:lcidtoname_downlevel.obj
 0002:0000a2e0       ??_C@_1M@IGHABKPI@?$AAm?$AAk?$AA?9?$AAM?$AAK?$AA?$AA@ 1006f2e0     libucrt:lcidtoname_downlevel.obj
 0002:0000a2f0       ??_C@_1M@IAIGNEJG@?$AAt?$AAn?$AA?9?$AAZ?$AAA?$AA?$AA@ 1006f2f0     libucrt:lcidtoname_downlevel.obj
 0002:0000a300       ??_C@_1M@IIJCOJFA@?$AAx?$AAh?$AA?9?$AAZ?$AAA?$AA?$AA@ 1006f300     libucrt:lcidtoname_downlevel.obj
 0002:0000a310       ??_C@_1M@LGPJHNJH@?$AAz?$AAu?$AA?9?$AAZ?$AAA?$AA?$AA@ 1006f310     libucrt:lcidtoname_downlevel.obj
 0002:0000a320       ??_C@_1M@HOKAOIO@?$AAa?$AAf?$AA?9?$AAZ?$AAA?$AA?$AA@ 1006f320     libucrt:lcidtoname_downlevel.obj
 0002:0000a330       ??_C@_1M@DPCLHLIE@?$AAk?$AAa?$AA?9?$AAG?$AAE?$AA?$AA@ 1006f330     libucrt:lcidtoname_downlevel.obj
 0002:0000a340       ??_C@_1M@BLKMHJBI@?$AAf?$AAo?$AA?9?$AAF?$AAO?$AA?$AA@ 1006f340     libucrt:lcidtoname_downlevel.obj
 0002:0000a350       ??_C@_1M@LGGJAPPB@?$AAh?$AAi?$AA?9?$AAI?$AAN?$AA?$AA@ 1006f350     libucrt:lcidtoname_downlevel.obj
 0002:0000a360       ??_C@_1M@FIKPIHFE@?$AAm?$AAt?$AA?9?$AAM?$AAT?$AA?$AA@ 1006f360     libucrt:lcidtoname_downlevel.obj
 0002:0000a370       ??_C@_1M@HEGGPBFA@?$AAs?$AAe?$AA?9?$AAN?$AAO?$AA?$AA@ 1006f370     libucrt:lcidtoname_downlevel.obj
 0002:0000a380       ??_C@_1M@EIBJEEPA@?$AAm?$AAs?$AA?9?$AAM?$AAY?$AA?$AA@ 1006f380     libucrt:lcidtoname_downlevel.obj
 0002:0000a390       ??_C@_1M@FHLBGMPP@?$AAk?$AAk?$AA?9?$AAK?$AAZ?$AA?$AA@ 1006f390     libucrt:lcidtoname_downlevel.obj
 0002:0000a3a0       ??_C@_1M@NGJJLCGI@?$AAk?$AAy?$AA?9?$AAK?$AAG?$AA?$AA@ 1006f3a0     libucrt:lcidtoname_downlevel.obj
 0002:0000a3b0       ??_C@_1M@GIENNBFC@?$AAs?$AAw?$AA?9?$AAK?$AAE?$AA?$AA@ 1006f3b0     libucrt:lcidtoname_downlevel.obj
 0002:0000a3c0       ??_C@_1BG@NDGMJIMJ@?$AAu?$AAz?$AA?9?$AAU?$AAZ?$AA?9?$AAL?$AAa?$AAt?$AAn?$AA?$AA@ 1006f3c0     libucrt:lcidtoname_downlevel.obj
 0002:0000a3dc       ??_C@_1M@IDCCIHBC@?$AAt?$AAt?$AA?9?$AAR?$AAU?$AA?$AA@ 1006f3dc     libucrt:lcidtoname_downlevel.obj
 0002:0000a3ec       ??_C@_1M@LOICPMOJ@?$AAb?$AAn?$AA?9?$AAI?$AAN?$AA?$AA@ 1006f3ec     libucrt:lcidtoname_downlevel.obj
 0002:0000a3fc       ??_C@_1M@KPKKNEAH@?$AAp?$AAa?$AA?9?$AAI?$AAN?$AA?$AA@ 1006f3fc     libucrt:lcidtoname_downlevel.obj
 0002:0000a40c       ??_C@_1M@PJGPPBOG@?$AAg?$AAu?$AA?9?$AAI?$AAN?$AA?$AA@ 1006f40c     libucrt:lcidtoname_downlevel.obj
 0002:0000a41c       ??_C@_1M@KMKMOPHI@?$AAt?$AAa?$AA?9?$AAI?$AAN?$AA?$AA@ 1006f41c     libucrt:lcidtoname_downlevel.obj
 0002:0000a42c       ??_C@_1M@KFEHEPAC@?$AAt?$AAe?$AA?9?$AAI?$AAN?$AA?$AA@ 1006f42c     libucrt:lcidtoname_downlevel.obj
 0002:0000a43c       ??_C@_1M@CDCLMGHI@?$AAk?$AAn?$AA?9?$AAI?$AAN?$AA?$AA@ 1006f43c     libucrt:lcidtoname_downlevel.obj
 0002:0000a44c       ??_C@_1M@MIODLDKF@?$AAm?$AAl?$AA?9?$AAI?$AAN?$AA?$AA@ 1006f44c     libucrt:lcidtoname_downlevel.obj
 0002:0000a45c       ??_C@_1M@PBIEACPO@?$AAm?$AAr?$AA?9?$AAI?$AAN?$AA?$AA@ 1006f45c     libucrt:lcidtoname_downlevel.obj
 0002:0000a46c       ??_C@_1M@NIDEAGPH@?$AAs?$AAa?$AA?9?$AAI?$AAN?$AA?$AA@ 1006f46c     libucrt:lcidtoname_downlevel.obj
 0002:0000a47c       ??_C@_1M@FHIHCBIO@?$AAm?$AAn?$AA?9?$AAM?$AAN?$AA?$AA@ 1006f47c     libucrt:lcidtoname_downlevel.obj
 0002:0000a48c       ??_C@_1M@JAIJPENP@?$AAc?$AAy?$AA?9?$AAG?$AAB?$AA?$AA@ 1006f48c     libucrt:lcidtoname_downlevel.obj
 0002:0000a49c       ??_C@_1M@PHGFBEPN@?$AAg?$AAl?$AA?9?$AAE?$AAS?$AA?$AA@ 1006f49c     libucrt:lcidtoname_downlevel.obj
 0002:0000a4ac       ??_C@_1O@KPIPDNCP@?$AAk?$AAo?$AAk?$AA?9?$AAI?$AAN?$AA?$AA@ 1006f4ac     libucrt:lcidtoname_downlevel.obj
 0002:0000a4bc       ??_C@_1O@KNHJLDJA@?$AAs?$AAy?$AAr?$AA?9?$AAS?$AAY?$AA?$AA@ 1006f4bc     libucrt:lcidtoname_downlevel.obj
 0002:0000a4cc       ??_C@_1O@MKEKBLAH@?$AAd?$AAi?$AAv?$AA?9?$AAM?$AAV?$AA?$AA@ 1006f4cc     libucrt:lcidtoname_downlevel.obj
 0002:0000a4dc       ??_C@_1O@OHDCKDDF@?$AAq?$AAu?$AAz?$AA?9?$AAB?$AAO?$AA?$AA@ 1006f4dc     libucrt:lcidtoname_downlevel.obj
 0002:0000a4ec       ??_C@_1M@LEPJNLFD@?$AAn?$AAs?$AA?9?$AAZ?$AAA?$AA?$AA@ 1006f4ec     libucrt:lcidtoname_downlevel.obj
 0002:0000a4fc       ??_C@_1M@OMLEIIJB@?$AAm?$AAi?$AA?9?$AAN?$AAZ?$AA?$AA@ 1006f4fc     libucrt:lcidtoname_downlevel.obj
 0002:0000a50c       ??_C@_1M@PMPEAILG@?$AAa?$AAr?$AA?9?$AAI?$AAQ?$AA?$AA@ 1006f50c     libucrt:lcidtoname_downlevel.obj
 0002:0000a51c       ??_C@_1M@CNKPNOEE@?$AAd?$AAe?$AA?9?$AAC?$AAH?$AA?$AA@ 1006f51c     libucrt:lcidtoname_downlevel.obj
 0002:0000a52c       ??_C@_1M@LKMGMLKO@?$AAe?$AAn?$AA?9?$AAG?$AAB?$AA?$AA@ 1006f52c     libucrt:lcidtoname_downlevel.obj
 0002:0000a53c       ??_C@_1M@PGKJFFGL@?$AAe?$AAs?$AA?9?$AAM?$AAX?$AA?$AA@ 1006f53c     libucrt:lcidtoname_downlevel.obj
 0002:0000a54c       ??_C@_1M@DNNANBDC@?$AAf?$AAr?$AA?9?$AAB?$AAE?$AA?$AA@ 1006f54c     libucrt:lcidtoname_downlevel.obj
 0002:0000a55c       ??_C@_1M@HLGMDFHM@?$AAi?$AAt?$AA?9?$AAC?$AAH?$AA?$AA@ 1006f55c     libucrt:lcidtoname_downlevel.obj
 0002:0000a56c       ??_C@_1M@CLLBGJH@?$AAn?$AAl?$AA?9?$AAB?$AAE?$AA?$AA@ 1006f56c     libucrt:lcidtoname_downlevel.obj
 0002:0000a57c       ??_C@_1M@BODBOGLF@?$AAn?$AAn?$AA?9?$AAN?$AAO?$AA?$AA@ 1006f57c     libucrt:lcidtoname_downlevel.obj
 0002:0000a58c       ??_C@_1M@HFFAHKAD@?$AAp?$AAt?$AA?9?$AAP?$AAT?$AA?$AA@ 1006f58c     libucrt:lcidtoname_downlevel.obj
 0002:0000a59c       ??_C@_1BG@LNOAKHIE@?$AAs?$AAr?$AA?9?$AAS?$AAP?$AA?9?$AAL?$AAa?$AAt?$AAn?$AA?$AA@ 1006f59c     libucrt:lcidtoname_downlevel.obj
 0002:0000a5b8       ??_C@_1M@HBMHBGAK@?$AAs?$AAv?$AA?9?$AAF?$AAI?$AA?$AA@ 1006f5b8     libucrt:lcidtoname_downlevel.obj
 0002:0000a5c8       ??_C@_1BG@DGCJGJBE@?$AAa?$AAz?$AA?9?$AAA?$AAZ?$AA?9?$AAC?$AAy?$AAr?$AAl?$AA?$AA@ 1006f5c8     libucrt:lcidtoname_downlevel.obj
 0002:0000a5e4       ??_C@_1M@KEJDAAHB@?$AAs?$AAe?$AA?9?$AAS?$AAE?$AA?$AA@ 1006f5e4     libucrt:lcidtoname_downlevel.obj
 0002:0000a5f4       ??_C@_1M@HEIBJJAD@?$AAm?$AAs?$AA?9?$AAB?$AAN?$AA?$AA@ 1006f5f4     libucrt:lcidtoname_downlevel.obj
 0002:0000a604       ??_C@_1BG@PBGJMCEM@?$AAu?$AAz?$AA?9?$AAU?$AAZ?$AA?9?$AAC?$AAy?$AAr?$AAl?$AA?$AA@ 1006f604     libucrt:lcidtoname_downlevel.obj
 0002:0000a620       ??_C@_1O@LAOBCMDF@?$AAq?$AAu?$AAz?$AA?9?$AAE?$AAC?$AA?$AA@ 1006f620     libucrt:lcidtoname_downlevel.obj
 0002:0000a630       ??_C@_1M@POEEMAIO@?$AAa?$AAr?$AA?9?$AAE?$AAG?$AA?$AA@ 1006f630     libucrt:lcidtoname_downlevel.obj
 0002:0000a640       ??_C@_1M@EFAKDEDL@?$AAz?$AAh?$AA?9?$AAH?$AAK?$AA?$AA@ 1006f640     libucrt:lcidtoname_downlevel.obj
 0002:0000a650       ??_C@_1M@HKKIJHGI@?$AAd?$AAe?$AA?9?$AAA?$AAT?$AA?$AA@ 1006f650     libucrt:lcidtoname_downlevel.obj
 0002:0000a660       ??_C@_1M@KBFBEHJF@?$AAe?$AAn?$AA?9?$AAA?$AAU?$AA?$AA@ 1006f660     libucrt:lcidtoname_downlevel.obj
 0002:0000a670       ??_C@_1M@MNPLFAAH@?$AAe?$AAs?$AA?9?$AAE?$AAS?$AA?$AA@ 1006f670     libucrt:lcidtoname_downlevel.obj
 0002:0000a680       ??_C@_1M@HJOOJFMA@?$AAf?$AAr?$AA?9?$AAC?$AAA?$AA?$AA@ 1006f680     libucrt:lcidtoname_downlevel.obj
 0002:0000a690       ??_C@_1BG@JPOFPNAB@?$AAs?$AAr?$AA?9?$AAS?$AAP?$AA?9?$AAC?$AAy?$AAr?$AAl?$AA?$AA@ 1006f690     libucrt:lcidtoname_downlevel.obj
 0002:0000a6ac       ??_C@_1M@LNFOCMOB@?$AAs?$AAe?$AA?9?$AAF?$AAI?$AA?$AA@ 1006f6ac     libucrt:lcidtoname_downlevel.obj
 0002:0000a6bc       ??_C@_1O@MGJBOAMB@?$AAq?$AAu?$AAz?$AA?9?$AAP?$AAE?$AA?$AA@ 1006f6bc     libucrt:lcidtoname_downlevel.obj
 0002:0000a6cc       ??_C@_1M@GJINLBOK@?$AAa?$AAr?$AA?9?$AAL?$AAY?$AA?$AA@ 1006f6cc     libucrt:lcidtoname_downlevel.obj
 0002:0000a6dc       ??_C@_1M@GGMNHJNL@?$AAz?$AAh?$AA?9?$AAS?$AAG?$AA?$AA@ 1006f6dc     libucrt:lcidtoname_downlevel.obj
 0002:0000a6ec       ??_C@_1M@HOIKODND@?$AAd?$AAe?$AA?9?$AAL?$AAU?$AA?$AA@ 1006f6ec     libucrt:lcidtoname_downlevel.obj
 0002:0000a6fc       ??_C@_1M@DDOCCGFG@?$AAe?$AAn?$AA?9?$AAC?$AAA?$AA?$AA@ 1006f6fc     libucrt:lcidtoname_downlevel.obj
 0002:0000a70c       ??_C@_1M@BNOEMJLF@?$AAe?$AAs?$AA?9?$AAG?$AAT?$AA?$AA@ 1006f70c     libucrt:lcidtoname_downlevel.obj
 0002:0000a71c       ??_C@_1M@EOGNKEK@?$AAf?$AAr?$AA?9?$AAC?$AAH?$AA?$AA@ 1006f71c     libucrt:lcidtoname_downlevel.obj
 0002:0000a72c       ??_C@_1M@FLIDJFHL@?$AAh?$AAr?$AA?9?$AAB?$AAA?$AA?$AA@ 1006f72c     libucrt:lcidtoname_downlevel.obj
 0002:0000a73c       ??_C@_1O@FMCELNAJ@?$AAs?$AAm?$AAj?$AA?9?$AAN?$AAO?$AA?$AA@ 1006f73c     libucrt:lcidtoname_downlevel.obj
 0002:0000a74c       ??_C@_1M@JHGLJMGJ@?$AAa?$AAr?$AA?9?$AAD?$AAZ?$AA?$AA@ 1006f74c     libucrt:lcidtoname_downlevel.obj
 0002:0000a75c       ??_C@_1M@JKKFDCNP@?$AAz?$AAh?$AA?9?$AAM?$AAO?$AA?$AA@ 1006f75c     libucrt:lcidtoname_downlevel.obj
 0002:0000a76c       ??_C@_1M@GEEFALPE@?$AAd?$AAe?$AA?9?$AAL?$AAI?$AA?$AA@ 1006f76c     libucrt:lcidtoname_downlevel.obj
 0002:0000a77c       ??_C@_1M@IGEOFBG@?$AAe?$AAn?$AA?9?$AAN?$AAZ?$AA?$AA@ 1006f77c     libucrt:lcidtoname_downlevel.obj
 0002:0000a78c       ??_C@_1M@KDBONEHP@?$AAe?$AAs?$AA?9?$AAC?$AAR?$AA?$AA@ 1006f78c     libucrt:lcidtoname_downlevel.obj
 0002:0000a79c       ??_C@_1M@FHMDOHNN@?$AAf?$AAr?$AA?9?$AAL?$AAU?$AA?$AA@ 1006f79c     libucrt:lcidtoname_downlevel.obj
 0002:0000a7ac       ??_C@_1BG@NFKKMAFG@?$AAb?$AAs?$AA?9?$AAB?$AAA?$AA?9?$AAL?$AAa?$AAt?$AAn?$AA?$AA@ 1006f7ac     libucrt:lcidtoname_downlevel.obj
 0002:0000a7c8       ??_C@_1O@IMNBEMCI@?$AAs?$AAm?$AAj?$AA?9?$AAS?$AAE?$AA?$AA@ 1006f7c8     libucrt:lcidtoname_downlevel.obj
 0002:0000a7d8       ??_C@_1M@DHHMBNDP@?$AAa?$AAr?$AA?9?$AAM?$AAA?$AA?$AA@ 1006f7d8     libucrt:lcidtoname_downlevel.obj
 0002:0000a7e8       ??_C@_1M@BNBLJCGH@?$AAe?$AAn?$AA?9?$AAI?$AAE?$AA?$AA@ 1006f7e8     libucrt:lcidtoname_downlevel.obj
 0002:0000a7f8       ??_C@_1M@GEPAFMDL@?$AAe?$AAs?$AA?9?$AAP?$AAA?$AA?$AA@ 1006f7f8     libucrt:lcidtoname_downlevel.obj
 0002:0000a808       ??_C@_1M@OJONDMDL@?$AAf?$AAr?$AA?9?$AAM?$AAC?$AA?$AA@ 1006f808     libucrt:lcidtoname_downlevel.obj
 0002:0000a818       ??_C@_1BG@OBCNFJB@?$AAs?$AAr?$AA?9?$AAB?$AAA?$AA?9?$AAL?$AAa?$AAt?$AAn?$AA?$AA@ 1006f818     libucrt:lcidtoname_downlevel.obj
 0002:0000a834       ??_C@_1O@KEMEEGPO@?$AAs?$AAm?$AAa?$AA?9?$AAN?$AAO?$AA?$AA@ 1006f834     libucrt:lcidtoname_downlevel.obj
 0002:0000a844       ??_C@_1M@ELMGFODK@?$AAa?$AAr?$AA?9?$AAT?$AAN?$AA?$AA@ 1006f844     libucrt:lcidtoname_downlevel.obj
 0002:0000a854       ??_C@_1M@BHDLHFAF@?$AAe?$AAn?$AA?9?$AAZ?$AAA?$AA?$AA@ 1006f854     libucrt:lcidtoname_downlevel.obj
 0002:0000a864       ??_C@_1M@BMGIGLIF@?$AAe?$AAs?$AA?9?$AAD?$AAO?$AA?$AA@ 1006f864     libucrt:lcidtoname_downlevel.obj
 0002:0000a874       ??_C@_1BG@CMBHIPBE@?$AAs?$AAr?$AA?9?$AAB?$AAA?$AA?9?$AAC?$AAy?$AAr?$AAl?$AA?$AA@ 1006f874     libucrt:lcidtoname_downlevel.obj
 0002:0000a890       ??_C@_1O@HEDBLHNP@?$AAs?$AAm?$AAa?$AA?9?$AAS?$AAE?$AA?$AA@ 1006f890     libucrt:lcidtoname_downlevel.obj
 0002:0000a8a0       ??_C@_1M@DAGCADIM@?$AAa?$AAr?$AA?9?$AAO?$AAM?$AA?$AA@ 1006f8a0     libucrt:lcidtoname_downlevel.obj
 0002:0000a8b0       ??_C@_1M@FODLMICG@?$AAe?$AAn?$AA?9?$AAJ?$AAM?$AA?$AA@ 1006f8b0     libucrt:lcidtoname_downlevel.obj
 0002:0000a8c0       ??_C@_1M@DNMLCIHB@?$AAe?$AAs?$AA?9?$AAV?$AAE?$AA?$AA@ 1006f8c0     libucrt:lcidtoname_downlevel.obj
 0002:0000a8d0       ??_C@_1O@EOKHMKJK@?$AAs?$AAm?$AAs?$AA?9?$AAF?$AAI?$AA?$AA@ 1006f8d0     libucrt:lcidtoname_downlevel.obj
 0002:0000a8e0       ??_C@_1M@CAFJMKOF@?$AAa?$AAr?$AA?9?$AAY?$AAE?$AA?$AA@ 1006f8e0     libucrt:lcidtoname_downlevel.obj
 0002:0000a8f0       ??_C@_1M@CBFHIJLI@?$AAe?$AAn?$AA?9?$AAC?$AAB?$AA?$AA@ 1006f8f0     libucrt:lcidtoname_downlevel.obj
 0002:0000a900       ??_C@_1M@BGNFLDN@?$AAe?$AAs?$AA?9?$AAC?$AAO?$AA?$AA@ 1006f900     libucrt:lcidtoname_downlevel.obj
 0002:0000a910       ??_C@_1O@JMPHMAMC@?$AAs?$AAm?$AAn?$AA?9?$AAF?$AAI?$AA?$AA@ 1006f910     libucrt:lcidtoname_downlevel.obj
 0002:0000a920       ??_C@_1M@JLANABKE@?$AAa?$AAr?$AA?9?$AAS?$AAY?$AA?$AA@ 1006f920     libucrt:lcidtoname_downlevel.obj
 0002:0000a930       ??_C@_1M@HPKGCFGN@?$AAe?$AAn?$AA?9?$AAB?$AAZ?$AA?$AA@ 1006f930     libucrt:lcidtoname_downlevel.obj
 0002:0000a940       ??_C@_1M@OLJCMLGM@?$AAe?$AAs?$AA?9?$AAP?$AAE?$AA?$AA@ 1006f940     libucrt:lcidtoname_downlevel.obj
 0002:0000a950       ??_C@_1M@MKKGFKLE@?$AAa?$AAr?$AA?9?$AAJ?$AAO?$AA?$AA@ 1006f950     libucrt:lcidtoname_downlevel.obj
 0002:0000a960       ??_C@_1M@EKPGLDNI@?$AAe?$AAn?$AA?9?$AAT?$AAT?$AA?$AA@ 1006f960     libucrt:lcidtoname_downlevel.obj
 0002:0000a970       ??_C@_1M@OONGHFHE@?$AAe?$AAs?$AA?9?$AAA?$AAR?$AA?$AA@ 1006f970     libucrt:lcidtoname_downlevel.obj
 0002:0000a980       ??_C@_1M@OOJFGBHE@?$AAa?$AAr?$AA?9?$AAL?$AAB?$AA?$AA@ 1006f980     libucrt:lcidtoname_downlevel.obj
 0002:0000a990       ??_C@_1M@GCEJHNEG@?$AAe?$AAn?$AA?9?$AAZ?$AAW?$AA?$AA@ 1006f990     libucrt:lcidtoname_downlevel.obj
 0002:0000a9a0       ??_C@_1M@JNOCAHJI@?$AAe?$AAs?$AA?9?$AAE?$AAC?$AA?$AA@ 1006f9a0     libucrt:lcidtoname_downlevel.obj
 0002:0000a9b0       ??_C@_1M@JEFHPGGB@?$AAa?$AAr?$AA?9?$AAK?$AAW?$AA?$AA@ 1006f9b0     libucrt:lcidtoname_downlevel.obj
 0002:0000a9c0       ??_C@_1M@MLKIBJOJ@?$AAe?$AAn?$AA?9?$AAP?$AAH?$AA?$AA@ 1006f9c0     libucrt:lcidtoname_downlevel.obj
 0002:0000a9d0       ??_C@_1M@BDNIPEND@?$AAe?$AAs?$AA?9?$AAC?$AAL?$AA?$AA@ 1006f9d0     libucrt:lcidtoname_downlevel.obj
 0002:0000a9e0       ??_C@_1M@MPNMEKBD@?$AAa?$AAr?$AA?9?$AAA?$AAE?$AA?$AA@ 1006f9e0     libucrt:lcidtoname_downlevel.obj
 0002:0000a9f0       ??_C@_1M@KBJALCPI@?$AAe?$AAs?$AA?9?$AAU?$AAY?$AA?$AA@ 1006f9f0     libucrt:lcidtoname_downlevel.obj
 0002:0000aa00       ??_C@_1M@LLCCOAGA@?$AAa?$AAr?$AA?9?$AAB?$AAH?$AA?$AA@ 1006fa00     libucrt:lcidtoname_downlevel.obj
 0002:0000aa10       ??_C@_1M@PBFNCDEL@?$AAe?$AAs?$AA?9?$AAP?$AAY?$AA?$AA@ 1006fa10     libucrt:lcidtoname_downlevel.obj
 0002:0000aa20       ??_C@_1M@EDGINPNP@?$AAa?$AAr?$AA?9?$AAQ?$AAA?$AA?$AA@ 1006fa20     libucrt:lcidtoname_downlevel.obj
 0002:0000aa30       ??_C@_1M@MKDBIIJI@?$AAe?$AAs?$AA?9?$AAB?$AAO?$AA?$AA@ 1006fa30     libucrt:lcidtoname_downlevel.obj
 0002:0000aa40       ??_C@_1M@CPKKEBLD@?$AAe?$AAs?$AA?9?$AAS?$AAV?$AA?$AA@ 1006fa40     libucrt:lcidtoname_downlevel.obj
 0002:0000aa50       ??_C@_1M@NDBGMMJL@?$AAe?$AAs?$AA?9?$AAH?$AAN?$AA?$AA@ 1006fa50     libucrt:lcidtoname_downlevel.obj
 0002:0000aa60       ??_C@_1M@JIJIBHDP@?$AAe?$AAs?$AA?9?$AAN?$AAI?$AA?$AA@ 1006fa60     libucrt:lcidtoname_downlevel.obj
 0002:0000aa70       ??_C@_1M@CGFMKEEK@?$AAe?$AAs?$AA?9?$AAP?$AAR?$AA?$AA@ 1006fa70     libucrt:lcidtoname_downlevel.obj
 0002:0000aa80       ??_C@_1O@ICJHKIIK@?$AAz?$AAh?$AA?9?$AAC?$AAH?$AAT?$AA?$AA@ 1006fa80     libucrt:lcidtoname_downlevel.obj
 0002:0000aa90       ??_C@_15CLNEJCE@?$AAs?$AAr?$AA?$AA@ 1006fa90     libucrt:lcidtoname_downlevel.obj
 0002:0000b324       ??_C@_1M@KAHEKEIG@?$AAa?$AAf?$AA?9?$AAz?$AAa?$AA?$AA@ 10070324     libucrt:lcidtoname_downlevel.obj
 0002:0000b334       ??_C@_1M@GIECOABL@?$AAa?$AAr?$AA?9?$AAa?$AAe?$AA?$AA@ 10070334     libucrt:lcidtoname_downlevel.obj
 0002:0000b344       ??_C@_1M@BMLMEKGI@?$AAa?$AAr?$AA?9?$AAb?$AAh?$AA?$AA@ 10070344     libucrt:lcidtoname_downlevel.obj
