 proj3_slrt

 Timestamp is 5bca2008 (Fri Oct 19 14:18:48 2018)

 Preferred load address is 10000000

 Start         Length     Name                   Class
 0001:00000000 000634c8H .text$mn                CODE
 0002:00000000 00000104H .CRT$XCA                DATA
 0002:00000104 00000104H .CRT$XCZ                DATA
 0002:00000208 00000104H .CRT$XIA                DATA
 0002:0000030c 00000110H .CRT$XIC                DATA
 0002:0000041c 00000104H .CRT$XIZ                DATA
 0002:00000520 00000104H .CRT$XPA                DATA
 0002:00000624 0000010cH .CRT$XPX                DATA
 0002:00000730 00000104H .CRT$XPXA               DATA
 0002:00000834 00000104H .CRT$XPZ                DATA
 0002:00000938 00000104H .CRT$XTA                DATA
 0002:00000a3c 00000104H .CRT$XTZ                DATA
 0002:00000b40 0000e284H .rdata                  DATA
 0002:0000edc4 0000038cH .rdata$r                DATA
 0002:0000f150 00000110H .rdata$sxdata           DATA
 0002:0000f260 000001e4H .rdata$zzzdbg           DATA
 0002:0000f444 00000104H .rtc$IAA                DATA
 0002:0000f548 00000104H .rtc$IZZ                DATA
 0002:0000f64c 00000104H .rtc$TAA                DATA
 0002:0000f750 00000108H .rtc$TZZ                DATA
 0002:0000f858 00000ac8H .xdata$x                DATA
 0002:00010320 000001fdH .edata                  DATA
 0003:00000000 00001344H .data                   DATA
 0003:00001344 000001dcH .data$r                 DATA
 0003:00001520 00014328H .bss                    DATA
 0004:00000000 000001d4H .idata$5                DATA
 0004:000001d4 00000014H .idata$2                DATA
 0004:000001e8 00000014H .idata$3                DATA
 0004:000001fc 000001d4H .idata$4                DATA
 0004:000003d0 00000843H .idata$6                DATA
 0005:00000000 00000224H .gfids$x                DATA
 0005:00000224 000001a5H .gfids$y                DATA
 0006:00000000 00000104H .00cfg                  DATA

  Address         Publics by Value              Rva+Base       Lib:Object

 0000:00000000       ___guard_fids_table        00000000     <absolute>
 0000:00000000       ___guard_longjmp_count     00000000     <absolute>
 0000:00000000       ___guard_iat_table         00000000     <absolute>
 0000:00000000       ___dynamic_value_reloc_table 00000000     <absolute>
 0000:00000000       __except_list              00000000     <absolute>
 0000:00000000       ___guard_iat_count         00000000     <absolute>
 0000:00000000       ___guard_longjmp_table     00000000     <absolute>
 0000:00000000       ___guard_fids_count        00000000     <absolute>
 0000:00000003       ___safe_se_handler_count   00000003     <absolute>
 0000:00000100       ___guard_flags             00000100     <absolute>
 0000:00000000       ___ImageBase               10000000     <linker-defined>
 0001:00005fa0       _MdlInitialize             10006fa0 f   proj3.obj
 0001:00005fb0       _MdlInitializeSampleTimes  10006fb0 f   proj3.obj
 0001:00005fc0       _MdlInitializeSizes        10006fc0 f   proj3.obj
 0001:00005fd0       _MdlOutputs                10006fd0 f   proj3.obj
 0001:00005fe0       _MdlStart                  10006fe0 f   proj3.obj
 0001:00005ff0       _MdlTerminate              10006ff0 f   proj3.obj
 0001:00006020       _MdlUpdate                 10007020 f   proj3.obj
 0001:00006030       ___local_stdio_printf_options 10007030 f i proj3.obj
 0001:00006040       __vfprintf_l               10007040 f i proj3.obj
 0001:00006070       _printf                    10007070 f i proj3.obj
 0001:000060b0       _proj3                     100070b0 f   proj3.obj
 0001:00006bc0       _proj3_derivatives         10007bc0 f   proj3.obj
 0001:00006c10       _proj3_initialize          10007c10 f   proj3.obj
 0001:000074c0       _proj3_output              100084c0 f   proj3.obj
 0001:00007a30       _proj3_terminate           10008a30 f   proj3.obj
 0001:00007a60       _proj3_update              10008a60 f   proj3.obj
 0001:00007bb0       _rt_ODECreateIntegrationData 10008bb0 f   proj3.obj
 0001:00007bc0       _rt_ODEDestroyIntegrationData 10008bc0 f   proj3.obj
 0001:00007bd0       _rt_ODEUpdateContinuousStates 10008bd0 f   proj3.obj
 0001:00007ff0       _rt_mxCreateCharMatrixFromStrings 10008ff0 f   rt_matrx.obj
 0001:00008150       _rt_mxCreateDoubleMatrix   10009150 f   rt_matrx.obj
 0001:000081b0       _rt_mxCreateNumericArray   100091b0 f   rt_matrx.obj
 0001:00008230       _rt_mxCreateString         10009230 f   rt_matrx.obj
 0001:000082c0       _rt_mxDuplicateArray       100092c0 f   rt_matrx.obj
 0001:00008320       _rt_mxGetDimensions        10009320 f   rt_matrx.obj
 0001:00008360       _rt_mxGetEps               10009360 f   rt_matrx.obj
 0001:00008370       _rt_mxGetString            10009370 f   rt_matrx.obj
 0001:000083f0       _rtPrintfNoOp              100093f0 f   rt_printf.obj
 0001:00008400       __vsnprintf_l              10009400 f i rt_logging.obj
 0001:00008440       __vsprintf_l               10009440 f i rt_logging.obj
 0001:00008480       _fprintf                   10009480 f i rt_logging.obj
 0001:00008d90       _rt_CreateLogVar           10009d90 f   rt_logging.obj
 0001:00008e20       _rt_CreateLogVarWithConvert 10009e20 f   rt_logging.obj
 0001:000097a0       _rt_CreateStructLogVar     1000a7a0 f   rt_logging.obj
 0001:0000a500       _rt_GetMxIdFromDTypeId     1000b500 f   rt_logging.obj
 0001:0000a530       _rt_GetMxIdFromDTypeIdForRSim 1000b530 f   rt_logging.obj
 0001:0000ce10       _rt_StartDataLogging       1000de10 f   rt_logging.obj
 0001:0000d2d0       _rt_StartDataLoggingWithStartTime 1000e2d0 f   rt_logging.obj
 0001:0000dc30       _rt_StopDataLogging        1000ec30 f   rt_logging.obj
 0001:0000dc50       _rt_StopDataLoggingImpl    1000ec50 f   rt_logging.obj
 0001:0000df80       _rt_UpdateLogVar           1000ef80 f   rt_logging.obj
 0001:0000f0a0       _rt_UpdateStructLogVar     100100a0 f   rt_logging.obj
 0001:0000f130       _rt_UpdateTXXFYLogVars     10010130 f   rt_logging.obj
 0001:0000f590       _rt_UpdateTXYLogVars       10010590 f   rt_logging.obj
 0001:0000f7e0       _rt_getTempMemory          100107e0 f   rt_logging.obj
 0001:0000f830       _sprintf                   10010830 f i rt_logging.obj
 0001:0000f870       _proj3_GetCAPIStaticMap    10010870 f   proj3_capi.obj
 0001:0000f880       _proj3_InitializeDataMapInfo 10010880 f   proj3_capi.obj
 0001:0000f950       _mdlXcp_GetMdlXcpInfo      10010950 f   proj3_xcp.obj
 0001:0000f960       _SLRT_update_TET           10010960 f   proj3_xcp_TET.obj
 0001:0000fa30       _rtGetInf                  10010a30 f   rtGetInf.obj
 0001:0000fa60       _rtGetInfF                 10010a60 f   rtGetInf.obj
 0001:0000fa80       _rtGetMinusInf             10010a80 f   rtGetInf.obj
 0001:0000fab0       _rtGetMinusInfF            10010ab0 f   rtGetInf.obj
 0001:0000fad0       _rtGetNaN                  10010ad0 f   rtGetNaN.obj
 0001:0000fb00       _rtGetNaNF                 10010b00 f   rtGetNaN.obj
 0001:0000fb20       _rtIsInf                   10010b20 f   rt_nonfinite.obj
 0001:0000fb60       _rtIsInfF                  10010b60 f   rt_nonfinite.obj
 0001:0000fba0       _rtIsNaN                   10010ba0 f   rt_nonfinite.obj
 0001:0000fbc0       _rtIsNaNF                  10010bc0 f   rt_nonfinite.obj
 0001:0000fbe0       _rt_InitInfAndNaN          10010be0 f   rt_nonfinite.obj
 0001:0000fc40       _rt_CleanUpForStateLogWithMMI 10010c40 f   rt_logging_mmi.obj
 0001:0000fd50       _rt_FillStateSigInfoFromMMI 10010d50 f   rt_logging_mmi.obj
 0001:000100f0       _rtwCAPI_CountSysRan       100110f0 f   rtw_modelmap_utils.obj
 0001:00010190       _rtwCAPI_EncodePath        10011190 f   rtw_modelmap_utils.obj
 0001:00010290       _rtwCAPI_FillSysRan        10011290 f   rtw_modelmap_utils.obj
 0001:00010380       _rtwCAPI_FreeFullPaths     10011380 f   rtw_modelmap_utils.obj
 0001:00010410       _rtwCAPI_GetFullStateBlockPath 10011410 f   rtw_modelmap_utils.obj
 0001:000105c0       _rtwCAPI_GetNumContStateRecords 100115c0 f   rtw_modelmap_utils.obj
 0001:00010680       _rtwCAPI_GetNumSigLogRecords 10011680 f   rtw_modelmap_utils.obj
 0001:000106d0       _rtwCAPI_GetNumSigLogRecordsForRTWLogging 100116d0 f   rtw_modelmap_utils.obj
 0001:00010770       _rtwCAPI_GetNumStateRecords 10011770 f   rtw_modelmap_utils.obj
 0001:000107c0       _rtwCAPI_GetNumStateRecordsForRTWLogging 100117c0 f   rtw_modelmap_utils.obj
 0001:00010860       _rtwCAPI_GetSigAddrFromMap 10011860 f   rtw_modelmap_utils.obj
 0001:00010920       _rtwCAPI_GetSigLogRecordInfo 10011920 f   rtw_modelmap_utils.obj
 0001:00010d50       _rtwCAPI_GetStateRecordInfo 10011d50 f   rtw_modelmap_utils.obj
 0001:00011200       _rtwCAPI_GetStateWidth     10012200 f   rtw_modelmap_utils.obj
 0001:00011260       _rtwCAPI_HasStates         10012260 f   rtw_modelmap_utils.obj
 0001:000112d0       _rtwCAPI_UpdateFullPaths   100122d0 f   rtw_modelmap_utils.obj
 0001:000114b0       _timestamp_x86             100124b0 f   host_timer_x86.obj
 0001:000114c0       _taskTimeEnd               100124c0 f   xpc_code_profiling_utility_functions.obj
 0001:000114d0       _taskTimeEnd_              100124d0 f   xpc_code_profiling_utility_functions.obj
 0001:000114e0       _taskTimeStart             100124e0 f   xpc_code_profiling_utility_functions.obj
 0001:000114f0       _taskTimeStart_            100124f0 f   xpc_code_profiling_utility_functions.obj
 0001:00011500       _xilProfilingTimerFreeze   10012500 f   xpc_code_profiling_utility_functions.obj
 0001:00011510       _xilProfilingTimerUnFreeze 10012510 f   xpc_code_profiling_utility_functions.obj
 0001:00011520       _xilUploadProfilingData    10012520 f   xpc_code_profiling_utility_functions.obj
 0001:00011530       _DllMain@12                10012530 f   xpctarget.obj
 0001:00011540       _SLRTSetErrorStatus        10012540 f   xpctarget.obj
 0001:00011560       _changeStepSize            10012560 f   xpctarget.obj
 0001:000115d0       _getDLMVersion             100125d0 f   xpctarget.obj
 0001:000115e0       _getRefMdlPath             100125e0 f   xpctarget.obj
 0001:00011660       _getRefMdlSignalNumber     10012660 f   xpctarget.obj
 0001:00011710       _getrlmdlinfo              10012710 f   xpctarget.obj
 0001:00011870       _proj3_ChangeStepSize      10012870 f   xpctarget.obj
 0001:000118e0       _updateDiscreteEvents      100128e0 f   xpctarget.obj
 0001:000118f0       _getNumRef                 100128f0 f   appmappingData.obj
 0001:00011900       _vprintf                   10012900 f i legacy_stdio.obj
 0001:00011940       _daquanserq8               10012940 f   daquanserq8.obj
 0001:000122b0       _encquanserq8              100132b0 f   encquanserq8.obj
 0001:00012df0       _GetPCIDeviceFull          10013df0 f   xpcruntime:xpcimports.obj
 0001:00012e40       _GetPCIDeviceFunction      10013e40 f   xpcruntime:xpcimports.obj
 0001:00012e80       _ShowPCIDevice             10013e80 f   xpcruntime:xpcimports.obj
 0001:000134b0       _slrtGetPciConfigAtFunction 100144b0 f   xpcruntime:xpcimports.obj
 0001:00013820       _xpcGetPciConfigAtSlot     10014820 f   xpcruntime:xpcimports.obj
 0001:00013840       _xpcInitProcs              10014840 f   xpcruntime:xpcimports.obj
 0001:00014d70       _xpceuploadevent           10015d70 f   xpcruntime:xpcimports.obj
 0001:00014d80       __ftoui3                   10015d80 f   LIBCMT:_ftol3_.obj
 0001:00014d8f       __ftoul3                   10015d8f f   LIBCMT:_ftol3_.obj
 0001:00014d9e       __ftol3                    10015d9e f   LIBCMT:_ftol3_.obj
 0001:00014dab       __ftol3_NaN                10015dab f   LIBCMT:_ftol3_.obj
 0001:00014dc3       __ftol3_work               10015dc3 f   LIBCMT:_ftol3_.obj
 0001:00014e49       __ftol3_common             10015e49 f   LIBCMT:_ftol3_.obj
 0001:00014f0b       __ftol3_arg_error          10015f0b f   LIBCMT:_ftol3_.obj
 0001:00014f1d       __ftol3_except             10015f1d f   LIBCMT:_ftol3_.obj
 0001:00014f61       __dtoui3                   10015f61 f   LIBCMT:_ftol3_.obj
 0001:00014f70       __dtoul3                   10015f70 f   LIBCMT:_ftol3_.obj
 0001:00014f7f       __dtol3                    10015f7f f   LIBCMT:_ftol3_.obj
 0001:00014f8c       __dtol3_NaN                10015f8c f   LIBCMT:_ftol3_.obj
 0001:00014fa9       __dtol3_work               10015fa9 f   LIBCMT:_ftol3_.obj
 0001:00015090       __ultod3                   10016090 f   LIBCMT:_ftol3_.obj
 0001:000150d0       __ltod3                    100160d0 f   LIBCMT:_ftol3_.obj
 0001:000151d4       ___raise_securityfailure   100161d4 f   LIBCMT:gs_report.obj
 0001:00015206       ___report_gsfailure        10016206 f   LIBCMT:gs_report.obj
 0001:0001533f       ___report_rangecheckfailure 1001633f f   LIBCMT:gs_report.obj
 0001:0001534e       ___report_securityfailure  1001634e f   LIBCMT:gs_report.obj
 0001:00015452       ___report_securityfailureEx 10016452 f   LIBCMT:gs_report.obj
 0001:000155ad       @__security_check_cookie@4 100165ad f   LIBCMT:_secchk_.obj
 0001:000155c2       ___isa_available_init      100165c2 f   LIBCMT:_cpu_disp_.obj
 0001:00015b8a       __CRT_INIT@12              10016b8a f   LIBCMT:dll_dllmain.obj
 0001:00015b95       __DllMainCRTStartup@12     10016b95 f   LIBCMT:dll_dllmain.obj
 0001:00015bc0       ??$__crt_fast_decode_pointer@PAP6AXXZ@@YAPAP6AXXZQAP6AXXZ@Z 10016bc0 f i LIBCMT:utility.obj
 0001:00015bd9       ??$__crt_fast_encode_pointer@PAP6AXXZ@@YAPAP6AXXZQAP6AXXZ@Z 10016bd9 f i LIBCMT:utility.obj
 0001:00015bfd       ?__crt_rotate_pointer_value@@YAIIH@Z 10016bfd f i LIBCMT:utility.obj
 0001:00015c0d       ?configure_argv@__scrt_narrow_argv_policy@@SAHXZ 10016c0d f i LIBCMT:utility.obj
 0001:00015cb1       _NtCurrentTeb              10016cb1 f i LIBCMT:utility.obj
 0001:00015cb8       ___scrt_acquire_startup_lock 10016cb8 f   LIBCMT:utility.obj
 0001:00015cfa       ___scrt_dllmain_after_initialize_c 10016cfa f   LIBCMT:utility.obj
 0001:00015d2f       ___scrt_dllmain_before_initialize_c 10016d2f f   LIBCMT:utility.obj
 0001:00015d40       ___scrt_dllmain_crt_thread_attach 10016d40 f   LIBCMT:utility.obj
 0001:00015d66       ___scrt_dllmain_crt_thread_detach 10016d66 f   LIBCMT:utility.obj
 0001:00015d76       ___scrt_dllmain_exception_filter 10016d76 f   LIBCMT:utility.obj
 0001:00015db5       ___scrt_dllmain_uninitialize_c 10016db5 f   LIBCMT:utility.obj
 0001:00015de0       ___scrt_dllmain_uninitialize_critical 10016de0 f   LIBCMT:utility.obj
 0001:00015df0       ___scrt_initialize_crt     10016df0 f   LIBCMT:utility.obj
 0001:00015e37       ___scrt_initialize_onexit_tables 10016e37 f   LIBCMT:utility.obj
 0001:00015ef3       ___scrt_is_nonwritable_in_current_image 10016ef3 f   LIBCMT:utility.obj
 0001:00015f9f       ___scrt_release_startup_lock 10016f9f f   LIBCMT:utility.obj
 0001:00015fc3       ___scrt_uninitialize_crt   10016fc3 f   LIBCMT:utility.obj
 0001:00015ff5       __onexit                   10016ff5 f   LIBCMT:utility.obj
 0001:0001603e       _at_quick_exit             1001703e f   LIBCMT:utility.obj
 0001:0001607b       _atexit                    1001707b f   LIBCMT:utility.obj
 0001:00016095       ___security_init_cookie    10017095 f   LIBCMT:gs_support.obj
 0001:00016158       ?__scrt_initialize_type_info@@YAXXZ 10017158 f   LIBCMT:tncleanup.obj
 0001:00016167       ?__scrt_uninitialize_type_info@@YAXXZ 10017167 f   LIBCMT:tncleanup.obj
 0001:00016176       ___local_stdio_scanf_options 10017176 f i LIBCMT:default_local_stdio_options.obj
 0001:0001617c       ___scrt_initialize_default_local_stdio_options 1001717c f   LIBCMT:default_local_stdio_options.obj
 0001:000161a0       ___scrt_get_dyn_tls_init_callback 100171a0 f   LIBCMT:dyn_tls_init.obj
 0001:000161a6       ___scrt_fastfail           100171a6 f   LIBCMT:utility_desktop.obj
 0001:00016307       ___scrt_get_show_window_mode 10017307 f   LIBCMT:utility_desktop.obj
 0001:00016346       ___scrt_initialize_winrt   10017346 f   LIBCMT:utility_desktop.obj
 0001:00016349       ___scrt_is_managed_app     10017349 f   LIBCMT:utility_desktop.obj
 0001:0001639e       ___scrt_set_unhandled_exception_filter 1001739e f   LIBCMT:utility_desktop.obj
 0001:000163ad       ___scrt_unhandled_exception_filter@4 100173ad f   LIBCMT:utility_desktop.obj
 0001:000163fe       __crt_debugger_hook        100173fe f   LIBCMT:utility_desktop.obj
 0001:00016408       __RTC_Initialize           10017408 f   LIBCMT:_initsect_.obj
 0001:0001643d       __RTC_Terminate            1001743d f   LIBCMT:_initsect_.obj
 0001:00016472       @_guard_check_icall@4      10017472 f i LIBCMT:checkcfg.obj
 0001:00016480       __SEH_prolog4              10017480 f   LIBCMT:_sehprolg4_.obj
 0001:000164c6       __SEH_epilog4              100174c6 f   LIBCMT:_sehprolg4_.obj
 0001:000164f1       __get_startup_argv_mode    100174f1 f   LIBCMT:argv_mode.obj
 0001:000164f5       ___scrt_is_ucrt_dll_in_use 100174f5 f   LIBCMT:ucrt_detection.obj
 0001:00016504       @_guard_check_icall_nop@4  10017504 f i LIBCMT:guard_support.obj
 0001:00016505       __guard_icall_checks_enforced 10017505 f i LIBCMT:guard_support.obj
 0001:0001651c       _GetModuleHandleA@4        1001751c f   kernel32:KERNEL32.dll
 0001:00016522       _GetProcAddress@8          10017522 f   kernel32:KERNEL32.dll
 0001:00016528       _UnhandledExceptionFilter@4 10017528 f   kernel32:KERNEL32.dll
 0001:0001652e       _SetUnhandledExceptionFilter@4 1001752e f   kernel32:KERNEL32.dll
 0001:00016534       _GetCurrentProcess@0       10017534 f   kernel32:KERNEL32.dll
 0001:0001653a       _TerminateProcess@8        1001753a f   kernel32:KERNEL32.dll
 0001:00016540       _IsProcessorFeaturePresent@4 10017540 f   kernel32:KERNEL32.dll
 0001:00016546       _QueryPerformanceCounter@4 10017546 f   kernel32:KERNEL32.dll
 0001:0001654c       _GetCurrentProcessId@0     1001754c f   kernel32:KERNEL32.dll
 0001:00016552       _GetCurrentThreadId@0      10017552 f   kernel32:KERNEL32.dll
 0001:00016558       _GetSystemTimeAsFileTime@4 10017558 f   kernel32:KERNEL32.dll
 0001:0001655e       _InitializeSListHead@4     1001755e f   kernel32:KERNEL32.dll
 0001:00016564       _IsDebuggerPresent@0       10017564 f   kernel32:KERNEL32.dll
 0001:0001656a       _GetStartupInfoW@4         1001756a f   kernel32:KERNEL32.dll
 0001:00016570       _GetModuleHandleW@4        10017570 f   kernel32:KERNEL32.dll
 0001:00016580       _memcpy                    10017580 f   libvcruntime:memcpy.obj
 0001:00016c60       _memset                    10017c60 f   libvcruntime:memset.obj
 0001:00016e10       _memmove                   10017e10 f   libvcruntime:memmove.obj
 0001:000174f0       _strchr                    100184f0 f   libvcruntime:strchr.obj
 0001:0001755e       ___from_strstr_to_strchr   1001855e     libvcruntime:strchr.obj
 0001:000176b0       __except_handler4          100186b0 f   libvcruntime:_chandler4_.obj
 0001:0001786f       ___vcrt_initialize         1001886f f   libvcruntime:initialization.obj
 0001:000178a2       ___vcrt_thread_attach      100188a2 f   libvcruntime:initialization.obj
 0001:000178af       ___vcrt_thread_detach      100188af f   libvcruntime:initialization.obj
 0001:000178bc       ___vcrt_uninitialize       100188bc f   libvcruntime:initialization.obj
 0001:000178e2       ___vcrt_uninitialize_critical 100188e2 f   libvcruntime:initialization.obj
 0001:000178fd       ??$?RD@__crt_internal_free_policy@@QBEXQBD@Z 100188fd f i libvcruntime:std_type_info.obj
 0001:00017911       ??$?RX@__crt_internal_free_policy@@QBEXQBX@Z 10018911 f i libvcruntime:std_type_info.obj
 0001:00017925       ??$__crt_interlocked_compare_exchange_pointer@$$CBD$$T$$T@@YAPBDPDSBD$$T1@Z 10018925 f i libvcruntime:std_type_info.obj
 0001:0001793b       ??$__crt_interlocked_compare_exchange_pointer@$$CBDPAD$$T@@YAPBDPDSBDQAD$$T@Z 1001893b f i libvcruntime:std_type_info.obj
 0001:00017951       ??$__crt_interlocked_read_pointer@$$CBD@@YAPBDPDSBD@Z 10018951 f i libvcruntime:std_type_info.obj
 0001:00017965       ??0?$__crt_unique_heap_ptr@DU__crt_internal_free_policy@@@@QAE@QAD@Z 10018965 f i libvcruntime:std_type_info.obj
 0001:00017976       ??0?$__crt_unique_heap_ptr@XU__crt_internal_free_policy@@@@QAE@QAX@Z 10018976 f i libvcruntime:std_type_info.obj
 0001:00017987       ??1?$__crt_unique_heap_ptr@DU__crt_internal_free_policy@@@@QAE@XZ 10018987 f i libvcruntime:std_type_info.obj
 0001:0001799b       ??1?$__crt_unique_heap_ptr@XU__crt_internal_free_policy@@@@QAE@XZ 1001899b f i libvcruntime:std_type_info.obj
 0001:000179bb       ??B?$__crt_unique_heap_ptr@DU__crt_internal_free_policy@@@@QBE_NXZ 100189bb f i libvcruntime:std_type_info.obj
 0001:000179c2       ??B?$__crt_unique_heap_ptr@XU__crt_internal_free_policy@@@@QBE_NXZ 100189c2 f i libvcruntime:std_type_info.obj
 0001:000179f1       ?detach@?$__crt_unique_heap_ptr@XU__crt_internal_free_policy@@@@QAEPAXXZ 100189f1 f i libvcruntime:std_type_info.obj
 0001:000179f7       ?get@?$__crt_unique_heap_ptr@DU__crt_internal_free_policy@@@@QBEPADXZ 100189f7 f i libvcruntime:std_type_info.obj
 0001:000179fa       ?get@?$__crt_unique_heap_ptr@XU__crt_internal_free_policy@@@@QBEPAXXZ 100189fa f i libvcruntime:std_type_info.obj
 0001:000179fd       ?is_valid@?$__crt_unique_heap_ptr@DU__crt_internal_free_policy@@@@QBE_NXZ 100189fd f i libvcruntime:std_type_info.obj
 0001:00017a04       ?is_valid@?$__crt_unique_heap_ptr@XU__crt_internal_free_policy@@@@QBE_NXZ 10018a04 f i libvcruntime:std_type_info.obj
 0001:00017a0b       ?release@?$__crt_unique_heap_ptr@DU__crt_internal_free_policy@@@@QAEXXZ 10018a0b f i libvcruntime:std_type_info.obj
 0001:00017a1f       ?release@?$__crt_unique_heap_ptr@XU__crt_internal_free_policy@@@@QAEXXZ 10018a1f f i libvcruntime:std_type_info.obj
 0001:00017a33       ___std_type_info_compare   10018a33 f   libvcruntime:std_type_info.obj
 0001:00017a7e       ___std_type_info_destroy_list 10018a7e f   libvcruntime:std_type_info.obj
 0001:00017aa9       ___std_type_info_hash      10018aa9 f   libvcruntime:std_type_info.obj
 0001:00017ad8       ___std_type_info_name      10018ad8 f   libvcruntime:std_type_info.obj
 0001:00017be0       __local_unwind4            10018be0 f   libvcruntime:_exsup4_.obj
 0001:00017cb6       __seh_longjmp_unwind4@4    10018cb6 f   libvcruntime:_exsup4_.obj
 0001:00017cde       @_EH4_CallFilterFunc@8     10018cde f   libvcruntime:_exsup4_.obj
 0001:00017cf5       @_EH4_TransferToHandler@8  10018cf5 f   libvcruntime:_exsup4_.obj
 0001:00017d0e       @_EH4_GlobalUnwind2@8      10018d0e f   libvcruntime:_exsup4_.obj
 0001:00017d27       @_EH4_LocalUnwind@16       10018d27 f   libvcruntime:_exsup4_.obj
 0001:00017d95       ___except_validate_context_record 10018d95 f   libvcruntime:jbcxrval.obj
 0001:00017d96       ___except_validate_jump_buffer 10018d96 f   libvcruntime:jbcxrval.obj
 0001:00017d97       ??$?RU__vcrt_ptd@@@__crt_internal_free_policy@@QBEXQBU__vcrt_ptd@@@Z 10018d97 f i libvcruntime:per_thread_data.obj
 0001:00017dab       ??0?$__crt_unique_heap_ptr@U__vcrt_ptd@@U__crt_internal_free_policy@@@@QAE@QAU__vcrt_ptd@@@Z 10018dab f i libvcruntime:per_thread_data.obj
 0001:00017dce       ??1?$__crt_unique_heap_ptr@U__vcrt_ptd@@U__crt_internal_free_policy@@@@QAE@XZ 10018dce f i libvcruntime:per_thread_data.obj
 0001:00017ded       ??B?$__crt_unique_heap_ptr@U__vcrt_ptd@@U__crt_internal_free_policy@@@@QBE_NXZ 10018ded f i libvcruntime:per_thread_data.obj
 0001:00017df4       ?detach@?$__crt_unique_heap_ptr@U__vcrt_ptd@@U__crt_internal_free_policy@@@@QAEPAU__vcrt_ptd@@XZ 10018df4 f i libvcruntime:per_thread_data.obj
 0001:00017dfa       ?get@?$__crt_unique_heap_ptr@U__vcrt_ptd@@U__crt_internal_free_policy@@@@QBEPAU__vcrt_ptd@@XZ 10018dfa f i libvcruntime:per_thread_data.obj
 0001:00017dfd       ?is_valid@?$__crt_unique_heap_ptr@U__vcrt_ptd@@U__crt_internal_free_policy@@@@QBE_NXZ 10018dfd f i libvcruntime:per_thread_data.obj
 0001:00017e04       ?release@?$__crt_unique_heap_ptr@U__vcrt_ptd@@U__crt_internal_free_policy@@@@QAEXXZ 10018e04 f i libvcruntime:per_thread_data.obj
 0001:00017e38       ___vcrt_freefls@4          10018e38 f   libvcruntime:per_thread_data.obj
 0001:00017e5b       ___vcrt_freeptd            10018e5b f   libvcruntime:per_thread_data.obj
 0001:00017e9e       ___vcrt_getptd             10018e9e f   libvcruntime:per_thread_data.obj
 0001:00017eaf       ___vcrt_getptd_noexit      10018eaf f   libvcruntime:per_thread_data.obj
 0001:00017f65       ___vcrt_initialize_ptd     10018f65 f   libvcruntime:per_thread_data.obj
 0001:00017fa4       ___vcrt_uninitialize_ptd   10018fa4 f   libvcruntime:per_thread_data.obj
 0001:00017fc5       ___vcrt_initialize_locks   10018fc5 f   libvcruntime:locks.obj
 0001:00018010       ___vcrt_lock               10019010 f   libvcruntime:locks.obj
 0001:0001802a       ___vcrt_uninitialize_locks 1001902a f   libvcruntime:locks.obj
 0001:00018064       ___vcrt_unlock             10019064 f   libvcruntime:locks.obj
 0001:0001807e       ??$?BX@__crt_fast_encoded_nullptr_t@@QBEPAXXZ 1001907e f i libvcruntime:winapi_downlevel.obj
 0001:0001809c       ??$__crt_fast_decode_pointer@PAX@@YAPAXQAX@Z 1001909c f i libvcruntime:winapi_downlevel.obj
 0001:000180b5       ??$__crt_fast_encode_pointer@PAX@@YAPAXQAX@Z 100190b5 f i libvcruntime:winapi_downlevel.obj
 0001:000180d9       ??$__crt_interlocked_compare_exchange_pointer@UHINSTANCE__@@$$T$$T@@YAPAUHINSTANCE__@@PDSAU0@$$T1@Z 100190d9 f i libvcruntime:winapi_downlevel.obj
 0001:000180ef       ??$__crt_interlocked_compare_exchange_pointer@X$$T$$T@@YAPAXPDSAX$$T1@Z 100190ef f i libvcruntime:winapi_downlevel.obj
 0001:00018105       ??$__crt_interlocked_exchange_pointer@UHINSTANCE__@@PAU1@@@YAPAUHINSTANCE__@@PDSAU0@QAU0@@Z 10019105 f i libvcruntime:winapi_downlevel.obj
 0001:00018115       ??$__crt_interlocked_exchange_pointer@UHINSTANCE__@@PAX@@YAPAUHINSTANCE__@@PDSAU0@QAX@Z 10019115 f i libvcruntime:winapi_downlevel.obj
 0001:00018125       ??$__crt_interlocked_exchange_pointer@XPAX@@YAPAXPDSAXQAX@Z 10019125 f i libvcruntime:winapi_downlevel.obj
 0001:00018135       ??$__crt_interlocked_read_pointer@UHINSTANCE__@@@@YAPAUHINSTANCE__@@PDSAU0@@Z 10019135 f i libvcruntime:winapi_downlevel.obj
 0001:00018149       ??$__crt_interlocked_read_pointer@X@@YAPAXPDSAX@Z 10019149 f i libvcruntime:winapi_downlevel.obj
 0001:0001815d       ?__crt_fast_encode_pointer@@YA?AU__crt_fast_encoded_nullptr_t@@$$T@Z 1001915d f i libvcruntime:winapi_downlevel.obj
 0001:000184a1       ___vcrt_EventRegister      100194a1 f   libvcruntime:winapi_downlevel.obj
 0001:000184f1       ___vcrt_EventSetInformation 100194f1 f   libvcruntime:winapi_downlevel.obj
 0001:00018544       ___vcrt_EventUnregister    10019544 f   libvcruntime:winapi_downlevel.obj
 0001:0001858c       ___vcrt_EventWriteTransfer 1001958c f   libvcruntime:winapi_downlevel.obj
 0001:000185e7       ___vcrt_FlsAlloc           100195e7 f   libvcruntime:winapi_downlevel.obj
 0001:0001862f       ___vcrt_FlsFree            1001962f f   libvcruntime:winapi_downlevel.obj
 0001:00018677       ___vcrt_FlsGetValue        10019677 f   libvcruntime:winapi_downlevel.obj
 0001:000186bf       ___vcrt_FlsSetValue        100196bf f   libvcruntime:winapi_downlevel.obj
 0001:0001870b       ___vcrt_InitializeCriticalSectionEx 1001970b f   libvcruntime:winapi_downlevel.obj
 0001:00018762       ___vcrt_initialize_winapi_thunks 10019762 f   libvcruntime:winapi_downlevel.obj
 0001:000187aa       ___vcrt_uninitialize_winapi_thunks 100197aa f   libvcruntime:winapi_downlevel.obj
 0001:000187e8       ??$?B$$A6AXXZ@__crt_fast_encoded_nullptr_t@@QBEP6AXXZXZ 100197e8 f i libvcruntime:purevirt_data.obj
 0001:00018806       ??$__crt_fast_encode_pointer@P6AXXZ@@YAP6AXXZQ6AXXZ@Z 10019806 f i libvcruntime:purevirt_data.obj
 0001:0001882a       ___vcrt_initialize_pure_virtual_call_handler 1001982a f   libvcruntime:purevirt_data.obj
 0001:0001884e       ??$__vcrt_va_start_verify_argument_type@QBD@@YAXXZ 1001984e f i libvcruntime:undname.obj
 0001:0001884f       ??0Block@_HeapManager@@QAE@XZ 1001984f f i libvcruntime:undname.obj
 0001:00018855       ??0DName@@QAE@AAPBDD@Z     10019855 f   libvcruntime:undname.obj
 0001:0001893c       ??0DName@@QAE@ABV0@@Z      1001993c f i libvcruntime:undname.obj
 0001:00018957       ??0DName@@QAE@D@Z          10019957 f   libvcruntime:undname.obj
 0001:0001898e       ??0DName@@QAE@PAV0@@Z      1001998e f   libvcruntime:undname.obj
 0001:000189ee       ??0DName@@QAE@PBD@Z        100199ee f   libvcruntime:undname.obj
 0001:00018a36       ??0DName@@QAE@W4DNameStatus@@@Z 10019a36 f   libvcruntime:undname.obj
 0001:00018a89       ??0DName@@QAE@XZ           10019a89 f i libvcruntime:undname.obj
 0001:00018a9e       ??0DName@@QAE@_J@Z         10019a9e f   libvcruntime:undname.obj
 0001:00018b58       ??0DName@@QAE@_K@Z         10019b58 f   libvcruntime:undname.obj
 0001:00018be2       ??0DNameNode@@IAE@XZ       10019be2 f   libvcruntime:undname.obj
 0001:00018bed       ??0DNameStatusNode@@AAE@W4DNameStatus@@@Z 10019bed f   libvcruntime:undname.obj
 0001:00018c18       ??0Replicator@@QAE@XZ      10019c18 f i libvcruntime:undname.obj
 0001:00018c1e       ??0UnDecorator@@QAE@PADPBDHP6APADJ@ZK@Z 10019c1e f i libvcruntime:undname.obj
 0001:00018ca1       ??0charNode@@QAE@D@Z       10019ca1 f   libvcruntime:undname.obj
 0001:00018cbb       ??0pDNameNode@@QAE@PAVDName@@@Z 10019cbb f   libvcruntime:undname.obj
 0001:00018ced       ??0pairNode@@QAE@PAVDNameNode@@0@Z 10019ced f   libvcruntime:undname.obj
 0001:00018d13       ??0pcharNode@@QAE@PBDH@Z   10019d13 f   libvcruntime:undname.obj
 0001:00018d82       ??2@YAPAXIAAV_HeapManager@@H@Z 10019d82 f i libvcruntime:undname.obj
 0001:00018d9c       ??4DName@@QAEAAV0@ABV0@@Z  10019d9c f   libvcruntime:undname.obj
 0001:00018db7       ??4DName@@QAEAAV0@D@Z      10019db7 f i libvcruntime:undname.obj
 0001:00018dee       ??4DName@@QAEAAV0@PAV0@@Z  10019dee f   libvcruntime:undname.obj
 0001:00018e49       ??4DName@@QAEAAV0@PBD@Z    10019e49 f   libvcruntime:undname.obj
 0001:00018e87       ??4DName@@QAEAAV0@W4DNameStatus@@@Z 10019e87 f   libvcruntime:undname.obj
 0001:00018ec9       ??AReplicator@@QBE?AVDName@@H@Z 10019ec9 f   libvcruntime:undname.obj
 0001:00018f14       ??BUnDecorator@@QAEPADXZ   10019f14 f i libvcruntime:undname.obj
 0001:000190eb       ??H@YA?AVDName@@DABV0@@Z   1001a0eb f i libvcruntime:undname.obj
 0001:00019118       ??H@YA?AVDName@@PBDABV0@@Z 1001a118 f i libvcruntime:undname.obj
 0001:00019145       ??H@YA?AVDName@@W4DNameStatus@@ABV0@@Z 1001a145 f i libvcruntime:undname.obj
 0001:00019172       ??HDName@@QBE?AV0@ABV0@@Z  1001a172 f   libvcruntime:undname.obj
 0001:0001919c       ??HDName@@QBE?AV0@D@Z      1001a19c f   libvcruntime:undname.obj
 0001:000191c6       ??HDName@@QBE?AV0@PAV0@@Z  1001a1c6 f   libvcruntime:undname.obj
 0001:000191f0       ??HDName@@QBE?AV0@PBD@Z    1001a1f0 f   libvcruntime:undname.obj
 0001:0001921a       ??HDName@@QBE?AV0@W4DNameStatus@@@Z 1001a21a f   libvcruntime:undname.obj
 0001:00019244       ??YDName@@QAEAAV0@ABV0@@Z  1001a244 f   libvcruntime:undname.obj
 0001:00019297       ??YDName@@QAEAAV0@D@Z      1001a297 f   libvcruntime:undname.obj
 0001:000192fb       ??YDName@@QAEAAV0@PAV0@@Z  1001a2fb f   libvcruntime:undname.obj
 0001:00019379       ??YDName@@QAEAAV0@PBD@Z    1001a379 f   libvcruntime:undname.obj
 0001:000193f2       ??YDName@@QAEAAV0@W4DNameStatus@@@Z 1001a3f2 f   libvcruntime:undname.obj
 0001:00019442       ??YReplicator@@QAEAAV0@ABVDName@@@Z 1001a442 f   libvcruntime:undname.obj
 0001:0001949e       ??_5DName@@QAEAAV0@ABV0@@Z 1001a49e f   libvcruntime:undname.obj
 0001:000194c1       ?Constructor@_HeapManager@@QAEXP6APAXI@ZP6AXPAX@Z@Z 1001a4c1 f i libvcruntime:undname.obj
 0001:000194e5       ?Destructor@_HeapManager@@QAEXXZ 1001a4e5 f i libvcruntime:undname.obj
 0001:0001952c       ?UScore@UnDecorator@@SAPBDW4Tokens@@@Z 1001a52c f   libvcruntime:undname.obj
 0001:00019550       ?append@DName@@AAEXPAVDNameNode@@@Z 1001a550 f   libvcruntime:undname.obj
 0001:000195a7       ?composeDeclaration@UnDecorator@@CA?AVDName@@ABV2@@Z 1001a5a7 f i libvcruntime:undname.obj
 0001:0001a5e2       ?doAccessSpecifiers@UnDecorator@@SAHXZ 1001b5e2 f i libvcruntime:undname.obj
 0001:0001a5f3       ?doAllocationLanguage@UnDecorator@@SAHXZ 1001b5f3 f i libvcruntime:undname.obj
 0001:0001a604       ?doAllocationModel@UnDecorator@@SAHXZ 1001b604 f i libvcruntime:undname.obj
 0001:0001a615       ?doEcsu@UnDecorator@@SAHXZ 1001b615 f i libvcruntime:undname.obj
 0001:0001a626       ?doEllipsis@UnDecorator@@SAHXZ 1001b626 f i libvcruntime:undname.obj
 0001:0001a637       ?doFunctionReturns@UnDecorator@@SAHXZ 1001b637 f i libvcruntime:undname.obj
 0001:0001a648       ?doMSKeywords@UnDecorator@@SAHXZ 1001b648 f i libvcruntime:undname.obj
 0001:0001a658       ?doMemberTypes@UnDecorator@@SAHXZ 1001b658 f i libvcruntime:undname.obj
 0001:0001a669       ?doNameOnly@UnDecorator@@SAHXZ 1001b669 f i libvcruntime:undname.obj
 0001:0001a676       ?doNoIdentCharCheck@UnDecorator@@SAHXZ 1001b676 f i libvcruntime:undname.obj
 0001:0001a683       ?doPchar@DName@@AAEXPBDH@Z 1001b683 f   libvcruntime:undname.obj
 0001:0001a72f       ?doPtr64@UnDecorator@@SAHXZ 1001b72f f i libvcruntime:undname.obj
 0001:0001a740       ?doRestrictionSpec@UnDecorator@@SAHXZ 1001b740 f i libvcruntime:undname.obj
 0001:0001a751       ?doThisTypes@UnDecorator@@SAHXZ 1001b751 f i libvcruntime:undname.obj
 0001:0001a767       ?doThrowTypes@UnDecorator@@SAHXZ 1001b767 f i libvcruntime:undname.obj
 0001:0001a778       ?doTypeOnly@UnDecorator@@SAHXZ 1001b778 f i libvcruntime:undname.obj
 0001:0001a785       ?doUnderScore@UnDecorator@@SAHXZ 1001b785 f i libvcruntime:undname.obj
 0001:0001a792       ?getArgumentList@UnDecorator@@CA?AVDName@@XZ 1001b792 f   libvcruntime:undname.obj
 0001:0001a8e1       ?getArgumentTypes@UnDecorator@@CA?AVDName@@XZ 1001b8e1 f   libvcruntime:undname.obj
 0001:0001a9f9       ?getArrayType@UnDecorator@@CA?AVDName@@ABV2@@Z 1001b9f9 f i libvcruntime:undname.obj
 0001:0001ac7b       ?getBasedType@UnDecorator@@CA?AVDName@@XZ 1001bc7b f   libvcruntime:undname.obj
 0001:0001ad3a       ?getBasicDataType@UnDecorator@@CA?AVDName@@ABV2@@Z 1001bd3a f   libvcruntime:undname.obj
 0001:0001b224       ?getCallIndex@UnDecorator@@CA?AVDName@@XZ 1001c224 f i libvcruntime:undname.obj
 0001:0001b23d       ?getCallingConvention@UnDecorator@@CA?AVDName@@XZ 1001c23d f   libvcruntime:undname.obj
 0001:0001b32b       ?getDataIndirectType@UnDecorator@@CA?AVDName@@ABV2@PBD0H@Z 1001c32b f   libvcruntime:undname.obj
 0001:0001bad6       ?getDataIndirectType@UnDecorator@@CA?AVDName@@XZ 1001cad6 f i libvcruntime:undname.obj
 0001:0001bb1d       ?getDataType@UnDecorator@@CA?AVDName@@PAV2@@Z 1001cb1d f   libvcruntime:undname.obj
 0001:0001bc23       ?getDecoratedName@UnDecorator@@CA?AVDName@@XZ 1001cc23 f   libvcruntime:undname.obj
 0001:0001bf02       ?getDimension@UnDecorator@@CA?AVDName@@_N@Z 1001cf02 f   libvcruntime:undname.obj
 0001:0001c086       ?getDispatchTarget@UnDecorator@@CA?AVDName@@XZ 1001d086 f   libvcruntime:undname.obj
 0001:0001c0f7       ?getDisplacement@UnDecorator@@CA?AVDName@@XZ 1001d0f7 f i libvcruntime:undname.obj
 0001:0001c110       ?getECSUDataType@UnDecorator@@CA?AVDName@@XZ 1001d110 f   libvcruntime:undname.obj
 0001:0001c274       ?getECSUName@UnDecorator@@CA?AVDName@@XZ 1001d274 f i libvcruntime:undname.obj
 0001:0001c289       ?getEnumType@UnDecorator@@CA?AVDName@@XZ 1001d289 f i libvcruntime:undname.obj
 0001:0001c3b0       ?getExtendedDataIndirectType@UnDecorator@@CA?AVDName@@AAPBDAA_NH@Z 1001d3b0 f   libvcruntime:undname.obj
 0001:0001c5c3       ?getExternalDataType@UnDecorator@@CA?AVDName@@ABV2@@Z 1001d5c3 f i libvcruntime:undname.obj
 0001:0001c65a       ?getFunctionIndirectType@UnDecorator@@CA?AVDName@@ABV2@@Z 1001d65a f   libvcruntime:undname.obj
 0001:0001cb65       ?getGuardNumber@UnDecorator@@CA?AVDName@@XZ 1001db65 f i libvcruntime:undname.obj
 0001:0001cb7e       ?getLastChar@DName@@QBEDXZ 1001db7e f i libvcruntime:undname.obj
 0001:0001cba4       ?getLastChar@DNameStatusNode@@UBEDXZ 1001dba4 f i libvcruntime:undname.obj
 0001:0001cbb3       ?getLastChar@charNode@@UBEDXZ 1001dbb3 f i libvcruntime:undname.obj
 0001:0001cbb7       ?getLastChar@pDNameNode@@UBEDXZ 1001dbb7 f i libvcruntime:undname.obj
 0001:0001cbc8       ?getLastChar@pairNode@@UBEDXZ 1001dbc8 f i libvcruntime:undname.obj
 0001:0001cc07       ?getLastChar@pcharNode@@UBEDXZ 1001dc07 f i libvcruntime:undname.obj
 0001:0001cc1d       ?getLexicalFrame@UnDecorator@@CA?AVDName@@XZ 1001dc1d f i libvcruntime:undname.obj
 0001:0001cc69       ?getMemory@_HeapManager@@QAEPAXIH@Z 1001dc69 f   libvcruntime:undname.obj
 0001:0001cd1a       ?getNumberOfDimensions@UnDecorator@@CAHXZ 1001dd1a f   libvcruntime:undname.obj
 0001:0001cd93       ?getOperatorName@UnDecorator@@CA?AVDName@@_NPA_N@Z 1001dd93 f i libvcruntime:undname.obj
 0001:0001d543       ?getPointerType@UnDecorator@@CA?AVDName@@ABV2@0@Z 1001e543 f i libvcruntime:undname.obj
 0001:0001d568       ?getPointerTypeArray@UnDecorator@@CA?AVDName@@ABV2@0@Z 1001e568 f i libvcruntime:undname.obj
 0001:0001d58d       ?getPrimaryDataType@UnDecorator@@CA?AVDName@@ABV2@@Z 1001e58d f   libvcruntime:undname.obj
 0001:0001d7fe       ?getPtrRefDataType@UnDecorator@@CA?AVDName@@ABV2@H@Z 1001e7fe f   libvcruntime:undname.obj
 0001:0001d940       ?getPtrRefType@UnDecorator@@CA?AVDName@@ABV2@0PBD@Z 1001e940 f   libvcruntime:undname.obj
 0001:0001da7b       ?getReferenceType@UnDecorator@@CA?AVDName@@ABV2@0PBD@Z 1001ea7b f i libvcruntime:undname.obj
 0001:0001da9e       ?getRestrictionSpec@UnDecorator@@CA?AVDName@@XZ 1001ea9e f   libvcruntime:undname.obj
 0001:0001dbcc       ?getReturnType@UnDecorator@@CA?AVDName@@PAV2@@Z 1001ebcc f   libvcruntime:undname.obj
 0001:0001dc06       ?getScope@UnDecorator@@CA?AVDName@@XZ 1001ec06 f   libvcruntime:undname.obj
 0001:0001e0db       ?getScopedName@UnDecorator@@CA?AVDName@@XZ 1001f0db f   libvcruntime:undname.obj
 0001:0001e214       ?getSignedDimension@UnDecorator@@CA?AVDName@@XZ 1001f214 f   libvcruntime:undname.obj
 0001:0001e27b       ?getStorageConvention@UnDecorator@@CA?AVDName@@XZ 1001f27b f i libvcruntime:undname.obj
 0001:0001e290       ?getString@DName@@QBEPADPAD0@Z 1001f290 f i libvcruntime:undname.obj
 0001:0001e2c7       ?getString@DName@@QBEPADPADH@Z 1001f2c7 f i libvcruntime:undname.obj
 0001:0001e332       ?getString@DNameStatusNode@@UBEPADPAD0@Z 1001f332 f i libvcruntime:undname.obj
 0001:0001e362       ?getString@charNode@@UBEPADPAD0@Z 1001f362 f i libvcruntime:undname.obj
 0001:0001e37c       ?getString@pDNameNode@@UBEPADPAD0@Z 1001f37c f i libvcruntime:undname.obj
 0001:0001e398       ?getString@pairNode@@UBEPADPAD0@Z 1001f398 f i libvcruntime:undname.obj
 0001:0001e3ed       ?getString@pcharNode@@UBEPADPAD0@Z 1001f3ed f i libvcruntime:undname.obj
 0001:0001e40e       ?getStringEncoding@UnDecorator@@CA?AVDName@@PADH@Z 1001f40e f   libvcruntime:undname.obj
 0001:0001e4d9       ?getStringHelper@@YAPADPAD00H@Z 1001f4d9 f i libvcruntime:undname.obj
 0001:0001e51d       ?getSymbolName@UnDecorator@@CA?AVDName@@XZ 1001f51d f i libvcruntime:undname.obj
 0001:0001e577       ?getTemplateArgumentList@UnDecorator@@CA?AVDName@@XZ 1001f577 f   libvcruntime:undname.obj
 0001:0001e8c4       ?getTemplateConstant@UnDecorator@@CA?AVDName@@XZ 1001f8c4 f   libvcruntime:undname.obj
 0001:0001ecd9       ?getTemplateName@UnDecorator@@CA?AVDName@@_N@Z 1001fcd9 f   libvcruntime:undname.obj
 0001:0001ee84       ?getThisType@UnDecorator@@CA?AVDName@@XZ 1001fe84 f i libvcruntime:undname.obj
 0001:0001eecc       ?getThrowTypes@UnDecorator@@CA?AVDName@@XZ 1001fecc f   libvcruntime:undname.obj
 0001:0001ef78       ?getTypeEncoding@UnDecorator@@CAHXZ 1001ff78 f i libvcruntime:undname.obj
 0001:0001f374       ?getVCallThunkType@UnDecorator@@CA?AVDName@@XZ 10020374 f i libvcruntime:undname.obj
 0001:0001f3bd       ?getVbTableType@UnDecorator@@CA?AVDName@@ABV2@@Z 100203bd f i libvcruntime:undname.obj
 0001:0001f3d7       ?getVdispMapType@UnDecorator@@CA?AVDName@@ABV2@@Z 100203d7 f i libvcruntime:undname.obj
 0001:0001f442       ?getVfTableType@UnDecorator@@CA?AVDName@@ABV2@@Z 10020442 f i libvcruntime:undname.obj
 0001:0001f600       ?getZName@UnDecorator@@CA?AVDName@@_N0@Z 10020600 f   libvcruntime:undname.obj
 0001:0001f8d0       ?haveTemplateParameters@UnDecorator@@SAHXZ 100208d0 f i libvcruntime:undname.obj
 0001:0001f8dd       ?isArray@DName@@QBEHXZ     100208dd f i libvcruntime:undname.obj
 0001:0001f8e9       ?isComArray@DName@@QBEHXZ  100208e9 f i libvcruntime:undname.obj
 0001:0001f8f5       ?isEmpty@DName@@QBEHXZ     100208f5 f i libvcruntime:undname.obj
 0001:0001f8ff       ?isFull@Replicator@@QBEHXZ 100208ff f i libvcruntime:undname.obj
 0001:0001f90a       ?isNoTE@DName@@QBEHXZ      1002090a f i libvcruntime:undname.obj
 0001:0001f916       ?isPinPtr@DName@@QBEHXZ    10020916 f i libvcruntime:undname.obj
 0001:0001f922       ?isPtrRef@DName@@QBEHXZ    10020922 f i libvcruntime:undname.obj
 0001:0001f92e       ?isUDC@DName@@QBEHXZ       1002092e f i libvcruntime:undname.obj
 0001:0001f943       ?isUDTThunk@DName@@QBEHXZ  10020943 f i libvcruntime:undname.obj
 0001:0001f958       ?isVCallThunk@DName@@QBEHXZ 10020958 f i libvcruntime:undname.obj
 0001:0001f964       ?isValid@DName@@QBEHXZ     10020964 f i libvcruntime:undname.obj
 0001:0001f970       ?length@DName@@QBEHXZ      10020970 f i libvcruntime:undname.obj
 0001:0001f995       ?length@DNameStatusNode@@UBEHXZ 10020995 f i libvcruntime:undname.obj
 0001:0001f999       ?length@charNode@@UBEHXZ   10020999 f i libvcruntime:undname.obj
 0001:0001f99d       ?length@pDNameNode@@UBEHXZ 1002099d f i libvcruntime:undname.obj
 0001:0001f9ae       ?length@pairNode@@UBEHXZ   100209ae f i libvcruntime:undname.obj
 0001:0001fa0a       ?length@pcharNode@@UBEHXZ  10020a0a f i libvcruntime:undname.obj
 0001:0001fa0e       ?make@DNameStatusNode@@SAPAV1@W4DNameStatus@@@Z 10020a0e f i libvcruntime:undname.obj
 0001:0001fab5       ?setIsArray@DName@@QAEXXZ  10020ab5 f i libvcruntime:undname.obj
 0001:0001fabf       ?setIsComArray@DName@@QAEXXZ 10020abf f i libvcruntime:undname.obj
 0001:0001fac9       ?setIsNoTE@DName@@QAEXXZ   10020ac9 f i libvcruntime:undname.obj
 0001:0001fad3       ?setIsPinPtr@DName@@QAEXXZ 10020ad3 f i libvcruntime:undname.obj
 0001:0001fadd       ?setIsUDC@DName@@QAEXXZ    10020add f i libvcruntime:undname.obj
 0001:0001faed       ?setIsVCallThunk@DName@@QAEXXZ 10020aed f i libvcruntime:undname.obj
 0001:0001faf7       ?setPtrRef@DName@@QAEAAV1@XZ 10020af7 f i libvcruntime:undname.obj
 0001:0001fb03       ?status@DName@@QBE?AW4DNameStatus@@XZ 10020b03 f i libvcruntime:undname.obj
 0001:0001fb88       ___unDName                 10020b88 f   libvcruntime:undname.obj
 0001:0001fc42       ___unDNameEx               10020c42 f   libvcruntime:undname.obj
 0001:0001fcfc       __vsprintf_s_l             10020cfc f i libvcruntime:undname.obj
 0001:0001fd34       _sprintf_s                 10020d34 f i libvcruntime:undname.obj
 0001:0001fd60       __global_unwind2           10020d60 f   libvcruntime:_exsup_.obj
 0001:0001fdc5       __local_unwind2            10020dc5 f   libvcruntime:_exsup_.obj
 0001:0001fe49       __abnormal_termination     10020e49 f   libvcruntime:_exsup_.obj
 0001:0001fe6c       __NLG_Notify1              10020e6c f   libvcruntime:_exsup_.obj
 0001:0001fe75       __NLG_Notify               10020e75 f   libvcruntime:_exsup_.obj
 0001:0001fe8c       __NLG_Dispatch2            10020e8c     libvcruntime:_exsup_.obj
 0001:0001fe8c       __NLG_Dispatch             10020e8c     libvcruntime:_exsup_.obj
 0001:0001fe94       __NLG_Call                 10020e94 f   libvcruntime:_exsup_.obj
 0001:0001fe96       __NLG_Return2              10020e96     libvcruntime:_exsup_.obj
 0001:0001fee4       ??$__crt_fast_decode_pointer@P6AXXZ@@YAP6AXXZQ6AXXZ@Z 10020ee4 f i libvcruntime:purevirt.obj
 0001:0001fefd       ??$__crt_interlocked_compare_exchange_pointer@$$A6AXXZ$$T$$T@@YAP6AXXZPDS6AXXZ$$T1@Z 10020efd f i libvcruntime:purevirt.obj
 0001:0001ff13       ??$__crt_interlocked_exchange_pointer@$$A6AXXZP6AXXZ@@YAP6AXXZPDS6AXXZQ6AXXZ@Z 10020f13 f i libvcruntime:purevirt.obj
 0001:0001ff23       ??$__crt_interlocked_read_pointer@$$A6AXXZ@@YAP6AXXZPDS6AXXZ@Z 10020f23 f i libvcruntime:purevirt.obj
 0001:0001ff37       __get_purecall_handler     10020f37 f   libvcruntime:purevirt.obj
 0001:0001ff5d       __purecall                 10020f5d f   libvcruntime:purevirt.obj
 0001:0001ff7e       __set_purecall_handler     10020f7e f   libvcruntime:purevirt.obj
 0001:0001ffac       _malloc                    10020fac f   libucrt:malloc.obj
 0001:0001ffb9       ??$?RPAU__crt_stdio_stream_data@@@__crt_internal_free_policy@@QBEXQBQAU__crt_stdio_stream_data@@@Z 10020fb9 f i libucrt:_file.obj
 0001:0001ffcf       ??0?$__crt_unique_heap_ptr@PAU__crt_stdio_stream_data@@U__crt_internal_free_policy@@@@QAE@QAPAU__crt_stdio_stream_data@@@Z 10020fcf f i libucrt:_file.obj
 0001:0001ffe3       ??0__crt_stdio_stream@@QAE@QAU_iobuf@@@Z 10020fe3 f i libucrt:_file.obj
 0001:0001fff7       ??1?$__crt_unique_heap_ptr@PAU__crt_stdio_stream_data@@U__crt_internal_free_policy@@@@QAE@XZ 10020ff7 f i libucrt:_file.obj
 0001:0002000d       ??C__crt_stdio_stream@@QBEPAU__crt_stdio_stream_data@@XZ 1002100d f i libucrt:_file.obj
 0001:00020010       ?detach@?$__crt_unique_heap_ptr@PAU__crt_stdio_stream_data@@U__crt_internal_free_policy@@@@QAEPAPAU__crt_stdio_stream_data@@XZ 10021010 f i libucrt:_file.obj
 0001:00020016       ?release@?$__crt_unique_heap_ptr@PAU__crt_stdio_stream_data@@U__crt_internal_free_policy@@@@QAEXXZ 10021016 f i libucrt:_file.obj
 0001:0002002c       ___acrt_initialize_stdio   1002102c f   libucrt:_file.obj
 0001:00020126       ___acrt_iob_func           10021126 f   libucrt:_file.obj
 0001:0002013a       ___acrt_uninitialize_stdio 1002113a f   libucrt:_file.obj
 0001:00020199       __get_stream_buffer_pointers 10021199 f   libucrt:_file.obj
 0001:000201f0       __lock_file                100211f0 f   libucrt:_file.obj
 0001:00020209       __unlock_file              10021209 f   libucrt:_file.obj
 0001:00020222       ??$?0ABV?$stream_output_adapter@D@__crt_stdio_output@@AB_KABQBDABQAU__crt_locale_pointers@@ABQAD@?$format_validation_base@DV?$stream_output_adapter@D@__crt_stdio_output@@@__crt_stdio_output@@IAE@ABV?$stream_output_adapter@D@1@AB_KABQBDABQAU__crt_locale_pointers@@ABQAD@Z 10021222 f i libucrt:output.obj
 0001:0002024d       ??$?0ABV?$stream_output_adapter@D@__crt_stdio_output@@AB_KABQBDABQAU__crt_locale_pointers@@ABQAD@?$positional_parameter_base@DV?$stream_output_adapter@D@__crt_stdio_output@@@__crt_stdio_output@@IAE@ABV?$stream_output_adapter@D@1@AB_KABQBDABQAU__crt_locale_pointers@@ABQAD@Z 1002124d f i libucrt:output.obj
 0001:000202a7       ??$?0ABV?$stream_output_adapter@D@__crt_stdio_output@@AB_KABQBDABQAU__crt_locale_pointers@@ABQAD@?$standard_base@DV?$stream_output_adapter@D@__crt_stdio_output@@@__crt_stdio_output@@IAE@ABV?$stream_output_adapter@D@1@AB_KABQBDABQAU__crt_locale_pointers@@ABQAD@Z 100212a7 f i libucrt:output.obj
 0001:000202e9       ??$?0ABV?$stream_output_adapter@_W@__crt_stdio_output@@AB_KABQB_WABQAU__crt_locale_pointers@@ABQAD@?$format_validation_base@_WV?$stream_output_adapter@_W@__crt_stdio_output@@@__crt_stdio_output@@IAE@ABV?$stream_output_adapter@_W@1@AB_KABQB_WABQAU__crt_locale_pointers@@ABQAD@Z 100212e9 f i libucrt:output.obj
 0001:00020314       ??$?0ABV?$stream_output_adapter@_W@__crt_stdio_output@@AB_KABQB_WABQAU__crt_locale_pointers@@ABQAD@?$positional_parameter_base@_WV?$stream_output_adapter@_W@__crt_stdio_output@@@__crt_stdio_output@@IAE@ABV?$stream_output_adapter@_W@1@AB_KABQB_WABQAU__crt_locale_pointers@@ABQAD@Z 10021314 f i libucrt:output.obj
 0001:0002036e       ??$?0ABV?$stream_output_adapter@_W@__crt_stdio_output@@AB_KABQB_WABQAU__crt_locale_pointers@@ABQAD@?$standard_base@_WV?$stream_output_adapter@_W@__crt_stdio_output@@@__crt_stdio_output@@IAE@ABV?$stream_output_adapter@_W@1@AB_KABQB_WABQAU__crt_locale_pointers@@ABQAD@Z 1002136e f i libucrt:output.obj
 0001:000203b0       ??$?0ABV?$string_output_adapter@D@__crt_stdio_output@@AB_KABQBDABQAU__crt_locale_pointers@@ABQAD@?$format_validation_base@DV?$string_output_adapter@D@__crt_stdio_output@@@__crt_stdio_output@@IAE@ABV?$string_output_adapter@D@1@AB_KABQBDABQAU__crt_locale_pointers@@ABQAD@Z 100213b0 f i libucrt:output.obj
 0001:000203db       ??$?0ABV?$string_output_adapter@D@__crt_stdio_output@@AB_KABQBDABQAU__crt_locale_pointers@@ABQAD@?$positional_parameter_base@DV?$string_output_adapter@D@__crt_stdio_output@@@__crt_stdio_output@@IAE@ABV?$string_output_adapter@D@1@AB_KABQBDABQAU__crt_locale_pointers@@ABQAD@Z 100213db f i libucrt:output.obj
 0001:00020435       ??$?0ABV?$string_output_adapter@D@__crt_stdio_output@@AB_KABQBDABQAU__crt_locale_pointers@@ABQAD@?$standard_base@DV?$string_output_adapter@D@__crt_stdio_output@@@__crt_stdio_output@@IAE@ABV?$string_output_adapter@D@1@AB_KABQBDABQAU__crt_locale_pointers@@ABQAD@Z 10021435 f i libucrt:output.obj
 0001:00020477       ??$?0ABV?$string_output_adapter@_W@__crt_stdio_output@@AB_KABQB_WABQAU__crt_locale_pointers@@ABQAD@?$format_validation_base@_WV?$string_output_adapter@_W@__crt_stdio_output@@@__crt_stdio_output@@IAE@ABV?$string_output_adapter@_W@1@AB_KABQB_WABQAU__crt_locale_pointers@@ABQAD@Z 10021477 f i libucrt:output.obj
 0001:000204a2       ??$?0ABV?$string_output_adapter@_W@__crt_stdio_output@@AB_KABQB_WABQAU__crt_locale_pointers@@ABQAD@?$positional_parameter_base@_WV?$string_output_adapter@_W@__crt_stdio_output@@@__crt_stdio_output@@IAE@ABV?$string_output_adapter@_W@1@AB_KABQB_WABQAU__crt_locale_pointers@@ABQAD@Z 100214a2 f i libucrt:output.obj
 0001:000204fc       ??$?0ABV?$string_output_adapter@_W@__crt_stdio_output@@AB_KABQB_WABQAU__crt_locale_pointers@@ABQAD@?$standard_base@_WV?$string_output_adapter@_W@__crt_stdio_output@@@__crt_stdio_output@@IAE@ABV?$string_output_adapter@_W@1@AB_KABQB_WABQAU__crt_locale_pointers@@ABQAD@Z 100214fc f i libucrt:output.obj
 0001:0002053e       ??$?RV<lambda_2293f24e3ce1ad6fe22ccfb9dec07671>@@AAV<lambda_2565fc715a641e539f44ad02d6823606>@@V<lambda_d3217f279b832965d9ca670dc2993570>@@@?$__crt_seh_guarded_call@H@@QAEH$$QAV<lambda_2293f24e3ce1ad6fe22ccfb9dec07671>@@AAV<lambda_2565fc715a641e539f44ad02d6823606>@@$$QAV<lambda_d3217f279b832965d9ca670dc2993570>@@@Z 1002153e f i libucrt:output.obj
 0001:000205a3       ??$?RV<lambda_4d4ac866be0fa3c441830420fabdd2cb>@@AAV<lambda_63a10c2dc8dbb9e4dd1890be52af7c93>@@V<lambda_002af9fa0f8fe472b648c51882d4fc32>@@@?$__crt_seh_guarded_call@H@@QAEH$$QAV<lambda_4d4ac866be0fa3c441830420fabdd2cb>@@AAV<lambda_63a10c2dc8dbb9e4dd1890be52af7c93>@@$$QAV<lambda_002af9fa0f8fe472b648c51882d4fc32>@@@Z 100215a3 f i libucrt:output.obj
 0001:00020608       ??$?RV<lambda_5be909dfbae0a631386585770cd7b676>@@AAV<lambda_e516058a9c289d98c8ca9fea99247804>@@V<lambda_afe2e0cdc5e0ecf6f0d6f5e2f8985e38>@@@?$__crt_seh_guarded_call@H@@QAEH$$QAV<lambda_5be909dfbae0a631386585770cd7b676>@@AAV<lambda_e516058a9c289d98c8ca9fea99247804>@@$$QAV<lambda_afe2e0cdc5e0ecf6f0d6f5e2f8985e38>@@@Z 10021608 f i libucrt:output.obj
 0001:0002066d       ??$?RV<lambda_823d65812123d985753d53e2a8c25d20>@@AAV<lambda_0a97c9e57da7be065955385c79108ff2>@@V<lambda_4d2973f3ad2d226f00468307185dca1b>@@@?$__crt_seh_guarded_call@H@@QAEH$$QAV<lambda_823d65812123d985753d53e2a8c25d20>@@AAV<lambda_0a97c9e57da7be065955385c79108ff2>@@$$QAV<lambda_4d2973f3ad2d226f00468307185dca1b>@@@Z 1002166d f i libucrt:output.obj
 0001:000206d2       ??$?RV<lambda_ab9923ffb5d694ec0d78876dd103e44f>@@AAV<lambda_481dd5778c961fbcd3b60b650e9b9dc4>@@V<lambda_7923d86c9e3f319b415918ec4b39749c>@@@?$__crt_seh_guarded_call@H@@QAEH$$QAV<lambda_ab9923ffb5d694ec0d78876dd103e44f>@@AAV<lambda_481dd5778c961fbcd3b60b650e9b9dc4>@@$$QAV<lambda_7923d86c9e3f319b415918ec4b39749c>@@@Z 100216d2 f i libucrt:output.obj
 0001:00020737       ??$?RV<lambda_db08b09ef7aa9d4f8620ce68402612bc>@@AAV<lambda_4f2c1eaeead2a5fc776db5b62ea0fb9b>@@V<lambda_3ae262bc35d4ba6a3825c4f6bcaaf95c>@@@?$__crt_seh_guarded_call@H@@QAEH$$QAV<lambda_db08b09ef7aa9d4f8620ce68402612bc>@@AAV<lambda_4f2c1eaeead2a5fc776db5b62ea0fb9b>@@$$QAV<lambda_3ae262bc35d4ba6a3825c4f6bcaaf95c>@@@Z 10021737 f i libucrt:output.obj
 0001:0002079c       ??$__acrt_lock_stream_and_call@V<lambda_0a97c9e57da7be065955385c79108ff2>@@@@YAHQAU_iobuf@@$$QAV<lambda_0a97c9e57da7be065955385c79108ff2>@@@Z 1002179c f i libucrt:output.obj
 0001:000207ce       ??$__acrt_lock_stream_and_call@V<lambda_2565fc715a641e539f44ad02d6823606>@@@@YAHQAU_iobuf@@$$QAV<lambda_2565fc715a641e539f44ad02d6823606>@@@Z 100217ce f i libucrt:output.obj
 0001:00020800       ??$__acrt_lock_stream_and_call@V<lambda_481dd5778c961fbcd3b60b650e9b9dc4>@@@@YAHQAU_iobuf@@$$QAV<lambda_481dd5778c961fbcd3b60b650e9b9dc4>@@@Z 10021800 f i libucrt:output.obj
 0001:00020832       ??$__acrt_lock_stream_and_call@V<lambda_4f2c1eaeead2a5fc776db5b62ea0fb9b>@@@@YAHQAU_iobuf@@$$QAV<lambda_4f2c1eaeead2a5fc776db5b62ea0fb9b>@@@Z 10021832 f i libucrt:output.obj
 0001:00020864       ??$__acrt_lock_stream_and_call@V<lambda_63a10c2dc8dbb9e4dd1890be52af7c93>@@@@YAHQAU_iobuf@@$$QAV<lambda_63a10c2dc8dbb9e4dd1890be52af7c93>@@@Z 10021864 f i libucrt:output.obj
 0001:00020896       ??$__acrt_lock_stream_and_call@V<lambda_e516058a9c289d98c8ca9fea99247804>@@@@YAHQAU_iobuf@@$$QAV<lambda_e516058a9c289d98c8ca9fea99247804>@@@Z 10021896 f i libucrt:output.obj
 0001:000208c8       ??$__crt_interlocked_read@J@@YAJPDJ@Z 100218c8 f i libucrt:output.obj
 0001:00021b13       ??$count@D@formatting_buffer@__crt_stdio_output@@QBEIXZ 10022b13 f i libucrt:output.obj
 0001:00021b31       ??$data@D@formatting_buffer@__crt_stdio_output@@QAEPADXZ 10022b31 f i libucrt:output.obj
 0001:00021b41       ??$data@_W@formatting_buffer@__crt_stdio_output@@QAEPA_WXZ 10022b41 f i libucrt:output.obj
 0001:00021b51       ??$ensure_buffer_is_big_enough@D@formatting_buffer@__crt_stdio_output@@QAE_NI@Z 10022b51 f i libucrt:output.obj
 0001:00021bf8       ??$extract_argument_from_va_list@C_J@?$positional_parameter_base@DV?$stream_output_adapter@D@__crt_stdio_output@@@__crt_stdio_output@@IAE_NAA_J@Z 10022bf8 f i libucrt:output.obj
 0001:00021c96       ??$extract_argument_from_va_list@C_J@?$positional_parameter_base@DV?$string_output_adapter@D@__crt_stdio_output@@@__crt_stdio_output@@IAE_NAA_J@Z 10022c96 f i libucrt:output.obj
 0001:00021d34       ??$extract_argument_from_va_list@C_J@?$positional_parameter_base@_WV?$stream_output_adapter@_W@__crt_stdio_output@@@__crt_stdio_output@@IAE_NAA_J@Z 10022d34 f i libucrt:output.obj
 0001:00021dd2       ??$extract_argument_from_va_list@C_J@?$positional_parameter_base@_WV?$string_output_adapter@_W@__crt_stdio_output@@@__crt_stdio_output@@IAE_NAA_J@Z 10022dd2 f i libucrt:output.obj
 0001:00021e70       ??$extract_argument_from_va_list@C_J@?$standard_base@DV?$stream_output_adapter@D@__crt_stdio_output@@@__crt_stdio_output@@IAE_NAA_J@Z 10022e70 f i libucrt:output.obj
 0001:00021e96       ??$extract_argument_from_va_list@C_J@?$standard_base@DV?$string_output_adapter@D@__crt_stdio_output@@@__crt_stdio_output@@IAE_NAA_J@Z 10022e96 f i libucrt:output.obj
 0001:00021ebc       ??$extract_argument_from_va_list@C_J@?$standard_base@_WV?$stream_output_adapter@_W@__crt_stdio_output@@@__crt_stdio_output@@IAE_NAA_J@Z 10022ebc f i libucrt:output.obj
 0001:00021ee2       ??$extract_argument_from_va_list@C_J@?$standard_base@_WV?$string_output_adapter@_W@__crt_stdio_output@@@__crt_stdio_output@@IAE_NAA_J@Z 10022ee2 f i libucrt:output.obj
 0001:00021f08       ??$extract_argument_from_va_list@E_J@?$positional_parameter_base@DV?$stream_output_adapter@D@__crt_stdio_output@@@__crt_stdio_output@@IAE_NAA_J@Z 10022f08 f i libucrt:output.obj
 0001:00021fa6       ??$extract_argument_from_va_list@E_J@?$positional_parameter_base@DV?$string_output_adapter@D@__crt_stdio_output@@@__crt_stdio_output@@IAE_NAA_J@Z 10022fa6 f i libucrt:output.obj
 0001:00022044       ??$extract_argument_from_va_list@E_J@?$positional_parameter_base@_WV?$stream_output_adapter@_W@__crt_stdio_output@@@__crt_stdio_output@@IAE_NAA_J@Z 10023044 f i libucrt:output.obj
 0001:000220e2       ??$extract_argument_from_va_list@E_J@?$positional_parameter_base@_WV?$string_output_adapter@_W@__crt_stdio_output@@@__crt_stdio_output@@IAE_NAA_J@Z 100230e2 f i libucrt:output.obj
 0001:00022180       ??$extract_argument_from_va_list@E_J@?$standard_base@DV?$stream_output_adapter@D@__crt_stdio_output@@@__crt_stdio_output@@IAE_NAA_J@Z 10023180 f i libucrt:output.obj
 0001:000221a6       ??$extract_argument_from_va_list@E_J@?$standard_base@DV?$string_output_adapter@D@__crt_stdio_output@@@__crt_stdio_output@@IAE_NAA_J@Z 100231a6 f i libucrt:output.obj
 0001:000221cc       ??$extract_argument_from_va_list@E_J@?$standard_base@_WV?$stream_output_adapter@_W@__crt_stdio_output@@@__crt_stdio_output@@IAE_NAA_J@Z 100231cc f i libucrt:output.obj
 0001:000221f2       ??$extract_argument_from_va_list@E_J@?$standard_base@_WV?$string_output_adapter@_W@__crt_stdio_output@@@__crt_stdio_output@@IAE_NAA_J@Z 100231f2 f i libucrt:output.obj
 0001:00022218       ??$extract_argument_from_va_list@F_J@?$positional_parameter_base@DV?$stream_output_adapter@D@__crt_stdio_output@@@__crt_stdio_output@@IAE_NAA_J@Z 10023218 f i libucrt:output.obj
 0001:000222b6       ??$extract_argument_from_va_list@F_J@?$positional_parameter_base@DV?$string_output_adapter@D@__crt_stdio_output@@@__crt_stdio_output@@IAE_NAA_J@Z 100232b6 f i libucrt:output.obj
 0001:00022354       ??$extract_argument_from_va_list@F_J@?$positional_parameter_base@_WV?$stream_output_adapter@_W@__crt_stdio_output@@@__crt_stdio_output@@IAE_NAA_J@Z 10023354 f i libucrt:output.obj
 0001:000223f2       ??$extract_argument_from_va_list@F_J@?$positional_parameter_base@_WV?$string_output_adapter@_W@__crt_stdio_output@@@__crt_stdio_output@@IAE_NAA_J@Z 100233f2 f i libucrt:output.obj
 0001:00022490       ??$extract_argument_from_va_list@F_J@?$standard_base@DV?$stream_output_adapter@D@__crt_stdio_output@@@__crt_stdio_output@@IAE_NAA_J@Z 10023490 f i libucrt:output.obj
 0001:000224b6       ??$extract_argument_from_va_list@F_J@?$standard_base@DV?$string_output_adapter@D@__crt_stdio_output@@@__crt_stdio_output@@IAE_NAA_J@Z 100234b6 f i libucrt:output.obj
 0001:000224dc       ??$extract_argument_from_va_list@F_J@?$standard_base@_WV?$stream_output_adapter@_W@__crt_stdio_output@@@__crt_stdio_output@@IAE_NAA_J@Z 100234dc f i libucrt:output.obj
 0001:00022502       ??$extract_argument_from_va_list@F_J@?$standard_base@_WV?$string_output_adapter@_W@__crt_stdio_output@@@__crt_stdio_output@@IAE_NAA_J@Z 10023502 f i libucrt:output.obj
 0001:00022528       ??$extract_argument_from_va_list@GD@?$positional_parameter_base@DV?$stream_output_adapter@D@__crt_stdio_output@@@__crt_stdio_output@@IAE_NAAD@Z 10023528 f i libucrt:output.obj
 0001:000225c5       ??$extract_argument_from_va_list@GD@?$positional_parameter_base@DV?$string_output_adapter@D@__crt_stdio_output@@@__crt_stdio_output@@IAE_NAAD@Z 100235c5 f i libucrt:output.obj
 0001:00022662       ??$extract_argument_from_va_list@GD@?$standard_base@DV?$stream_output_adapter@D@__crt_stdio_output@@@__crt_stdio_output@@IAE_NAAD@Z 10023662 f i libucrt:output.obj
 0001:00022682       ??$extract_argument_from_va_list@GD@?$standard_base@DV?$string_output_adapter@D@__crt_stdio_output@@@__crt_stdio_output@@IAE_NAAD@Z 10023682 f i libucrt:output.obj
 0001:000226a2       ??$extract_argument_from_va_list@G_J@?$positional_parameter_base@DV?$stream_output_adapter@D@__crt_stdio_output@@@__crt_stdio_output@@IAE_NAA_J@Z 100236a2 f i libucrt:output.obj
 0001:00022740       ??$extract_argument_from_va_list@G_J@?$positional_parameter_base@DV?$string_output_adapter@D@__crt_stdio_output@@@__crt_stdio_output@@IAE_NAA_J@Z 10023740 f i libucrt:output.obj
 0001:000227de       ??$extract_argument_from_va_list@G_J@?$positional_parameter_base@_WV?$stream_output_adapter@_W@__crt_stdio_output@@@__crt_stdio_output@@IAE_NAA_J@Z 100237de f i libucrt:output.obj
 0001:0002287c       ??$extract_argument_from_va_list@G_J@?$positional_parameter_base@_WV?$string_output_adapter@_W@__crt_stdio_output@@@__crt_stdio_output@@IAE_NAA_J@Z 1002387c f i libucrt:output.obj
 0001:0002291a       ??$extract_argument_from_va_list@G_J@?$standard_base@DV?$stream_output_adapter@D@__crt_stdio_output@@@__crt_stdio_output@@IAE_NAA_J@Z 1002391a f i libucrt:output.obj
 0001:00022940       ??$extract_argument_from_va_list@G_J@?$standard_base@DV?$string_output_adapter@D@__crt_stdio_output@@@__crt_stdio_output@@IAE_NAA_J@Z 10023940 f i libucrt:output.obj
 0001:00022966       ??$extract_argument_from_va_list@G_J@?$standard_base@_WV?$stream_output_adapter@_W@__crt_stdio_output@@@__crt_stdio_output@@IAE_NAA_J@Z 10023966 f i libucrt:output.obj
 0001:0002298c       ??$extract_argument_from_va_list@G_J@?$standard_base@_WV?$string_output_adapter@_W@__crt_stdio_output@@@__crt_stdio_output@@IAE_NAA_J@Z 1002398c f i libucrt:output.obj
 0001:000229b2       ??$extract_argument_from_va_list@H_J@?$positional_parameter_base@DV?$stream_output_adapter@D@__crt_stdio_output@@@__crt_stdio_output@@IAE_NAA_J@Z 100239b2 f i libucrt:output.obj
 0001:00022a4e       ??$extract_argument_from_va_list@H_J@?$positional_parameter_base@DV?$string_output_adapter@D@__crt_stdio_output@@@__crt_stdio_output@@IAE_NAA_J@Z 10023a4e f i libucrt:output.obj
 0001:00022aea       ??$extract_argument_from_va_list@H_J@?$positional_parameter_base@_WV?$stream_output_adapter@_W@__crt_stdio_output@@@__crt_stdio_output@@IAE_NAA_J@Z 10023aea f i libucrt:output.obj
 0001:00022b86       ??$extract_argument_from_va_list@H_J@?$positional_parameter_base@_WV?$string_output_adapter@_W@__crt_stdio_output@@@__crt_stdio_output@@IAE_NAA_J@Z 10023b86 f i libucrt:output.obj
 0001:00022c22       ??$extract_argument_from_va_list@H_J@?$standard_base@DV?$stream_output_adapter@D@__crt_stdio_output@@@__crt_stdio_output@@IAE_NAA_J@Z 10023c22 f i libucrt:output.obj
 0001:00022c47       ??$extract_argument_from_va_list@H_J@?$standard_base@DV?$string_output_adapter@D@__crt_stdio_output@@@__crt_stdio_output@@IAE_NAA_J@Z 10023c47 f i libucrt:output.obj
 0001:00022c6c       ??$extract_argument_from_va_list@H_J@?$standard_base@_WV?$stream_output_adapter@_W@__crt_stdio_output@@@__crt_stdio_output@@IAE_NAA_J@Z 10023c6c f i libucrt:output.obj
 0001:00022c91       ??$extract_argument_from_va_list@H_J@?$standard_base@_WV?$string_output_adapter@_W@__crt_stdio_output@@@__crt_stdio_output@@IAE_NAA_J@Z 10023c91 f i libucrt:output.obj
 0001:00022cb6       ??$extract_argument_from_va_list@I_J@?$positional_parameter_base@DV?$stream_output_adapter@D@__crt_stdio_output@@@__crt_stdio_output@@IAE_NAA_J@Z 10023cb6 f i libucrt:output.obj
 0001:00022d5d       ??$extract_argument_from_va_list@I_J@?$positional_parameter_base@DV?$string_output_adapter@D@__crt_stdio_output@@@__crt_stdio_output@@IAE_NAA_J@Z 10023d5d f i libucrt:output.obj
 0001:00022e04       ??$extract_argument_from_va_list@I_J@?$positional_parameter_base@_WV?$stream_output_adapter@_W@__crt_stdio_output@@@__crt_stdio_output@@IAE_NAA_J@Z 10023e04 f i libucrt:output.obj
 0001:00022eab       ??$extract_argument_from_va_list@I_J@?$positional_parameter_base@_WV?$string_output_adapter@_W@__crt_stdio_output@@@__crt_stdio_output@@IAE_NAA_J@Z 10023eab f i libucrt:output.obj
 0001:00022f52       ??$extract_argument_from_va_list@I_J@?$standard_base@DV?$stream_output_adapter@D@__crt_stdio_output@@@__crt_stdio_output@@IAE_NAA_J@Z 10023f52 f i libucrt:output.obj
 0001:00022f77       ??$extract_argument_from_va_list@I_J@?$standard_base@DV?$string_output_adapter@D@__crt_stdio_output@@@__crt_stdio_output@@IAE_NAA_J@Z 10023f77 f i libucrt:output.obj
 0001:00022f9c       ??$extract_argument_from_va_list@I_J@?$standard_base@_WV?$stream_output_adapter@_W@__crt_stdio_output@@@__crt_stdio_output@@IAE_NAA_J@Z 10023f9c f i libucrt:output.obj
 0001:00022fc1       ??$extract_argument_from_va_list@I_J@?$standard_base@_WV?$string_output_adapter@_W@__crt_stdio_output@@@__crt_stdio_output@@IAE_NAA_J@Z 10023fc1 f i libucrt:output.obj
 0001:00022fe6       ??$extract_argument_from_va_list@PADPAD@?$positional_parameter_base@DV?$stream_output_adapter@D@__crt_stdio_output@@@__crt_stdio_output@@IAE_NAAPAD@Z 10023fe6 f i libucrt:output.obj
 0001:00023083       ??$extract_argument_from_va_list@PADPAD@?$positional_parameter_base@DV?$string_output_adapter@D@__crt_stdio_output@@@__crt_stdio_output@@IAE_NAAPAD@Z 10024083 f i libucrt:output.obj
 0001:00023120       ??$extract_argument_from_va_list@PADPAD@?$positional_parameter_base@_WV?$stream_output_adapter@_W@__crt_stdio_output@@@__crt_stdio_output@@IAE_NAAPAD@Z 10024120 f i libucrt:output.obj
 0001:000231bd       ??$extract_argument_from_va_list@PADPAD@?$positional_parameter_base@_WV?$string_output_adapter@_W@__crt_stdio_output@@@__crt_stdio_output@@IAE_NAAPAD@Z 100241bd f i libucrt:output.obj
 0001:0002325a       ??$extract_argument_from_va_list@PADPAD@?$standard_base@DV?$stream_output_adapter@D@__crt_stdio_output@@@__crt_stdio_output@@IAE_NAAPAD@Z 1002425a f i libucrt:output.obj
 0001:0002327a       ??$extract_argument_from_va_list@PADPAD@?$standard_base@DV?$string_output_adapter@D@__crt_stdio_output@@@__crt_stdio_output@@IAE_NAAPAD@Z 1002427a f i libucrt:output.obj
 0001:0002329a       ??$extract_argument_from_va_list@PADPAD@?$standard_base@_WV?$stream_output_adapter@_W@__crt_stdio_output@@@__crt_stdio_output@@IAE_NAAPAD@Z 1002429a f i libucrt:output.obj
 0001:000232ba       ??$extract_argument_from_va_list@PADPAD@?$standard_base@_WV?$string_output_adapter@_W@__crt_stdio_output@@@__crt_stdio_output@@IAE_NAAPAD@Z 100242ba f i libucrt:output.obj
 0001:000232da       ??$extract_argument_from_va_list@PAUansi_string@?1??type_case_Z@?$output_processor@DV?$stream_output_adapter@D@__crt_stdio_output@@V?$format_validation_base@DV?$stream_output_adapter@D@__crt_stdio_output@@@2@@__crt_stdio_output@@AAE_NXZ@PAU1?1??234@AAE_NXZ@@?$standard_base@DV?$stream_output_adapter@D@__crt_stdio_output@@@__crt_stdio_output@@IAE_NAAPAUansi_string@?1??type_case_Z@?$output_processor@DV?$stream_output_adapter@D@__crt_stdio_output@@V?$format_validation_base@DV?$stream_output_adapter@D@__crt_stdio_output@@@2@@1@AAE_NXZ@@Z 100242da f i libucrt:output.obj
 0001:000232fa       ??$extract_argument_from_va_list@PAUansi_string@?1??type_case_Z@?$output_processor@DV?$stream_output_adapter@D@__crt_stdio_output@@V?$positional_parameter_base@DV?$stream_output_adapter@D@__crt_stdio_output@@@2@@__crt_stdio_output@@AAE_NXZ@PAU1?1??234@AAE_NXZ@@?$positional_parameter_base@DV?$stream_output_adapter@D@__crt_stdio_output@@@__crt_stdio_output@@IAE_NAAPAUansi_string@?1??type_case_Z@?$output_processor@DV?$stream_output_adapter@D@__crt_stdio_output@@V?$positional_parameter_base@DV?$stream_output_adapter@D@__crt_stdio_output@@@2@@1@AAE_NXZ@@Z 100242fa f i libucrt:output.obj
 0001:00023397       ??$extract_argument_from_va_list@PAUansi_string@?1??type_case_Z@?$output_processor@DV?$stream_output_adapter@D@__crt_stdio_output@@V?$positional_parameter_base@DV?$stream_output_adapter@D@__crt_stdio_output@@@2@@__crt_stdio_output@@AAE_NXZ@PAU1?1??234@AAE_NXZ@@?$standard_base@DV?$stream_output_adapter@D@__crt_stdio_output@@@__crt_stdio_output@@IAE_NAAPAUansi_string@?1??type_case_Z@?$output_processor@DV?$stream_output_adapter@D@__crt_stdio_output@@V?$positional_parameter_base@DV?$stream_output_adapter@D@__crt_stdio_output@@@2@@1@AAE_NXZ@@Z 10024397 f i libucrt:output.obj
 0001:000233b7       ??$extract_argument_from_va_list@PAUansi_string@?1??type_case_Z@?$output_processor@DV?$stream_output_adapter@D@__crt_stdio_output@@V?$standard_base@DV?$stream_output_adapter@D@__crt_stdio_output@@@2@@__crt_stdio_output@@AAE_NXZ@PAU1?1??234@AAE_NXZ@@?$standard_base@DV?$stream_output_adapter@D@__crt_stdio_output@@@__crt_stdio_output@@IAE_NAAPAUansi_string@?1??type_case_Z@?$output_processor@DV?$stream_output_adapter@D@__crt_stdio_output@@V?$standard_base@DV?$stream_output_adapter@D@__crt_stdio_output@@@2@@1@AAE_NXZ@@Z 100243b7 f i libucrt:output.obj
 0001:000233d7       ??$extract_argument_from_va_list@PAUansi_string@?1??type_case_Z@?$output_processor@DV?$string_output_adapter@D@__crt_stdio_output@@V?$format_validation_base@DV?$string_output_adapter@D@__crt_stdio_output@@@2@@__crt_stdio_output@@AAE_NXZ@PAU1?1??234@AAE_NXZ@@?$standard_base@DV?$string_output_adapter@D@__crt_stdio_output@@@__crt_stdio_output@@IAE_NAAPAUansi_string@?1??type_case_Z@?$output_processor@DV?$string_output_adapter@D@__crt_stdio_output@@V?$format_validation_base@DV?$string_output_adapter@D@__crt_stdio_output@@@2@@1@AAE_NXZ@@Z 100243d7 f i libucrt:output.obj
 0001:000233f7       ??$extract_argument_from_va_list@PAUansi_string@?1??type_case_Z@?$output_processor@DV?$string_output_adapter@D@__crt_stdio_output@@V?$positional_parameter_base@DV?$string_output_adapter@D@__crt_stdio_output@@@2@@__crt_stdio_output@@AAE_NXZ@PAU1?1??234@AAE_NXZ@@?$positional_parameter_base@DV?$string_output_adapter@D@__crt_stdio_output@@@__crt_stdio_output@@IAE_NAAPAUansi_string@?1??type_case_Z@?$output_processor@DV?$string_output_adapter@D@__crt_stdio_output@@V?$positional_parameter_base@DV?$string_output_adapter@D@__crt_stdio_output@@@2@@1@AAE_NXZ@@Z 100243f7 f i libucrt:output.obj
 0001:00023494       ??$extract_argument_from_va_list@PAUansi_string@?1??type_case_Z@?$output_processor@DV?$string_output_adapter@D@__crt_stdio_output@@V?$positional_parameter_base@DV?$string_output_adapter@D@__crt_stdio_output@@@2@@__crt_stdio_output@@AAE_NXZ@PAU1?1??234@AAE_NXZ@@?$standard_base@DV?$string_output_adapter@D@__crt_stdio_output@@@__crt_stdio_output@@IAE_NAAPAUansi_string@?1??type_case_Z@?$output_processor@DV?$string_output_adapter@D@__crt_stdio_output@@V?$positional_parameter_base@DV?$string_output_adapter@D@__crt_stdio_output@@@2@@1@AAE_NXZ@@Z 10024494 f i libucrt:output.obj
 0001:000234b4       ??$extract_argument_from_va_list@PAUansi_string@?1??type_case_Z@?$output_processor@DV?$string_output_adapter@D@__crt_stdio_output@@V?$standard_base@DV?$string_output_adapter@D@__crt_stdio_output@@@2@@__crt_stdio_output@@AAE_NXZ@PAU1?1??234@AAE_NXZ@@?$standard_base@DV?$string_output_adapter@D@__crt_stdio_output@@@__crt_stdio_output@@IAE_NAAPAUansi_string@?1??type_case_Z@?$output_processor@DV?$string_output_adapter@D@__crt_stdio_output@@V?$standard_base@DV?$string_output_adapter@D@__crt_stdio_output@@@2@@1@AAE_NXZ@@Z 100244b4 f i libucrt:output.obj
 0001:000234d4       ??$extract_argument_from_va_list@PAUansi_string@?1??type_case_Z@?$output_processor@_WV?$stream_output_adapter@_W@__crt_stdio_output@@V?$format_validation_base@_WV?$stream_output_adapter@_W@__crt_stdio_output@@@2@@__crt_stdio_output@@AAE_NXZ@PAU1?1??234@AAE_NXZ@@?$standard_base@_WV?$stream_output_adapter@_W@__crt_stdio_output@@@__crt_stdio_output@@IAE_NAAPAUansi_string@?1??type_case_Z@?$output_processor@_WV?$stream_output_adapter@_W@__crt_stdio_output@@V?$format_validation_base@_WV?$stream_output_adapter@_W@__crt_stdio_output@@@2@@1@AAE_NXZ@@Z 100244d4 f i libucrt:output.obj
 0001:000234f4       ??$extract_argument_from_va_list@PAUansi_string@?1??type_case_Z@?$output_processor@_WV?$stream_output_adapter@_W@__crt_stdio_output@@V?$positional_parameter_base@_WV?$stream_output_adapter@_W@__crt_stdio_output@@@2@@__crt_stdio_output@@AAE_NXZ@PAU1?1??234@AAE_NXZ@@?$positional_parameter_base@_WV?$stream_output_adapter@_W@__crt_stdio_output@@@__crt_stdio_output@@IAE_NAAPAUansi_string@?1??type_case_Z@?$output_processor@_WV?$stream_output_adapter@_W@__crt_stdio_output@@V?$positional_parameter_base@_WV?$stream_output_adapter@_W@__crt_stdio_output@@@2@@1@AAE_NXZ@@Z 100244f4 f i libucrt:output.obj
 0001:00023591       ??$extract_argument_from_va_list@PAUansi_string@?1??type_case_Z@?$output_processor@_WV?$stream_output_adapter@_W@__crt_stdio_output@@V?$positional_parameter_base@_WV?$stream_output_adapter@_W@__crt_stdio_output@@@2@@__crt_stdio_output@@AAE_NXZ@PAU1?1??234@AAE_NXZ@@?$standard_base@_WV?$stream_output_adapter@_W@__crt_stdio_output@@@__crt_stdio_output@@IAE_NAAPAUansi_string@?1??type_case_Z@?$output_processor@_WV?$stream_output_adapter@_W@__crt_stdio_output@@V?$positional_parameter_base@_WV?$stream_output_adapter@_W@__crt_stdio_output@@@2@@1@AAE_NXZ@@Z 10024591 f i libucrt:output.obj
 0001:000235b1       ??$extract_argument_from_va_list@PAUansi_string@?1??type_case_Z@?$output_processor@_WV?$stream_output_adapter@_W@__crt_stdio_output@@V?$standard_base@_WV?$stream_output_adapter@_W@__crt_stdio_output@@@2@@__crt_stdio_output@@AAE_NXZ@PAU1?1??234@AAE_NXZ@@?$standard_base@_WV?$stream_output_adapter@_W@__crt_stdio_output@@@__crt_stdio_output@@IAE_NAAPAUansi_string@?1??type_case_Z@?$output_processor@_WV?$stream_output_adapter@_W@__crt_stdio_output@@V?$standard_base@_WV?$stream_output_adapter@_W@__crt_stdio_output@@@2@@1@AAE_NXZ@@Z 100245b1 f i libucrt:output.obj
 0001:000235d1       ??$extract_argument_from_va_list@PAUansi_string@?1??type_case_Z@?$output_processor@_WV?$string_output_adapter@_W@__crt_stdio_output@@V?$format_validation_base@_WV?$string_output_adapter@_W@__crt_stdio_output@@@2@@__crt_stdio_output@@AAE_NXZ@PAU1?1??234@AAE_NXZ@@?$standard_base@_WV?$string_output_adapter@_W@__crt_stdio_output@@@__crt_stdio_output@@IAE_NAAPAUansi_string@?1??type_case_Z@?$output_processor@_WV?$string_output_adapter@_W@__crt_stdio_output@@V?$format_validation_base@_WV?$string_output_adapter@_W@__crt_stdio_output@@@2@@1@AAE_NXZ@@Z 100245d1 f i libucrt:output.obj
 0001:000235f1       ??$extract_argument_from_va_list@PAUansi_string@?1??type_case_Z@?$output_processor@_WV?$string_output_adapter@_W@__crt_stdio_output@@V?$positional_parameter_base@_WV?$string_output_adapter@_W@__crt_stdio_output@@@2@@__crt_stdio_output@@AAE_NXZ@PAU1?1??234@AAE_NXZ@@?$positional_parameter_base@_WV?$string_output_adapter@_W@__crt_stdio_output@@@__crt_stdio_output@@IAE_NAAPAUansi_string@?1??type_case_Z@?$output_processor@_WV?$string_output_adapter@_W@__crt_stdio_output@@V?$positional_parameter_base@_WV?$string_output_adapter@_W@__crt_stdio_output@@@2@@1@AAE_NXZ@@Z 100245f1 f i libucrt:output.obj
 0001:0002368e       ??$extract_argument_from_va_list@PAUansi_string@?1??type_case_Z@?$output_processor@_WV?$string_output_adapter@_W@__crt_stdio_output@@V?$positional_parameter_base@_WV?$string_output_adapter@_W@__crt_stdio_output@@@2@@__crt_stdio_output@@AAE_NXZ@PAU1?1??234@AAE_NXZ@@?$standard_base@_WV?$string_output_adapter@_W@__crt_stdio_output@@@__crt_stdio_output@@IAE_NAAPAUansi_string@?1??type_case_Z@?$output_processor@_WV?$string_output_adapter@_W@__crt_stdio_output@@V?$positional_parameter_base@_WV?$string_output_adapter@_W@__crt_stdio_output@@@2@@1@AAE_NXZ@@Z 1002468e f i libucrt:output.obj
 0001:000236ae       ??$extract_argument_from_va_list@PAUansi_string@?1??type_case_Z@?$output_processor@_WV?$string_output_adapter@_W@__crt_stdio_output@@V?$standard_base@_WV?$string_output_adapter@_W@__crt_stdio_output@@@2@@__crt_stdio_output@@AAE_NXZ@PAU1?1??234@AAE_NXZ@@?$standard_base@_WV?$string_output_adapter@_W@__crt_stdio_output@@@__crt_stdio_output@@IAE_NAAPAUansi_string@?1??type_case_Z@?$output_processor@_WV?$string_output_adapter@_W@__crt_stdio_output@@V?$standard_base@_WV?$string_output_adapter@_W@__crt_stdio_output@@@2@@1@AAE_NXZ@@Z 100246ae f i libucrt:output.obj
 0001:000236ce       ??$extract_argument_from_va_list@PAXPAX@?$positional_parameter_base@DV?$stream_output_adapter@D@__crt_stdio_output@@@__crt_stdio_output@@IAE_NAAPAX@Z 100246ce f i libucrt:output.obj
 0001:0002376b       ??$extract_argument_from_va_list@PAXPAX@?$positional_parameter_base@DV?$string_output_adapter@D@__crt_stdio_output@@@__crt_stdio_output@@IAE_NAAPAX@Z 1002476b f i libucrt:output.obj
 0001:00023808       ??$extract_argument_from_va_list@PAXPAX@?$positional_parameter_base@_WV?$stream_output_adapter@_W@__crt_stdio_output@@@__crt_stdio_output@@IAE_NAAPAX@Z 10024808 f i libucrt:output.obj
 0001:000238a5       ??$extract_argument_from_va_list@PAXPAX@?$positional_parameter_base@_WV?$string_output_adapter@_W@__crt_stdio_output@@@__crt_stdio_output@@IAE_NAAPAX@Z 100248a5 f i libucrt:output.obj
 0001:00023942       ??$extract_argument_from_va_list@PAXPAX@?$standard_base@DV?$stream_output_adapter@D@__crt_stdio_output@@@__crt_stdio_output@@IAE_NAAPAX@Z 10024942 f i libucrt:output.obj
 0001:00023962       ??$extract_argument_from_va_list@PAXPAX@?$standard_base@DV?$string_output_adapter@D@__crt_stdio_output@@@__crt_stdio_output@@IAE_NAAPAX@Z 10024962 f i libucrt:output.obj
 0001:00023982       ??$extract_argument_from_va_list@PAXPAX@?$standard_base@_WV?$stream_output_adapter@_W@__crt_stdio_output@@@__crt_stdio_output@@IAE_NAAPAX@Z 10024982 f i libucrt:output.obj
 0001:000239a2       ??$extract_argument_from_va_list@PAXPAX@?$standard_base@_WV?$string_output_adapter@_W@__crt_stdio_output@@@__crt_stdio_output@@IAE_NAAPAX@Z 100249a2 f i libucrt:output.obj
 0001:000239c2       ??$extract_argument_from_va_list@U_CRT_DOUBLE@@U1@@?$positional_parameter_base@DV?$stream_output_adapter@D@__crt_stdio_output@@@__crt_stdio_output@@IAE_NAAU_CRT_DOUBLE@@@Z 100249c2 f i libucrt:output.obj
 0001:00023a73       ??$extract_argument_from_va_list@U_CRT_DOUBLE@@U1@@?$positional_parameter_base@DV?$string_output_adapter@D@__crt_stdio_output@@@__crt_stdio_output@@IAE_NAAU_CRT_DOUBLE@@@Z 10024a73 f i libucrt:output.obj
 0001:00023b24       ??$extract_argument_from_va_list@U_CRT_DOUBLE@@U1@@?$positional_parameter_base@_WV?$stream_output_adapter@_W@__crt_stdio_output@@@__crt_stdio_output@@IAE_NAAU_CRT_DOUBLE@@@Z 10024b24 f i libucrt:output.obj
 0001:00023bd5       ??$extract_argument_from_va_list@U_CRT_DOUBLE@@U1@@?$positional_parameter_base@_WV?$string_output_adapter@_W@__crt_stdio_output@@@__crt_stdio_output@@IAE_NAAU_CRT_DOUBLE@@@Z 10024bd5 f i libucrt:output.obj
 0001:00023c86       ??$extract_argument_from_va_list@U_CRT_DOUBLE@@U1@@?$standard_base@DV?$stream_output_adapter@D@__crt_stdio_output@@@__crt_stdio_output@@IAE_NAAU_CRT_DOUBLE@@@Z 10024c86 f i libucrt:output.obj
 0001:00023cae       ??$extract_argument_from_va_list@U_CRT_DOUBLE@@U1@@?$standard_base@DV?$string_output_adapter@D@__crt_stdio_output@@@__crt_stdio_output@@IAE_NAAU_CRT_DOUBLE@@@Z 10024cae f i libucrt:output.obj
 0001:00023cd6       ??$extract_argument_from_va_list@U_CRT_DOUBLE@@U1@@?$standard_base@_WV?$stream_output_adapter@_W@__crt_stdio_output@@@__crt_stdio_output@@IAE_NAAU_CRT_DOUBLE@@@Z 10024cd6 f i libucrt:output.obj
 0001:00023cfe       ??$extract_argument_from_va_list@U_CRT_DOUBLE@@U1@@?$standard_base@_WV?$string_output_adapter@_W@__crt_stdio_output@@@__crt_stdio_output@@IAE_NAAU_CRT_DOUBLE@@@Z 10024cfe f i libucrt:output.obj
 0001:00023d26       ??$extract_argument_from_va_list@_J_J@?$positional_parameter_base@DV?$stream_output_adapter@D@__crt_stdio_output@@@__crt_stdio_output@@IAE_NAA_J@Z 10024d26 f i libucrt:output.obj
 0001:00023dd7       ??$extract_argument_from_va_list@_J_J@?$positional_parameter_base@DV?$string_output_adapter@D@__crt_stdio_output@@@__crt_stdio_output@@IAE_NAA_J@Z 10024dd7 f i libucrt:output.obj
 0001:00023e88       ??$extract_argument_from_va_list@_J_J@?$positional_parameter_base@_WV?$stream_output_adapter@_W@__crt_stdio_output@@@__crt_stdio_output@@IAE_NAA_J@Z 10024e88 f i libucrt:output.obj
 0001:00023f39       ??$extract_argument_from_va_list@_J_J@?$positional_parameter_base@_WV?$string_output_adapter@_W@__crt_stdio_output@@@__crt_stdio_output@@IAE_NAA_J@Z 10024f39 f i libucrt:output.obj
 0001:00023fea       ??$extract_argument_from_va_list@_J_J@?$standard_base@DV?$stream_output_adapter@D@__crt_stdio_output@@@__crt_stdio_output@@IAE_NAA_J@Z 10024fea f i libucrt:output.obj
 0001:00024012       ??$extract_argument_from_va_list@_J_J@?$standard_base@DV?$string_output_adapter@D@__crt_stdio_output@@@__crt_stdio_output@@IAE_NAA_J@Z 10025012 f i libucrt:output.obj
 0001:0002403a       ??$extract_argument_from_va_list@_J_J@?$standard_base@_WV?$stream_output_adapter@_W@__crt_stdio_output@@@__crt_stdio_output@@IAE_NAA_J@Z 1002503a f i libucrt:output.obj
 0001:00024062       ??$extract_argument_from_va_list@_J_J@?$standard_base@_WV?$string_output_adapter@_W@__crt_stdio_output@@@__crt_stdio_output@@IAE_NAA_J@Z 10025062 f i libucrt:output.obj
 0001:0002408a       ??$extract_argument_from_va_list@_K_J@?$positional_parameter_base@DV?$stream_output_adapter@D@__crt_stdio_output@@@__crt_stdio_output@@IAE_NAA_J@Z 1002508a f i libucrt:output.obj
 0001:0002413b       ??$extract_argument_from_va_list@_K_J@?$positional_parameter_base@DV?$string_output_adapter@D@__crt_stdio_output@@@__crt_stdio_output@@IAE_NAA_J@Z 1002513b f i libucrt:output.obj
 0001:000241ec       ??$extract_argument_from_va_list@_K_J@?$positional_parameter_base@_WV?$stream_output_adapter@_W@__crt_stdio_output@@@__crt_stdio_output@@IAE_NAA_J@Z 100251ec f i libucrt:output.obj
 0001:0002429d       ??$extract_argument_from_va_list@_K_J@?$positional_parameter_base@_WV?$string_output_adapter@_W@__crt_stdio_output@@@__crt_stdio_output@@IAE_NAA_J@Z 1002529d f i libucrt:output.obj
 0001:0002434e       ??$extract_argument_from_va_list@_K_J@?$standard_base@DV?$stream_output_adapter@D@__crt_stdio_output@@@__crt_stdio_output@@IAE_NAA_J@Z 1002534e f i libucrt:output.obj
 0001:00024376       ??$extract_argument_from_va_list@_K_J@?$standard_base@DV?$string_output_adapter@D@__crt_stdio_output@@@__crt_stdio_output@@IAE_NAA_J@Z 10025376 f i libucrt:output.obj
 0001:0002439e       ??$extract_argument_from_va_list@_K_J@?$standard_base@_WV?$stream_output_adapter@_W@__crt_stdio_output@@@__crt_stdio_output@@IAE_NAA_J@Z 1002539e f i libucrt:output.obj
 0001:000243c6       ??$extract_argument_from_va_list@_K_J@?$standard_base@_WV?$string_output_adapter@_W@__crt_stdio_output@@@__crt_stdio_output@@IAE_NAA_J@Z 100253c6 f i libucrt:output.obj
 0001:000243ee       ??$extract_argument_from_va_list@_W_W@?$positional_parameter_base@DV?$stream_output_adapter@D@__crt_stdio_output@@@__crt_stdio_output@@IAE_NAA_W@Z 100253ee f i libucrt:output.obj
 0001:00024490       ??$extract_argument_from_va_list@_W_W@?$positional_parameter_base@DV?$string_output_adapter@D@__crt_stdio_output@@@__crt_stdio_output@@IAE_NAA_W@Z 10025490 f i libucrt:output.obj
 0001:00024532       ??$extract_argument_from_va_list@_W_W@?$positional_parameter_base@_WV?$stream_output_adapter@_W@__crt_stdio_output@@@__crt_stdio_output@@IAE_NAA_W@Z 10025532 f i libucrt:output.obj
 0001:000245d4       ??$extract_argument_from_va_list@_W_W@?$positional_parameter_base@_WV?$string_output_adapter@_W@__crt_stdio_output@@@__crt_stdio_output@@IAE_NAA_W@Z 100255d4 f i libucrt:output.obj
 0001:00024676       ??$extract_argument_from_va_list@_W_W@?$standard_base@DV?$stream_output_adapter@D@__crt_stdio_output@@@__crt_stdio_output@@IAE_NAA_W@Z 10025676 f i libucrt:output.obj
 0001:00024699       ??$extract_argument_from_va_list@_W_W@?$standard_base@DV?$string_output_adapter@D@__crt_stdio_output@@@__crt_stdio_output@@IAE_NAA_W@Z 10025699 f i libucrt:output.obj
 0001:000246bc       ??$extract_argument_from_va_list@_W_W@?$standard_base@_WV?$stream_output_adapter@_W@__crt_stdio_output@@@__crt_stdio_output@@IAE_NAA_W@Z 100256bc f i libucrt:output.obj
 0001:000246df       ??$extract_argument_from_va_list@_W_W@?$standard_base@_WV?$string_output_adapter@_W@__crt_stdio_output@@@__crt_stdio_output@@IAE_NAA_W@Z 100256df f i libucrt:output.obj
 0001:00024702       ??$get_parameter_type@D@?$positional_parameter_base@DV?$stream_output_adapter@D@__crt_stdio_output@@@__crt_stdio_output@@CA?AW4parameter_type@01@PAD@Z 10025702 f i libucrt:output.obj
 0001:00024706       ??$get_parameter_type@D@?$positional_parameter_base@DV?$string_output_adapter@D@__crt_stdio_output@@@__crt_stdio_output@@CA?AW4parameter_type@01@PAD@Z 10025706 f i libucrt:output.obj
 0001:0002470a       ??$get_parameter_type@D@?$positional_parameter_base@_WV?$stream_output_adapter@_W@__crt_stdio_output@@@__crt_stdio_output@@CA?AW4parameter_type@01@PAD@Z 1002570a f i libucrt:output.obj
 0001:0002470e       ??$get_parameter_type@D@?$positional_parameter_base@_WV?$string_output_adapter@_W@__crt_stdio_output@@@__crt_stdio_output@@CA?AW4parameter_type@01@PAD@Z 1002570e f i libucrt:output.obj
 0001:00024712       ??$get_parameter_type@Uansi_string@?1??type_case_Z@?$output_processor@DV?$stream_output_adapter@D@__crt_stdio_output@@V?$positional_parameter_base@DV?$stream_output_adapter@D@__crt_stdio_output@@@2@@__crt_stdio_output@@AAE_NXZ@@?$positional_parameter_base@DV?$stream_output_adapter@D@__crt_stdio_output@@@__crt_stdio_output@@CA?AW4parameter_type@01@PAUansi_string@?1??type_case_Z@?$output_processor@DV?$stream_output_adapter@D@__crt_stdio_output@@V?$positional_parameter_base@DV?$stream_output_adapter@D@__crt_stdio_output@@@2@@1@AAE_NXZ@@Z 10025712 f i libucrt:output.obj
 0001:00024716       ??$get_parameter_type@Uansi_string@?1??type_case_Z@?$output_processor@DV?$string_output_adapter@D@__crt_stdio_output@@V?$positional_parameter_base@DV?$string_output_adapter@D@__crt_stdio_output@@@2@@__crt_stdio_output@@AAE_NXZ@@?$positional_parameter_base@DV?$string_output_adapter@D@__crt_stdio_output@@@__crt_stdio_output@@CA?AW4parameter_type@01@PAUansi_string@?1??type_case_Z@?$output_processor@DV?$string_output_adapter@D@__crt_stdio_output@@V?$positional_parameter_base@DV?$string_output_adapter@D@__crt_stdio_output@@@2@@1@AAE_NXZ@@Z 10025716 f i libucrt:output.obj
 0001:0002471a       ??$get_parameter_type@Uansi_string@?1??type_case_Z@?$output_processor@_WV?$stream_output_adapter@_W@__crt_stdio_output@@V?$positional_parameter_base@_WV?$stream_output_adapter@_W@__crt_stdio_output@@@2@@__crt_stdio_output@@AAE_NXZ@@?$positional_parameter_base@_WV?$stream_output_adapter@_W@__crt_stdio_output@@@__crt_stdio_output@@CA?AW4parameter_type@01@PAUansi_string@?1??type_case_Z@?$output_processor@_WV?$stream_output_adapter@_W@__crt_stdio_output@@V?$positional_parameter_base@_WV?$stream_output_adapter@_W@__crt_stdio_output@@@2@@1@AAE_NXZ@@Z 1002571a f i libucrt:output.obj
 0001:0002471e       ??$get_parameter_type@Uansi_string@?1??type_case_Z@?$output_processor@_WV?$string_output_adapter@_W@__crt_stdio_output@@V?$positional_parameter_base@_WV?$string_output_adapter@_W@__crt_stdio_output@@@2@@__crt_stdio_output@@AAE_NXZ@@?$positional_parameter_base@_WV?$string_output_adapter@_W@__crt_stdio_output@@@__crt_stdio_output@@CA?AW4parameter_type@01@PAUansi_string@?1??type_case_Z@?$output_processor@_WV?$string_output_adapter@_W@__crt_stdio_output@@V?$positional_parameter_base@_WV?$string_output_adapter@_W@__crt_stdio_output@@@2@@1@AAE_NXZ@@Z 1002571e f i libucrt:output.obj
 0001:00024722       ??$get_parameter_type@X@?$positional_parameter_base@DV?$stream_output_adapter@D@__crt_stdio_output@@@__crt_stdio_output@@CA?AW4parameter_type@01@PAX@Z 10025722 f i libucrt:output.obj
 0001:00024726       ??$get_parameter_type@X@?$positional_parameter_base@DV?$string_output_adapter@D@__crt_stdio_output@@@__crt_stdio_output@@CA?AW4parameter_type@01@PAX@Z 10025726 f i libucrt:output.obj
 0001:0002472a       ??$get_parameter_type@X@?$positional_parameter_base@_WV?$stream_output_adapter@_W@__crt_stdio_output@@@__crt_stdio_output@@CA?AW4parameter_type@01@PAX@Z 1002572a f i libucrt:output.obj
 0001:0002472e       ??$get_parameter_type@X@?$positional_parameter_base@_WV?$string_output_adapter@_W@__crt_stdio_output@@@__crt_stdio_output@@CA?AW4parameter_type@01@PAX@Z 1002572e f i libucrt:output.obj
 0001:00024732       ??$is_character_specifier@D@?$positional_parameter_base@DV?$stream_output_adapter@D@__crt_stdio_output@@@__crt_stdio_output@@CA_ND@Z 10025732 f i libucrt:output.obj
 0001:00024751       ??$is_character_specifier@D@?$positional_parameter_base@DV?$string_output_adapter@D@__crt_stdio_output@@@__crt_stdio_output@@CA_ND@Z 10025751 f i libucrt:output.obj
 0001:00024770       ??$is_character_specifier@_W@?$positional_parameter_base@_WV?$stream_output_adapter@_W@__crt_stdio_output@@@__crt_stdio_output@@CA_N_W@Z 10025770 f i libucrt:output.obj
 0001:00024793       ??$is_character_specifier@_W@?$positional_parameter_base@_WV?$string_output_adapter@_W@__crt_stdio_output@@@__crt_stdio_output@@CA_N_W@Z 10025793 f i libucrt:output.obj
 0001:000247b6       ??$is_integral_specifier@D@?$positional_parameter_base@DV?$stream_output_adapter@D@__crt_stdio_output@@@__crt_stdio_output@@CA_ND@Z 100257b6 f i libucrt:output.obj
 0001:000247ee       ??$is_integral_specifier@D@?$positional_parameter_base@DV?$string_output_adapter@D@__crt_stdio_output@@@__crt_stdio_output@@CA_ND@Z 100257ee f i libucrt:output.obj
 0001:00024826       ??$is_integral_specifier@_W@?$positional_parameter_base@_WV?$stream_output_adapter@_W@__crt_stdio_output@@@__crt_stdio_output@@CA_N_W@Z 10025826 f i libucrt:output.obj
 0001:00024871       ??$is_integral_specifier@_W@?$positional_parameter_base@_WV?$string_output_adapter@_W@__crt_stdio_output@@@__crt_stdio_output@@CA_N_W@Z 10025871 f i libucrt:output.obj
 0001:000248bc       ??$is_pointer_specifier@D@?$positional_parameter_base@DV?$stream_output_adapter@D@__crt_stdio_output@@@__crt_stdio_output@@CA_ND@Z 100258bc f i libucrt:output.obj
 0001:000248d0       ??$is_pointer_specifier@D@?$positional_parameter_base@DV?$string_output_adapter@D@__crt_stdio_output@@@__crt_stdio_output@@CA_ND@Z 100258d0 f i libucrt:output.obj
 0001:000248e4       ??$is_pointer_specifier@_W@?$positional_parameter_base@_WV?$stream_output_adapter@_W@__crt_stdio_output@@@__crt_stdio_output@@CA_N_W@Z 100258e4 f i libucrt:output.obj
 0001:000248f9       ??$is_pointer_specifier@_W@?$positional_parameter_base@_WV?$string_output_adapter@_W@__crt_stdio_output@@@__crt_stdio_output@@CA_N_W@Z 100258f9 f i libucrt:output.obj
 0001:0002490e       ??$is_string_specifier@D@?$positional_parameter_base@DV?$stream_output_adapter@D@__crt_stdio_output@@@__crt_stdio_output@@CA_ND@Z 1002590e f i libucrt:output.obj
 0001:0002492d       ??$is_string_specifier@D@?$positional_parameter_base@DV?$string_output_adapter@D@__crt_stdio_output@@@__crt_stdio_output@@CA_ND@Z 1002592d f i libucrt:output.obj
 0001:0002494c       ??$is_string_specifier@_W@?$positional_parameter_base@_WV?$stream_output_adapter@_W@__crt_stdio_output@@@__crt_stdio_output@@CA_N_W@Z 1002594c f i libucrt:output.obj
 0001:0002496f       ??$is_string_specifier@_W@?$positional_parameter_base@_WV?$string_output_adapter@_W@__crt_stdio_output@@@__crt_stdio_output@@CA_N_W@Z 1002596f f i libucrt:output.obj
 0001:00024992       ??$is_wide_character_specifier@D@__crt_stdio_output@@YA_N_KDW4length_modifier@0@@Z 10025992 f i libucrt:output.obj
 0001:000249e2       ??$is_wide_character_specifier@_W@__crt_stdio_output@@YA_N_K_WW4length_modifier@0@@Z 100259e2 f i libucrt:output.obj
 0001:00024a44       ??$peek_va_arg@C@__crt_stdio_output@@YACPAD@Z 10025a44 f i libucrt:output.obj
 0001:00024a53       ??$peek_va_arg@E@__crt_stdio_output@@YAEPAD@Z 10025a53 f i libucrt:output.obj
 0001:00024a62       ??$peek_va_arg@F@__crt_stdio_output@@YAFPAD@Z 10025a62 f i libucrt:output.obj
 0001:00024a72       ??$peek_va_arg@G@__crt_stdio_output@@YAGPAD@Z 10025a72 f i libucrt:output.obj
 0001:00024a82       ??$peek_va_arg@H@__crt_stdio_output@@YAHPAD@Z 10025a82 f i libucrt:output.obj
 0001:00024a91       ??$peek_va_arg@I@__crt_stdio_output@@YAIPAD@Z 10025a91 f i libucrt:output.obj
 0001:00024aa0       ??$peek_va_arg@PAD@__crt_stdio_output@@YAPADPAD@Z 10025aa0 f i libucrt:output.obj
 0001:00024aaf       ??$peek_va_arg@PAUansi_string@?1??type_case_Z@?$output_processor@DV?$stream_output_adapter@D@__crt_stdio_output@@V?$positional_parameter_base@DV?$stream_output_adapter@D@__crt_stdio_output@@@2@@__crt_stdio_output@@AAE_NXZ@@__crt_stdio_output@@YAPAUansi_string@?1??type_case_Z@?$output_processor@DV?$stream_output_adapter@D@__crt_stdio_output@@V?$positional_parameter_base@DV?$stream_output_adapter@D@__crt_stdio_output@@@2@@0@AAE_NXZ@PAD@Z 10025aaf f i libucrt:output.obj
 0001:00024abe       ??$peek_va_arg@PAUansi_string@?1??type_case_Z@?$output_processor@DV?$string_output_adapter@D@__crt_stdio_output@@V?$positional_parameter_base@DV?$string_output_adapter@D@__crt_stdio_output@@@2@@__crt_stdio_output@@AAE_NXZ@@__crt_stdio_output@@YAPAUansi_string@?1??type_case_Z@?$output_processor@DV?$string_output_adapter@D@__crt_stdio_output@@V?$positional_parameter_base@DV?$string_output_adapter@D@__crt_stdio_output@@@2@@0@AAE_NXZ@PAD@Z 10025abe f i libucrt:output.obj
 0001:00024acd       ??$peek_va_arg@PAUansi_string@?1??type_case_Z@?$output_processor@_WV?$stream_output_adapter@_W@__crt_stdio_output@@V?$positional_parameter_base@_WV?$stream_output_adapter@_W@__crt_stdio_output@@@2@@__crt_stdio_output@@AAE_NXZ@@__crt_stdio_output@@YAPAUansi_string@?1??type_case_Z@?$output_processor@_WV?$stream_output_adapter@_W@__crt_stdio_output@@V?$positional_parameter_base@_WV?$stream_output_adapter@_W@__crt_stdio_output@@@2@@0@AAE_NXZ@PAD@Z 10025acd f i libucrt:output.obj
 0001:00024adc       ??$peek_va_arg@PAUansi_string@?1??type_case_Z@?$output_processor@_WV?$string_output_adapter@_W@__crt_stdio_output@@V?$positional_parameter_base@_WV?$string_output_adapter@_W@__crt_stdio_output@@@2@@__crt_stdio_output@@AAE_NXZ@@__crt_stdio_output@@YAPAUansi_string@?1??type_case_Z@?$output_processor@_WV?$string_output_adapter@_W@__crt_stdio_output@@V?$positional_parameter_base@_WV?$string_output_adapter@_W@__crt_stdio_output@@@2@@0@AAE_NXZ@PAD@Z 10025adc f i libucrt:output.obj
 0001:00024aeb       ??$peek_va_arg@PAX@__crt_stdio_output@@YAPAXPAD@Z 10025aeb f i libucrt:output.obj
 0001:00024afa       ??$peek_va_arg@U_CRT_DOUBLE@@@__crt_stdio_output@@YA?AU_CRT_DOUBLE@@PAD@Z 10025afa f i libucrt:output.obj
 0001:00024b0c       ??$peek_va_arg@_J@__crt_stdio_output@@YA_JPAD@Z 10025b0c f i libucrt:output.obj
 0001:00024b1e       ??$peek_va_arg@_K@__crt_stdio_output@@YA_KPAD@Z 10025b1e f i libucrt:output.obj
 0001:00024b30       ??$peek_va_arg@_W@__crt_stdio_output@@YA_WPAD@Z 10025b30 f i libucrt:output.obj
 0001:00024b40       ??$puttc_nolock@ABDPAU_iobuf@@@?$__crt_char_traits@D@@SAHABD$$QAPAU_iobuf@@@Z 10025b40 f i libucrt:output.obj
 0001:00024b60       ??$puttc_nolock@AB_WPAU_iobuf@@@?$__crt_char_traits@_W@@SAGAB_W$$QAPAU_iobuf@@@Z 10025b60 f i libucrt:output.obj
 0001:00024b80       ??$read_va_arg@C@__crt_stdio_output@@YACAAPAD@Z 10025b80 f i libucrt:output.obj
 0001:00024b96       ??$read_va_arg@E@__crt_stdio_output@@YAEAAPAD@Z 10025b96 f i libucrt:output.obj
 0001:00024bac       ??$read_va_arg@F@__crt_stdio_output@@YAFAAPAD@Z 10025bac f i libucrt:output.obj
 0001:00024bc3       ??$read_va_arg@G@__crt_stdio_output@@YAGAAPAD@Z 10025bc3 f i libucrt:output.obj
 0001:00024bda       ??$read_va_arg@H@__crt_stdio_output@@YAHAAPAD@Z 10025bda f i libucrt:output.obj
 0001:00024bf0       ??$read_va_arg@I@__crt_stdio_output@@YAIAAPAD@Z 10025bf0 f i libucrt:output.obj
 0001:00024c06       ??$read_va_arg@PAD@__crt_stdio_output@@YAPADAAPAD@Z 10025c06 f i libucrt:output.obj
 0001:00024c1c       ??$read_va_arg@PAUansi_string@?1??type_case_Z@?$output_processor@DV?$stream_output_adapter@D@__crt_stdio_output@@V?$format_validation_base@DV?$stream_output_adapter@D@__crt_stdio_output@@@2@@__crt_stdio_output@@AAE_NXZ@@__crt_stdio_output@@YAPAUansi_string@?1??type_case_Z@?$output_processor@DV?$stream_output_adapter@D@__crt_stdio_output@@V?$format_validation_base@DV?$stream_output_adapter@D@__crt_stdio_output@@@2@@0@AAE_NXZ@AAPAD@Z 10025c1c f i libucrt:output.obj
 0001:00024c32       ??$read_va_arg@PAUansi_string@?1??type_case_Z@?$output_processor@DV?$stream_output_adapter@D@__crt_stdio_output@@V?$positional_parameter_base@DV?$stream_output_adapter@D@__crt_stdio_output@@@2@@__crt_stdio_output@@AAE_NXZ@@__crt_stdio_output@@YAPAUansi_string@?1??type_case_Z@?$output_processor@DV?$stream_output_adapter@D@__crt_stdio_output@@V?$positional_parameter_base@DV?$stream_output_adapter@D@__crt_stdio_output@@@2@@0@AAE_NXZ@AAPAD@Z 10025c32 f i libucrt:output.obj
 0001:00024c48       ??$read_va_arg@PAUansi_string@?1??type_case_Z@?$output_processor@DV?$stream_output_adapter@D@__crt_stdio_output@@V?$standard_base@DV?$stream_output_adapter@D@__crt_stdio_output@@@2@@__crt_stdio_output@@AAE_NXZ@@__crt_stdio_output@@YAPAUansi_string@?1??type_case_Z@?$output_processor@DV?$stream_output_adapter@D@__crt_stdio_output@@V?$standard_base@DV?$stream_output_adapter@D@__crt_stdio_output@@@2@@0@AAE_NXZ@AAPAD@Z 10025c48 f i libucrt:output.obj
 0001:00024c5e       ??$read_va_arg@PAUansi_string@?1??type_case_Z@?$output_processor@DV?$string_output_adapter@D@__crt_stdio_output@@V?$format_validation_base@DV?$string_output_adapter@D@__crt_stdio_output@@@2@@__crt_stdio_output@@AAE_NXZ@@__crt_stdio_output@@YAPAUansi_string@?1??type_case_Z@?$output_processor@DV?$string_output_adapter@D@__crt_stdio_output@@V?$format_validation_base@DV?$string_output_adapter@D@__crt_stdio_output@@@2@@0@AAE_NXZ@AAPAD@Z 10025c5e f i libucrt:output.obj
 0001:00024c74       ??$read_va_arg@PAUansi_string@?1??type_case_Z@?$output_processor@DV?$string_output_adapter@D@__crt_stdio_output@@V?$positional_parameter_base@DV?$string_output_adapter@D@__crt_stdio_output@@@2@@__crt_stdio_output@@AAE_NXZ@@__crt_stdio_output@@YAPAUansi_string@?1??type_case_Z@?$output_processor@DV?$string_output_adapter@D@__crt_stdio_output@@V?$positional_parameter_base@DV?$string_output_adapter@D@__crt_stdio_output@@@2@@0@AAE_NXZ@AAPAD@Z 10025c74 f i libucrt:output.obj
 0001:00024c8a       ??$read_va_arg@PAUansi_string@?1??type_case_Z@?$output_processor@DV?$string_output_adapter@D@__crt_stdio_output@@V?$standard_base@DV?$string_output_adapter@D@__crt_stdio_output@@@2@@__crt_stdio_output@@AAE_NXZ@@__crt_stdio_output@@YAPAUansi_string@?1??type_case_Z@?$output_processor@DV?$string_output_adapter@D@__crt_stdio_output@@V?$standard_base@DV?$string_output_adapter@D@__crt_stdio_output@@@2@@0@AAE_NXZ@AAPAD@Z 10025c8a f i libucrt:output.obj
 0001:00024ca0       ??$read_va_arg@PAUansi_string@?1??type_case_Z@?$output_processor@_WV?$stream_output_adapter@_W@__crt_stdio_output@@V?$format_validation_base@_WV?$stream_output_adapter@_W@__crt_stdio_output@@@2@@__crt_stdio_output@@AAE_NXZ@@__crt_stdio_output@@YAPAUansi_string@?1??type_case_Z@?$output_processor@_WV?$stream_output_adapter@_W@__crt_stdio_output@@V?$format_validation_base@_WV?$stream_output_adapter@_W@__crt_stdio_output@@@2@@0@AAE_NXZ@AAPAD@Z 10025ca0 f i libucrt:output.obj
 0001:00024cb6       ??$read_va_arg@PAUansi_string@?1??type_case_Z@?$output_processor@_WV?$stream_output_adapter@_W@__crt_stdio_output@@V?$positional_parameter_base@_WV?$stream_output_adapter@_W@__crt_stdio_output@@@2@@__crt_stdio_output@@AAE_NXZ@@__crt_stdio_output@@YAPAUansi_string@?1??type_case_Z@?$output_processor@_WV?$stream_output_adapter@_W@__crt_stdio_output@@V?$positional_parameter_base@_WV?$stream_output_adapter@_W@__crt_stdio_output@@@2@@0@AAE_NXZ@AAPAD@Z 10025cb6 f i libucrt:output.obj
 0001:00024ccc       ??$read_va_arg@PAUansi_string@?1??type_case_Z@?$output_processor@_WV?$stream_output_adapter@_W@__crt_stdio_output@@V?$standard_base@_WV?$stream_output_adapter@_W@__crt_stdio_output@@@2@@__crt_stdio_output@@AAE_NXZ@@__crt_stdio_output@@YAPAUansi_string@?1??type_case_Z@?$output_processor@_WV?$stream_output_adapter@_W@__crt_stdio_output@@V?$standard_base@_WV?$stream_output_adapter@_W@__crt_stdio_output@@@2@@0@AAE_NXZ@AAPAD@Z 10025ccc f i libucrt:output.obj
 0001:00024ce2       ??$read_va_arg@PAUansi_string@?1??type_case_Z@?$output_processor@_WV?$string_output_adapter@_W@__crt_stdio_output@@V?$format_validation_base@_WV?$string_output_adapter@_W@__crt_stdio_output@@@2@@__crt_stdio_output@@AAE_NXZ@@__crt_stdio_output@@YAPAUansi_string@?1??type_case_Z@?$output_processor@_WV?$string_output_adapter@_W@__crt_stdio_output@@V?$format_validation_base@_WV?$string_output_adapter@_W@__crt_stdio_output@@@2@@0@AAE_NXZ@AAPAD@Z 10025ce2 f i libucrt:output.obj
 0001:00024cf8       ??$read_va_arg@PAUansi_string@?1??type_case_Z@?$output_processor@_WV?$string_output_adapter@_W@__crt_stdio_output@@V?$positional_parameter_base@_WV?$string_output_adapter@_W@__crt_stdio_output@@@2@@__crt_stdio_output@@AAE_NXZ@@__crt_stdio_output@@YAPAUansi_string@?1??type_case_Z@?$output_processor@_WV?$string_output_adapter@_W@__crt_stdio_output@@V?$positional_parameter_base@_WV?$string_output_adapter@_W@__crt_stdio_output@@@2@@0@AAE_NXZ@AAPAD@Z 10025cf8 f i libucrt:output.obj
 0001:00024d0e       ??$read_va_arg@PAUansi_string@?1??type_case_Z@?$output_processor@_WV?$string_output_adapter@_W@__crt_stdio_output@@V?$standard_base@_WV?$string_output_adapter@_W@__crt_stdio_output@@@2@@__crt_stdio_output@@AAE_NXZ@@__crt_stdio_output@@YAPAUansi_string@?1??type_case_Z@?$output_processor@_WV?$string_output_adapter@_W@__crt_stdio_output@@V?$standard_base@_WV?$string_output_adapter@_W@__crt_stdio_output@@@2@@0@AAE_NXZ@AAPAD@Z 10025d0e f i libucrt:output.obj
 0001:00024d24       ??$read_va_arg@PAX@__crt_stdio_output@@YAPAXAAPAD@Z 10025d24 f i libucrt:output.obj
 0001:00024d3a       ??$read_va_arg@U_CRT_DOUBLE@@@__crt_stdio_output@@YA?AU_CRT_DOUBLE@@AAPAD@Z 10025d3a f i libucrt:output.obj
 0001:00024d54       ??$read_va_arg@_J@__crt_stdio_output@@YA_JAAPAD@Z 10025d54 f i libucrt:output.obj
 0001:00024d6e       ??$read_va_arg@_K@__crt_stdio_output@@YA_KAAPAD@Z 10025d6e f i libucrt:output.obj
 0001:00024d88       ??$read_va_arg@_W@__crt_stdio_output@@YA_WAAPAD@Z 10025d88 f i libucrt:output.obj
 0001:00024d9f       ??$scratch_count@D@formatting_buffer@__crt_stdio_output@@QBEIXZ 10025d9f f i libucrt:output.obj
 0001:00024da4       ??$scratch_data@D@formatting_buffer@__crt_stdio_output@@QAEPADXZ 10025da4 f i libucrt:output.obj
 0001:00024dc9       ??$tcstol@AAPBDPAPADH@?$__crt_char_traits@D@@SAJAAPBD$$QAPAPAD$$QAH@Z 10025dc9 f i libucrt:output.obj
 0001:00024dee       ??$tcstol@AAPB_WPAPA_WH@?$__crt_char_traits@_W@@SAJAAPB_W$$QAPAPA_W$$QAH@Z 10025dee f i libucrt:output.obj
 0001:00024e13       ??$tcstol@PBDPAPADH@?$__crt_char_traits@D@@SAJ$$QAPBD$$QAPAPAD$$QAH@Z 10025e13 f i libucrt:output.obj
 0001:00024e38       ??$tcstol@PB_WPAPA_WH@?$__crt_char_traits@_W@@SAJ$$QAPB_W$$QAPAPA_W$$QAH@Z 10025e38 f i libucrt:output.obj
 0001:00024e5d       ??$type_case_integer_parse_into_buffer@I@?$output_processor@DV?$stream_output_adapter@D@__crt_stdio_output@@V?$format_validation_base@DV?$stream_output_adapter@D@__crt_stdio_output@@@2@@__crt_stdio_output@@AAEXII_N@Z 10025e5d f i libucrt:output.obj
 0001:00024eef       ??$type_case_integer_parse_into_buffer@I@?$output_processor@DV?$stream_output_adapter@D@__crt_stdio_output@@V?$positional_parameter_base@DV?$stream_output_adapter@D@__crt_stdio_output@@@2@@__crt_stdio_output@@AAEXII_N@Z 10025eef f i libucrt:output.obj
 0001:00024f81       ??$type_case_integer_parse_into_buffer@I@?$output_processor@DV?$stream_output_adapter@D@__crt_stdio_output@@V?$standard_base@DV?$stream_output_adapter@D@__crt_stdio_output@@@2@@__crt_stdio_output@@AAEXII_N@Z 10025f81 f i libucrt:output.obj
 0001:00025013       ??$type_case_integer_parse_into_buffer@I@?$output_processor@DV?$string_output_adapter@D@__crt_stdio_output@@V?$format_validation_base@DV?$string_output_adapter@D@__crt_stdio_output@@@2@@__crt_stdio_output@@AAEXII_N@Z 10026013 f i libucrt:output.obj
 0001:000250a5       ??$type_case_integer_parse_into_buffer@I@?$output_processor@DV?$string_output_adapter@D@__crt_stdio_output@@V?$positional_parameter_base@DV?$string_output_adapter@D@__crt_stdio_output@@@2@@__crt_stdio_output@@AAEXII_N@Z 100260a5 f i libucrt:output.obj
 0001:00025137       ??$type_case_integer_parse_into_buffer@I@?$output_processor@DV?$string_output_adapter@D@__crt_stdio_output@@V?$standard_base@DV?$string_output_adapter@D@__crt_stdio_output@@@2@@__crt_stdio_output@@AAEXII_N@Z 10026137 f i libucrt:output.obj
 0001:000251c9       ??$type_case_integer_parse_into_buffer@I@?$output_processor@_WV?$stream_output_adapter@_W@__crt_stdio_output@@V?$format_validation_base@_WV?$stream_output_adapter@_W@__crt_stdio_output@@@2@@__crt_stdio_output@@AAEXII_N@Z 100261c9 f i libucrt:output.obj
 0001:0002525b       ??$type_case_integer_parse_into_buffer@I@?$output_processor@_WV?$stream_output_adapter@_W@__crt_stdio_output@@V?$positional_parameter_base@_WV?$stream_output_adapter@_W@__crt_stdio_output@@@2@@__crt_stdio_output@@AAEXII_N@Z 1002625b f i libucrt:output.obj
 0001:000252ed       ??$type_case_integer_parse_into_buffer@I@?$output_processor@_WV?$stream_output_adapter@_W@__crt_stdio_output@@V?$standard_base@_WV?$stream_output_adapter@_W@__crt_stdio_output@@@2@@__crt_stdio_output@@AAEXII_N@Z 100262ed f i libucrt:output.obj
 0001:0002537f       ??$type_case_integer_parse_into_buffer@I@?$output_processor@_WV?$string_output_adapter@_W@__crt_stdio_output@@V?$format_validation_base@_WV?$string_output_adapter@_W@__crt_stdio_output@@@2@@__crt_stdio_output@@AAEXII_N@Z 1002637f f i libucrt:output.obj
 0001:00025411       ??$type_case_integer_parse_into_buffer@I@?$output_processor@_WV?$string_output_adapter@_W@__crt_stdio_output@@V?$positional_parameter_base@_WV?$string_output_adapter@_W@__crt_stdio_output@@@2@@__crt_stdio_output@@AAEXII_N@Z 10026411 f i libucrt:output.obj
 0001:000254a3       ??$type_case_integer_parse_into_buffer@I@?$output_processor@_WV?$string_output_adapter@_W@__crt_stdio_output@@V?$standard_base@_WV?$string_output_adapter@_W@__crt_stdio_output@@@2@@__crt_stdio_output@@AAEXII_N@Z 100264a3 f i libucrt:output.obj
 0001:00025535       ??$type_case_integer_parse_into_buffer@_K@?$output_processor@DV?$stream_output_adapter@D@__crt_stdio_output@@V?$format_validation_base@DV?$stream_output_adapter@D@__crt_stdio_output@@@2@@__crt_stdio_output@@AAEX_KI_N@Z 10026535 f i libucrt:output.obj
 0001:000255df       ??$type_case_integer_parse_into_buffer@_K@?$output_processor@DV?$stream_output_adapter@D@__crt_stdio_output@@V?$positional_parameter_base@DV?$stream_output_adapter@D@__crt_stdio_output@@@2@@__crt_stdio_output@@AAEX_KI_N@Z 100265df f i libucrt:output.obj
 0001:00025689       ??$type_case_integer_parse_into_buffer@_K@?$output_processor@DV?$stream_output_adapter@D@__crt_stdio_output@@V?$standard_base@DV?$stream_output_adapter@D@__crt_stdio_output@@@2@@__crt_stdio_output@@AAEX_KI_N@Z 10026689 f i libucrt:output.obj
 0001:00025733       ??$type_case_integer_parse_into_buffer@_K@?$output_processor@DV?$string_output_adapter@D@__crt_stdio_output@@V?$format_validation_base@DV?$string_output_adapter@D@__crt_stdio_output@@@2@@__crt_stdio_output@@AAEX_KI_N@Z 10026733 f i libucrt:output.obj
 0001:000257dd       ??$type_case_integer_parse_into_buffer@_K@?$output_processor@DV?$string_output_adapter@D@__crt_stdio_output@@V?$positional_parameter_base@DV?$string_output_adapter@D@__crt_stdio_output@@@2@@__crt_stdio_output@@AAEX_KI_N@Z 100267dd f i libucrt:output.obj
 0001:00025887       ??$type_case_integer_parse_into_buffer@_K@?$output_processor@DV?$string_output_adapter@D@__crt_stdio_output@@V?$standard_base@DV?$string_output_adapter@D@__crt_stdio_output@@@2@@__crt_stdio_output@@AAEX_KI_N@Z 10026887 f i libucrt:output.obj
 0001:00025931       ??$type_case_integer_parse_into_buffer@_K@?$output_processor@_WV?$stream_output_adapter@_W@__crt_stdio_output@@V?$format_validation_base@_WV?$stream_output_adapter@_W@__crt_stdio_output@@@2@@__crt_stdio_output@@AAEX_KI_N@Z 10026931 f i libucrt:output.obj
 0001:000259db       ??$type_case_integer_parse_into_buffer@_K@?$output_processor@_WV?$stream_output_adapter@_W@__crt_stdio_output@@V?$positional_parameter_base@_WV?$stream_output_adapter@_W@__crt_stdio_output@@@2@@__crt_stdio_output@@AAEX_KI_N@Z 100269db f i libucrt:output.obj
 0001:00025a85       ??$type_case_integer_parse_into_buffer@_K@?$output_processor@_WV?$stream_output_adapter@_W@__crt_stdio_output@@V?$standard_base@_WV?$stream_output_adapter@_W@__crt_stdio_output@@@2@@__crt_stdio_output@@AAEX_KI_N@Z 10026a85 f i libucrt:output.obj
 0001:00025b2f       ??$type_case_integer_parse_into_buffer@_K@?$output_processor@_WV?$string_output_adapter@_W@__crt_stdio_output@@V?$format_validation_base@_WV?$string_output_adapter@_W@__crt_stdio_output@@@2@@__crt_stdio_output@@AAEX_KI_N@Z 10026b2f f i libucrt:output.obj
 0001:00025bd9       ??$type_case_integer_parse_into_buffer@_K@?$output_processor@_WV?$string_output_adapter@_W@__crt_stdio_output@@V?$positional_parameter_base@_WV?$string_output_adapter@_W@__crt_stdio_output@@@2@@__crt_stdio_output@@AAEX_KI_N@Z 10026bd9 f i libucrt:output.obj
 0001:00025c83       ??$type_case_integer_parse_into_buffer@_K@?$output_processor@_WV?$string_output_adapter@_W@__crt_stdio_output@@V?$standard_base@_WV?$string_output_adapter@_W@__crt_stdio_output@@@2@@__crt_stdio_output@@AAEX_KI_N@Z 10026c83 f i libucrt:output.obj
 0001:00025d2d       ??$write_multiple_characters@V?$stream_output_adapter@D@__crt_stdio_output@@D@__crt_stdio_output@@YAXABV?$stream_output_adapter@D@0@DHQAH@Z 10026d2d f i libucrt:output.obj
 0001:00025d64       ??$write_multiple_characters@V?$stream_output_adapter@_W@__crt_stdio_output@@D@__crt_stdio_output@@YAXABV?$stream_output_adapter@_W@0@DHQAH@Z 10026d64 f i libucrt:output.obj
 0001:00025da1       ??$write_multiple_characters@V?$string_output_adapter@D@__crt_stdio_output@@D@__crt_stdio_output@@YAXABV?$string_output_adapter@D@0@DHQAH@Z 10026da1 f i libucrt:output.obj
 0001:00025dd8       ??$write_multiple_characters@V?$string_output_adapter@_W@__crt_stdio_output@@D@__crt_stdio_output@@YAXABV?$string_output_adapter@_W@0@DHQAH@Z 10026dd8 f i libucrt:output.obj
 0001:00026049       ??0?$common_data@D@__crt_stdio_output@@IAE@XZ 10027049 f i libucrt:output.obj
 0001:000260a1       ??0?$common_data@_W@__crt_stdio_output@@IAE@XZ 100270a1 f i libucrt:output.obj
 0001:00026100       ??0?$output_adapter_data@DV?$stream_output_adapter@D@__crt_stdio_output@@@__crt_stdio_output@@IAE@ABV?$stream_output_adapter@D@1@_KQBDQAU__crt_locale_pointers@@QAD@Z 10027100 f i libucrt:output.obj
 0001:0002614b       ??0?$output_adapter_data@DV?$string_output_adapter@D@__crt_stdio_output@@@__crt_stdio_output@@IAE@ABV?$string_output_adapter@D@1@_KQBDQAU__crt_locale_pointers@@QAD@Z 1002714b f i libucrt:output.obj
 0001:00026196       ??0?$output_adapter_data@_WV?$stream_output_adapter@_W@__crt_stdio_output@@@__crt_stdio_output@@IAE@ABV?$stream_output_adapter@_W@1@_KQB_WQAU__crt_locale_pointers@@QAD@Z 10027196 f i libucrt:output.obj
 0001:000261e1       ??0?$output_adapter_data@_WV?$string_output_adapter@_W@__crt_stdio_output@@@__crt_stdio_output@@IAE@ABV?$string_output_adapter@_W@1@_KQB_WQAU__crt_locale_pointers@@QAD@Z 100271e1 f i libucrt:output.obj
 0001:0002622c       ??0?$output_processor@DV?$stream_output_adapter@D@__crt_stdio_output@@V?$format_validation_base@DV?$stream_output_adapter@D@__crt_stdio_output@@@2@@__crt_stdio_output@@QAE@ABV?$stream_output_adapter@D@1@_KQBDQAU__crt_locale_pointers@@QAD@Z 1002722c f i libucrt:output.obj
 0001:0002626e       ??0?$output_processor@DV?$stream_output_adapter@D@__crt_stdio_output@@V?$positional_parameter_base@DV?$stream_output_adapter@D@__crt_stdio_output@@@2@@__crt_stdio_output@@QAE@ABV?$stream_output_adapter@D@1@_KQBDQAU__crt_locale_pointers@@QAD@Z 1002726e f i libucrt:output.obj
 0001:000262a8       ??0?$output_processor@DV?$stream_output_adapter@D@__crt_stdio_output@@V?$standard_base@DV?$stream_output_adapter@D@__crt_stdio_output@@@2@@__crt_stdio_output@@QAE@ABV?$stream_output_adapter@D@1@_KQBDQAU__crt_locale_pointers@@QAD@Z 100272a8 f i libucrt:output.obj
 0001:000262ea       ??0?$output_processor@DV?$string_output_adapter@D@__crt_stdio_output@@V?$format_validation_base@DV?$string_output_adapter@D@__crt_stdio_output@@@2@@__crt_stdio_output@@QAE@ABV?$string_output_adapter@D@1@_KQBDQAU__crt_locale_pointers@@QAD@Z 100272ea f i libucrt:output.obj
 0001:0002632c       ??0?$output_processor@DV?$string_output_adapter@D@__crt_stdio_output@@V?$positional_parameter_base@DV?$string_output_adapter@D@__crt_stdio_output@@@2@@__crt_stdio_output@@QAE@ABV?$string_output_adapter@D@1@_KQBDQAU__crt_locale_pointers@@QAD@Z 1002732c f i libucrt:output.obj
 0001:00026366       ??0?$output_processor@DV?$string_output_adapter@D@__crt_stdio_output@@V?$standard_base@DV?$string_output_adapter@D@__crt_stdio_output@@@2@@__crt_stdio_output@@QAE@ABV?$string_output_adapter@D@1@_KQBDQAU__crt_locale_pointers@@QAD@Z 10027366 f i libucrt:output.obj
 0001:000263a8       ??0?$output_processor@_WV?$stream_output_adapter@_W@__crt_stdio_output@@V?$format_validation_base@_WV?$stream_output_adapter@_W@__crt_stdio_output@@@2@@__crt_stdio_output@@QAE@ABV?$stream_output_adapter@_W@1@_KQB_WQAU__crt_locale_pointers@@QAD@Z 100273a8 f i libucrt:output.obj
 0001:000263ea       ??0?$output_processor@_WV?$stream_output_adapter@_W@__crt_stdio_output@@V?$positional_parameter_base@_WV?$stream_output_adapter@_W@__crt_stdio_output@@@2@@__crt_stdio_output@@QAE@ABV?$stream_output_adapter@_W@1@_KQB_WQAU__crt_locale_pointers@@QAD@Z 100273ea f i libucrt:output.obj
 0001:00026424       ??0?$output_processor@_WV?$stream_output_adapter@_W@__crt_stdio_output@@V?$standard_base@_WV?$stream_output_adapter@_W@__crt_stdio_output@@@2@@__crt_stdio_output@@QAE@ABV?$stream_output_adapter@_W@1@_KQB_WQAU__crt_locale_pointers@@QAD@Z 10027424 f i libucrt:output.obj
 0001:00026466       ??0?$output_processor@_WV?$string_output_adapter@_W@__crt_stdio_output@@V?$format_validation_base@_WV?$string_output_adapter@_W@__crt_stdio_output@@@2@@__crt_stdio_output@@QAE@ABV?$string_output_adapter@_W@1@_KQB_WQAU__crt_locale_pointers@@QAD@Z 10027466 f i libucrt:output.obj
 0001:000264a8       ??0?$output_processor@_WV?$string_output_adapter@_W@__crt_stdio_output@@V?$positional_parameter_base@_WV?$string_output_adapter@_W@__crt_stdio_output@@@2@@__crt_stdio_output@@QAE@ABV?$string_output_adapter@_W@1@_KQB_WQAU__crt_locale_pointers@@QAD@Z 100274a8 f i libucrt:output.obj
 0001:000264e2       ??0?$output_processor@_WV?$string_output_adapter@_W@__crt_stdio_output@@V?$standard_base@_WV?$string_output_adapter@_W@__crt_stdio_output@@@2@@__crt_stdio_output@@QAE@ABV?$string_output_adapter@_W@1@_KQB_WQAU__crt_locale_pointers@@QAD@Z 100274e2 f i libucrt:output.obj
 0001:00026524       ??0?$stream_output_adapter@D@__crt_stdio_output@@QAE@QAU_iobuf@@@Z 10027524 f i libucrt:output.obj
 0001:00026538       ??0?$stream_output_adapter@_W@__crt_stdio_output@@QAE@QAU_iobuf@@@Z 10027538 f i libucrt:output.obj
 0001:0002654c       ??0?$string_output_adapter@D@__crt_stdio_output@@QAE@QAU?$string_output_adapter_context@D@1@@Z 1002754c f i libucrt:output.obj
 0001:00026560       ??0?$string_output_adapter@_W@__crt_stdio_output@@QAE@QAU?$string_output_adapter_context@_W@1@@Z 10027560 f i libucrt:output.obj
 0001:00026574       ??0_LocaleUpdate@@QAE@QAU__crt_locale_pointers@@@Z 10027574 f i libucrt:output.obj
 0001:00026617       ??0__acrt_stdio_temporary_buffering_guard@@QAE@QAU_iobuf@@@Z 10027617 f i libucrt:output.obj
 0001:0002663c       ??0__crt_errno_guard@@QAE@QAH@Z 1002763c f i libucrt:output.obj
 0001:0002665a       ??0formatting_buffer@__crt_stdio_output@@QAE@XZ 1002765a f i libucrt:output.obj
 0001:0002666f       ??1?$common_data@D@__crt_stdio_output@@QAE@XZ 1002766f f i libucrt:output.obj
 0001:00026679       ??1?$common_data@_W@__crt_stdio_output@@QAE@XZ 10027679 f i libucrt:output.obj
 0001:00026683       ??1?$format_validation_base@DV?$stream_output_adapter@D@__crt_stdio_output@@@__crt_stdio_output@@QAE@XZ 10027683 f i libucrt:output.obj
 0001:0002668d       ??1?$format_validation_base@DV?$string_output_adapter@D@__crt_stdio_output@@@__crt_stdio_output@@QAE@XZ 1002768d f i libucrt:output.obj
 0001:00026697       ??1?$format_validation_base@_WV?$stream_output_adapter@_W@__crt_stdio_output@@@__crt_stdio_output@@QAE@XZ 10027697 f i libucrt:output.obj
 0001:000266a1       ??1?$format_validation_base@_WV?$string_output_adapter@_W@__crt_stdio_output@@@__crt_stdio_output@@QAE@XZ 100276a1 f i libucrt:output.obj
 0001:000266ab       ??1?$output_adapter_data@DV?$stream_output_adapter@D@__crt_stdio_output@@@__crt_stdio_output@@QAE@XZ 100276ab f i libucrt:output.obj
 0001:000266b5       ??1?$output_adapter_data@DV?$string_output_adapter@D@__crt_stdio_output@@@__crt_stdio_output@@QAE@XZ 100276b5 f i libucrt:output.obj
 0001:000266bf       ??1?$output_adapter_data@_WV?$stream_output_adapter@_W@__crt_stdio_output@@@__crt_stdio_output@@QAE@XZ 100276bf f i libucrt:output.obj
 0001:000266c9       ??1?$output_adapter_data@_WV?$string_output_adapter@_W@__crt_stdio_output@@@__crt_stdio_output@@QAE@XZ 100276c9 f i libucrt:output.obj
 0001:000266d3       ??1?$output_processor@DV?$stream_output_adapter@D@__crt_stdio_output@@V?$format_validation_base@DV?$stream_output_adapter@D@__crt_stdio_output@@@2@@__crt_stdio_output@@QAE@XZ 100276d3 f i libucrt:output.obj
 0001:000266dd       ??1?$output_processor@DV?$stream_output_adapter@D@__crt_stdio_output@@V?$positional_parameter_base@DV?$stream_output_adapter@D@__crt_stdio_output@@@2@@__crt_stdio_output@@QAE@XZ 100276dd f i libucrt:output.obj
 0001:000266e7       ??1?$output_processor@DV?$stream_output_adapter@D@__crt_stdio_output@@V?$standard_base@DV?$stream_output_adapter@D@__crt_stdio_output@@@2@@__crt_stdio_output@@QAE@XZ 100276e7 f i libucrt:output.obj
 0001:000266f1       ??1?$output_processor@DV?$string_output_adapter@D@__crt_stdio_output@@V?$format_validation_base@DV?$string_output_adapter@D@__crt_stdio_output@@@2@@__crt_stdio_output@@QAE@XZ 100276f1 f i libucrt:output.obj
 0001:000266fb       ??1?$output_processor@DV?$string_output_adapter@D@__crt_stdio_output@@V?$positional_parameter_base@DV?$string_output_adapter@D@__crt_stdio_output@@@2@@__crt_stdio_output@@QAE@XZ 100276fb f i libucrt:output.obj
 0001:00026705       ??1?$output_processor@DV?$string_output_adapter@D@__crt_stdio_output@@V?$standard_base@DV?$string_output_adapter@D@__crt_stdio_output@@@2@@__crt_stdio_output@@QAE@XZ 10027705 f i libucrt:output.obj
 0001:0002670f       ??1?$output_processor@_WV?$stream_output_adapter@_W@__crt_stdio_output@@V?$format_validation_base@_WV?$stream_output_adapter@_W@__crt_stdio_output@@@2@@__crt_stdio_output@@QAE@XZ 1002770f f i libucrt:output.obj
 0001:00026719       ??1?$output_processor@_WV?$stream_output_adapter@_W@__crt_stdio_output@@V?$positional_parameter_base@_WV?$stream_output_adapter@_W@__crt_stdio_output@@@2@@__crt_stdio_output@@QAE@XZ 10027719 f i libucrt:output.obj
 0001:00026723       ??1?$output_processor@_WV?$stream_output_adapter@_W@__crt_stdio_output@@V?$standard_base@_WV?$stream_output_adapter@_W@__crt_stdio_output@@@2@@__crt_stdio_output@@QAE@XZ 10027723 f i libucrt:output.obj
 0001:0002672d       ??1?$output_processor@_WV?$string_output_adapter@_W@__crt_stdio_output@@V?$format_validation_base@_WV?$string_output_adapter@_W@__crt_stdio_output@@@2@@__crt_stdio_output@@QAE@XZ 1002772d f i libucrt:output.obj
 0001:00026737       ??1?$output_processor@_WV?$string_output_adapter@_W@__crt_stdio_output@@V?$positional_parameter_base@_WV?$string_output_adapter@_W@__crt_stdio_output@@@2@@__crt_stdio_output@@QAE@XZ 10027737 f i libucrt:output.obj
 0001:00026741       ??1?$output_processor@_WV?$string_output_adapter@_W@__crt_stdio_output@@V?$standard_base@_WV?$string_output_adapter@_W@__crt_stdio_output@@@2@@__crt_stdio_output@@QAE@XZ 10027741 f i libucrt:output.obj
 0001:0002674b       ??1?$positional_parameter_base@DV?$stream_output_adapter@D@__crt_stdio_output@@@__crt_stdio_output@@QAE@XZ 1002774b f i libucrt:output.obj
 0001:00026755       ??1?$positional_parameter_base@DV?$string_output_adapter@D@__crt_stdio_output@@@__crt_stdio_output@@QAE@XZ 10027755 f i libucrt:output.obj
 0001:0002675f       ??1?$positional_parameter_base@_WV?$stream_output_adapter@_W@__crt_stdio_output@@@__crt_stdio_output@@QAE@XZ 1002775f f i libucrt:output.obj
 0001:00026769       ??1?$positional_parameter_base@_WV?$string_output_adapter@_W@__crt_stdio_output@@@__crt_stdio_output@@QAE@XZ 10027769 f i libucrt:output.obj
 0001:00026773       ??1?$standard_base@DV?$stream_output_adapter@D@__crt_stdio_output@@@__crt_stdio_output@@QAE@XZ 10027773 f i libucrt:output.obj
 0001:0002677d       ??1?$standard_base@DV?$string_output_adapter@D@__crt_stdio_output@@@__crt_stdio_output@@QAE@XZ 1002777d f i libucrt:output.obj
 0001:00026787       ??1?$standard_base@_WV?$stream_output_adapter@_W@__crt_stdio_output@@@__crt_stdio_output@@QAE@XZ 10027787 f i libucrt:output.obj
 0001:00026791       ??1?$standard_base@_WV?$string_output_adapter@_W@__crt_stdio_output@@@__crt_stdio_output@@QAE@XZ 10027791 f i libucrt:output.obj
 0001:0002679b       ??1_LocaleUpdate@@QAE@XZ   1002779b f i libucrt:output.obj
 0001:000267af       ??1__acrt_stdio_temporary_buffering_guard@@QAE@XZ 100277af f i libucrt:output.obj
 0001:000267c1       ??1__crt_errno_guard@@QAE@XZ 100277c1 f i libucrt:output.obj
 0001:000267d6       ??1formatting_buffer@__crt_stdio_output@@QAE@XZ 100277d6 f i libucrt:output.obj
 0001:000267f6       ??4?$__crt_unique_heap_ptr@DU__crt_internal_free_policy@@@@QAEAAV0@$$QAV0@@Z 100277f6 f i libucrt:output.obj
 0001:00026ed9       ?GetLocaleT@_LocaleUpdate@@QAEPAU__crt_locale_pointers@@XZ 10027ed9 f i libucrt:output.obj
 0001:00026edd       ?__crt_interlocked_read_32@@YAHPDH@Z 10027edd f i libucrt:output.obj
 0001:00026eec       ?adjust_hexit@?$output_processor@DV?$stream_output_adapter@D@__crt_stdio_output@@V?$format_validation_base@DV?$stream_output_adapter@D@__crt_stdio_output@@@2@@__crt_stdio_output@@CADH_N@Z 10027eec f i libucrt:output.obj
 0001:00026f11       ?adjust_hexit@?$output_processor@DV?$stream_output_adapter@D@__crt_stdio_output@@V?$positional_parameter_base@DV?$stream_output_adapter@D@__crt_stdio_output@@@2@@__crt_stdio_output@@CADH_N@Z 10027f11 f i libucrt:output.obj
 0001:00026f36       ?adjust_hexit@?$output_processor@DV?$stream_output_adapter@D@__crt_stdio_output@@V?$standard_base@DV?$stream_output_adapter@D@__crt_stdio_output@@@2@@__crt_stdio_output@@CADH_N@Z 10027f36 f i libucrt:output.obj
 0001:00026f5b       ?adjust_hexit@?$output_processor@DV?$string_output_adapter@D@__crt_stdio_output@@V?$format_validation_base@DV?$string_output_adapter@D@__crt_stdio_output@@@2@@__crt_stdio_output@@CADH_N@Z 10027f5b f i libucrt:output.obj
 0001:00026f80       ?adjust_hexit@?$output_processor@DV?$string_output_adapter@D@__crt_stdio_output@@V?$positional_parameter_base@DV?$string_output_adapter@D@__crt_stdio_output@@@2@@__crt_stdio_output@@CADH_N@Z 10027f80 f i libucrt:output.obj
 0001:00026fa5       ?adjust_hexit@?$output_processor@DV?$string_output_adapter@D@__crt_stdio_output@@V?$standard_base@DV?$string_output_adapter@D@__crt_stdio_output@@@2@@__crt_stdio_output@@CADH_N@Z 10027fa5 f i libucrt:output.obj
 0001:00026fca       ?adjust_hexit@?$output_processor@_WV?$stream_output_adapter@_W@__crt_stdio_output@@V?$format_validation_base@_WV?$stream_output_adapter@_W@__crt_stdio_output@@@2@@__crt_stdio_output@@CADH_N@Z 10027fca f i libucrt:output.obj
 0001:00026fef       ?adjust_hexit@?$output_processor@_WV?$stream_output_adapter@_W@__crt_stdio_output@@V?$positional_parameter_base@_WV?$stream_output_adapter@_W@__crt_stdio_output@@@2@@__crt_stdio_output@@CADH_N@Z 10027fef f i libucrt:output.obj
 0001:00027014       ?adjust_hexit@?$output_processor@_WV?$stream_output_adapter@_W@__crt_stdio_output@@V?$standard_base@_WV?$stream_output_adapter@_W@__crt_stdio_output@@@2@@__crt_stdio_output@@CADH_N@Z 10028014 f i libucrt:output.obj
 0001:00027039       ?adjust_hexit@?$output_processor@_WV?$string_output_adapter@_W@__crt_stdio_output@@V?$format_validation_base@_WV?$string_output_adapter@_W@__crt_stdio_output@@@2@@__crt_stdio_output@@CADH_N@Z 10028039 f i libucrt:output.obj
 0001:0002705e       ?adjust_hexit@?$output_processor@_WV?$string_output_adapter@_W@__crt_stdio_output@@V?$positional_parameter_base@_WV?$string_output_adapter@_W@__crt_stdio_output@@@2@@__crt_stdio_output@@CADH_N@Z 1002805e f i libucrt:output.obj
 0001:00027083       ?adjust_hexit@?$output_processor@_WV?$string_output_adapter@_W@__crt_stdio_output@@V?$standard_base@_WV?$string_output_adapter@_W@__crt_stdio_output@@@2@@__crt_stdio_output@@CADH_N@Z 10028083 f i libucrt:output.obj
 0001:000270a8       ?advance_to_next_pass@?$positional_parameter_base@DV?$stream_output_adapter@D@__crt_stdio_output@@@__crt_stdio_output@@IAE_NXZ 100280a8 f i libucrt:output.obj
 0001:00027107       ?advance_to_next_pass@?$positional_parameter_base@DV?$string_output_adapter@D@__crt_stdio_output@@@__crt_stdio_output@@IAE_NXZ 10028107 f i libucrt:output.obj
 0001:00027166       ?advance_to_next_pass@?$positional_parameter_base@_WV?$stream_output_adapter@_W@__crt_stdio_output@@@__crt_stdio_output@@IAE_NXZ 10028166 f i libucrt:output.obj
 0001:000271c5       ?advance_to_next_pass@?$positional_parameter_base@_WV?$string_output_adapter@_W@__crt_stdio_output@@@__crt_stdio_output@@IAE_NXZ 100281c5 f i libucrt:output.obj
 0001:00027224       ?advance_to_next_pass@?$standard_base@DV?$stream_output_adapter@D@__crt_stdio_output@@@__crt_stdio_output@@IAE_NXZ 10028224 f i libucrt:output.obj
 0001:0002723b       ?advance_to_next_pass@?$standard_base@DV?$string_output_adapter@D@__crt_stdio_output@@@__crt_stdio_output@@IAE_NXZ 1002823b f i libucrt:output.obj
 0001:00027252       ?advance_to_next_pass@?$standard_base@_WV?$stream_output_adapter@_W@__crt_stdio_output@@@__crt_stdio_output@@IAE_NXZ 10028252 f i libucrt:output.obj
 0001:00027269       ?advance_to_next_pass@?$standard_base@_WV?$string_output_adapter@_W@__crt_stdio_output@@@__crt_stdio_output@@IAE_NXZ 10028269 f i libucrt:output.obj
 0001:00027280       ?crop_zeroes@__crt_stdio_output@@YAXPADQAU__crt_locale_pointers@@@Z 10028280 f i libucrt:output.obj
 0001:000272ec       ?find_next_state@?$output_processor@DV?$stream_output_adapter@D@__crt_stdio_output@@V?$format_validation_base@DV?$stream_output_adapter@D@__crt_stdio_output@@@2@@__crt_stdio_output@@ABE?AW4state@2@DW432@@Z 100282ec f i libucrt:output.obj
 0001:0002732e       ?find_next_state@?$output_processor@DV?$stream_output_adapter@D@__crt_stdio_output@@V?$positional_parameter_base@DV?$stream_output_adapter@D@__crt_stdio_output@@@2@@__crt_stdio_output@@ABE?AW4state@2@DW432@@Z 1002832e f i libucrt:output.obj
 0001:00027370       ?find_next_state@?$output_processor@DV?$stream_output_adapter@D@__crt_stdio_output@@V?$standard_base@DV?$stream_output_adapter@D@__crt_stdio_output@@@2@@__crt_stdio_output@@ABE?AW4state@2@DW432@@Z 10028370 f i libucrt:output.obj
 0001:000273ae       ?find_next_state@?$output_processor@DV?$string_output_adapter@D@__crt_stdio_output@@V?$format_validation_base@DV?$string_output_adapter@D@__crt_stdio_output@@@2@@__crt_stdio_output@@ABE?AW4state@2@DW432@@Z 100283ae f i libucrt:output.obj
 0001:000273f0       ?find_next_state@?$output_processor@DV?$string_output_adapter@D@__crt_stdio_output@@V?$positional_parameter_base@DV?$string_output_adapter@D@__crt_stdio_output@@@2@@__crt_stdio_output@@ABE?AW4state@2@DW432@@Z 100283f0 f i libucrt:output.obj
 0001:00027432       ?find_next_state@?$output_processor@DV?$string_output_adapter@D@__crt_stdio_output@@V?$standard_base@DV?$string_output_adapter@D@__crt_stdio_output@@@2@@__crt_stdio_output@@ABE?AW4state@2@DW432@@Z 10028432 f i libucrt:output.obj
 0001:00027470       ?find_next_state@?$output_processor@_WV?$stream_output_adapter@_W@__crt_stdio_output@@V?$format_validation_base@_WV?$stream_output_adapter@_W@__crt_stdio_output@@@2@@__crt_stdio_output@@ABE?AW4state@2@_WW432@@Z 10028470 f i libucrt:output.obj
 0001:000274b4       ?find_next_state@?$output_processor@_WV?$stream_output_adapter@_W@__crt_stdio_output@@V?$positional_parameter_base@_WV?$stream_output_adapter@_W@__crt_stdio_output@@@2@@__crt_stdio_output@@ABE?AW4state@2@_WW432@@Z 100284b4 f i libucrt:output.obj
 0001:000274f8       ?find_next_state@?$output_processor@_WV?$stream_output_adapter@_W@__crt_stdio_output@@V?$standard_base@_WV?$stream_output_adapter@_W@__crt_stdio_output@@@2@@__crt_stdio_output@@ABE?AW4state@2@_WW432@@Z 100284f8 f i libucrt:output.obj
 0001:00027539       ?find_next_state@?$output_processor@_WV?$string_output_adapter@_W@__crt_stdio_output@@V?$format_validation_base@_WV?$string_output_adapter@_W@__crt_stdio_output@@@2@@__crt_stdio_output@@ABE?AW4state@2@_WW432@@Z 10028539 f i libucrt:output.obj
 0001:0002757d       ?find_next_state@?$output_processor@_WV?$string_output_adapter@_W@__crt_stdio_output@@V?$positional_parameter_base@_WV?$string_output_adapter@_W@__crt_stdio_output@@@2@@__crt_stdio_output@@ABE?AW4state@2@_WW432@@Z 1002857d f i libucrt:output.obj
 0001:000275c1       ?find_next_state@?$output_processor@_WV?$string_output_adapter@_W@__crt_stdio_output@@V?$standard_base@_WV?$string_output_adapter@_W@__crt_stdio_output@@@2@@__crt_stdio_output@@ABE?AW4state@2@_WW432@@Z 100285c1 f i libucrt:output.obj
 0001:00027602       ?force_decimal_point@__crt_stdio_output@@YAXPADQAU__crt_locale_pointers@@@Z 10028602 f i libucrt:output.obj
 0001:00027675       ?get_flags@__crt_stdio_stream@@QBEJXZ 10028675 f i libucrt:output.obj
 0001:0002767b       ?get_parameter_type@?$positional_parameter_base@DV?$stream_output_adapter@D@__crt_stdio_output@@@__crt_stdio_output@@CA?AW4parameter_type@12@F@Z 1002867b f i libucrt:output.obj
 0001:0002767f       ?get_parameter_type@?$positional_parameter_base@DV?$stream_output_adapter@D@__crt_stdio_output@@@__crt_stdio_output@@CA?AW4parameter_type@12@G@Z 1002867f f i libucrt:output.obj
 0001:00027683       ?get_parameter_type@?$positional_parameter_base@DV?$stream_output_adapter@D@__crt_stdio_output@@@__crt_stdio_output@@CA?AW4parameter_type@12@H@Z 10028683 f i libucrt:output.obj
 0001:00027687       ?get_parameter_type@?$positional_parameter_base@DV?$stream_output_adapter@D@__crt_stdio_output@@@__crt_stdio_output@@CA?AW4parameter_type@12@I@Z 10028687 f i libucrt:output.obj
 0001:0002768b       ?get_parameter_type@?$positional_parameter_base@DV?$stream_output_adapter@D@__crt_stdio_output@@@__crt_stdio_output@@CA?AW4parameter_type@12@U_CRT_DOUBLE@@@Z 1002868b f i libucrt:output.obj
 0001:0002768f       ?get_parameter_type@?$positional_parameter_base@DV?$stream_output_adapter@D@__crt_stdio_output@@@__crt_stdio_output@@CA?AW4parameter_type@12@_J@Z 1002868f f i libucrt:output.obj
 0001:00027693       ?get_parameter_type@?$positional_parameter_base@DV?$stream_output_adapter@D@__crt_stdio_output@@@__crt_stdio_output@@CA?AW4parameter_type@12@_K@Z 10028693 f i libucrt:output.obj
 0001:00027697       ?get_parameter_type@?$positional_parameter_base@DV?$stream_output_adapter@D@__crt_stdio_output@@@__crt_stdio_output@@CA?AW4parameter_type@12@_W@Z 10028697 f i libucrt:output.obj
 0001:0002769b       ?get_parameter_type@?$positional_parameter_base@DV?$string_output_adapter@D@__crt_stdio_output@@@__crt_stdio_output@@CA?AW4parameter_type@12@F@Z 1002869b f i libucrt:output.obj
 0001:0002769f       ?get_parameter_type@?$positional_parameter_base@DV?$string_output_adapter@D@__crt_stdio_output@@@__crt_stdio_output@@CA?AW4parameter_type@12@G@Z 1002869f f i libucrt:output.obj
 0001:000276a3       ?get_parameter_type@?$positional_parameter_base@DV?$string_output_adapter@D@__crt_stdio_output@@@__crt_stdio_output@@CA?AW4parameter_type@12@H@Z 100286a3 f i libucrt:output.obj
 0001:000276a7       ?get_parameter_type@?$positional_parameter_base@DV?$string_output_adapter@D@__crt_stdio_output@@@__crt_stdio_output@@CA?AW4parameter_type@12@I@Z 100286a7 f i libucrt:output.obj
 0001:000276ab       ?get_parameter_type@?$positional_parameter_base@DV?$string_output_adapter@D@__crt_stdio_output@@@__crt_stdio_output@@CA?AW4parameter_type@12@U_CRT_DOUBLE@@@Z 100286ab f i libucrt:output.obj
 0001:000276af       ?get_parameter_type@?$positional_parameter_base@DV?$string_output_adapter@D@__crt_stdio_output@@@__crt_stdio_output@@CA?AW4parameter_type@12@_J@Z 100286af f i libucrt:output.obj
 0001:000276b3       ?get_parameter_type@?$positional_parameter_base@DV?$string_output_adapter@D@__crt_stdio_output@@@__crt_stdio_output@@CA?AW4parameter_type@12@_K@Z 100286b3 f i libucrt:output.obj
 0001:000276b7       ?get_parameter_type@?$positional_parameter_base@DV?$string_output_adapter@D@__crt_stdio_output@@@__crt_stdio_output@@CA?AW4parameter_type@12@_W@Z 100286b7 f i libucrt:output.obj
 0001:000276bb       ?get_parameter_type@?$positional_parameter_base@_WV?$stream_output_adapter@_W@__crt_stdio_output@@@__crt_stdio_output@@CA?AW4parameter_type@12@F@Z 100286bb f i libucrt:output.obj
 0001:000276bf       ?get_parameter_type@?$positional_parameter_base@_WV?$stream_output_adapter@_W@__crt_stdio_output@@@__crt_stdio_output@@CA?AW4parameter_type@12@G@Z 100286bf f i libucrt:output.obj
 0001:000276c3       ?get_parameter_type@?$positional_parameter_base@_WV?$stream_output_adapter@_W@__crt_stdio_output@@@__crt_stdio_output@@CA?AW4parameter_type@12@H@Z 100286c3 f i libucrt:output.obj
 0001:000276c7       ?get_parameter_type@?$positional_parameter_base@_WV?$stream_output_adapter@_W@__crt_stdio_output@@@__crt_stdio_output@@CA?AW4parameter_type@12@I@Z 100286c7 f i libucrt:output.obj
 0001:000276cb       ?get_parameter_type@?$positional_parameter_base@_WV?$stream_output_adapter@_W@__crt_stdio_output@@@__crt_stdio_output@@CA?AW4parameter_type@12@U_CRT_DOUBLE@@@Z 100286cb f i libucrt:output.obj
 0001:000276cf       ?get_parameter_type@?$positional_parameter_base@_WV?$stream_output_adapter@_W@__crt_stdio_output@@@__crt_stdio_output@@CA?AW4parameter_type@12@_J@Z 100286cf f i libucrt:output.obj
 0001:000276d3       ?get_parameter_type@?$positional_parameter_base@_WV?$stream_output_adapter@_W@__crt_stdio_output@@@__crt_stdio_output@@CA?AW4parameter_type@12@_K@Z 100286d3 f i libucrt:output.obj
 0001:000276d7       ?get_parameter_type@?$positional_parameter_base@_WV?$stream_output_adapter@_W@__crt_stdio_output@@@__crt_stdio_output@@CA?AW4parameter_type@12@_W@Z 100286d7 f i libucrt:output.obj
 0001:000276db       ?get_parameter_type@?$positional_parameter_base@_WV?$string_output_adapter@_W@__crt_stdio_output@@@__crt_stdio_output@@CA?AW4parameter_type@12@F@Z 100286db f i libucrt:output.obj
 0001:000276df       ?get_parameter_type@?$positional_parameter_base@_WV?$string_output_adapter@_W@__crt_stdio_output@@@__crt_stdio_output@@CA?AW4parameter_type@12@G@Z 100286df f i libucrt:output.obj
 0001:000276e3       ?get_parameter_type@?$positional_parameter_base@_WV?$string_output_adapter@_W@__crt_stdio_output@@@__crt_stdio_output@@CA?AW4parameter_type@12@H@Z 100286e3 f i libucrt:output.obj
 0001:000276e7       ?get_parameter_type@?$positional_parameter_base@_WV?$string_output_adapter@_W@__crt_stdio_output@@@__crt_stdio_output@@CA?AW4parameter_type@12@I@Z 100286e7 f i libucrt:output.obj
 0001:000276eb       ?get_parameter_type@?$positional_parameter_base@_WV?$string_output_adapter@_W@__crt_stdio_output@@@__crt_stdio_output@@CA?AW4parameter_type@12@U_CRT_DOUBLE@@@Z 100286eb f i libucrt:output.obj
 0001:000276ef       ?get_parameter_type@?$positional_parameter_base@_WV?$string_output_adapter@_W@__crt_stdio_output@@@__crt_stdio_output@@CA?AW4parameter_type@12@_J@Z 100286ef f i libucrt:output.obj
 0001:000276f3       ?get_parameter_type@?$positional_parameter_base@_WV?$string_output_adapter@_W@__crt_stdio_output@@@__crt_stdio_output@@CA?AW4parameter_type@12@_K@Z 100286f3 f i libucrt:output.obj
 0001:000276f7       ?get_parameter_type@?$positional_parameter_base@_WV?$string_output_adapter@_W@__crt_stdio_output@@@__crt_stdio_output@@CA?AW4parameter_type@12@_W@Z 100286f7 f i libucrt:output.obj
 0001:000276fb       ?has_flag@?$output_processor@DV?$stream_output_adapter@D@__crt_stdio_output@@V?$format_validation_base@DV?$stream_output_adapter@D@__crt_stdio_output@@@2@@__crt_stdio_output@@ABE_NI@Z 100286fb f i libucrt:output.obj
 0001:00027715       ?has_flag@?$output_processor@DV?$stream_output_adapter@D@__crt_stdio_output@@V?$positional_parameter_base@DV?$stream_output_adapter@D@__crt_stdio_output@@@2@@__crt_stdio_output@@ABE_NI@Z 10028715 f i libucrt:output.obj
 0001:0002772f       ?has_flag@?$output_processor@DV?$stream_output_adapter@D@__crt_stdio_output@@V?$standard_base@DV?$stream_output_adapter@D@__crt_stdio_output@@@2@@__crt_stdio_output@@ABE_NI@Z 1002872f f i libucrt:output.obj
 0001:00027749       ?has_flag@?$output_processor@DV?$string_output_adapter@D@__crt_stdio_output@@V?$format_validation_base@DV?$string_output_adapter@D@__crt_stdio_output@@@2@@__crt_stdio_output@@ABE_NI@Z 10028749 f i libucrt:output.obj
 0001:00027763       ?has_flag@?$output_processor@DV?$string_output_adapter@D@__crt_stdio_output@@V?$positional_parameter_base@DV?$string_output_adapter@D@__crt_stdio_output@@@2@@__crt_stdio_output@@ABE_NI@Z 10028763 f i libucrt:output.obj
 0001:0002777d       ?has_flag@?$output_processor@DV?$string_output_adapter@D@__crt_stdio_output@@V?$standard_base@DV?$string_output_adapter@D@__crt_stdio_output@@@2@@__crt_stdio_output@@ABE_NI@Z 1002877d f i libucrt:output.obj
 0001:00027797       ?has_flag@?$output_processor@_WV?$stream_output_adapter@_W@__crt_stdio_output@@V?$format_validation_base@_WV?$stream_output_adapter@_W@__crt_stdio_output@@@2@@__crt_stdio_output@@ABE_NI@Z 10028797 f i libucrt:output.obj
 0001:000277b1       ?has_flag@?$output_processor@_WV?$stream_output_adapter@_W@__crt_stdio_output@@V?$positional_parameter_base@_WV?$stream_output_adapter@_W@__crt_stdio_output@@@2@@__crt_stdio_output@@ABE_NI@Z 100287b1 f i libucrt:output.obj
 0001:000277cb       ?has_flag@?$output_processor@_WV?$stream_output_adapter@_W@__crt_stdio_output@@V?$standard_base@_WV?$stream_output_adapter@_W@__crt_stdio_output@@@2@@__crt_stdio_output@@ABE_NI@Z 100287cb f i libucrt:output.obj
 0001:000277e5       ?has_flag@?$output_processor@_WV?$string_output_adapter@_W@__crt_stdio_output@@V?$format_validation_base@_WV?$string_output_adapter@_W@__crt_stdio_output@@@2@@__crt_stdio_output@@ABE_NI@Z 100287e5 f i libucrt:output.obj
 0001:000277ff       ?has_flag@?$output_processor@_WV?$string_output_adapter@_W@__crt_stdio_output@@V?$positional_parameter_base@_WV?$string_output_adapter@_W@__crt_stdio_output@@@2@@__crt_stdio_output@@ABE_NI@Z 100287ff f i libucrt:output.obj
 0001:00027819       ?has_flag@?$output_processor@_WV?$string_output_adapter@_W@__crt_stdio_output@@V?$standard_base@_WV?$string_output_adapter@_W@__crt_stdio_output@@@2@@__crt_stdio_output@@ABE_NI@Z 10028819 f i libucrt:output.obj
 0001:00027833       ?is_positional_parameter_reappearance_consistent@?$positional_parameter_base@DV?$stream_output_adapter@D@__crt_stdio_output@@@__crt_stdio_output@@AAE_NABUparameter_data@12@W4parameter_type@12@DW4length_modifier@2@@Z 10028833 f i libucrt:output.obj
 0001:000279ac       ?is_positional_parameter_reappearance_consistent@?$positional_parameter_base@DV?$string_output_adapter@D@__crt_stdio_output@@@__crt_stdio_output@@AAE_NABUparameter_data@12@W4parameter_type@12@DW4length_modifier@2@@Z 100289ac f i libucrt:output.obj
 0001:00027b25       ?is_positional_parameter_reappearance_consistent@?$positional_parameter_base@_WV?$stream_output_adapter@_W@__crt_stdio_output@@@__crt_stdio_output@@AAE_NABUparameter_data@12@W4parameter_type@12@_WW4length_modifier@2@@Z 10028b25 f i libucrt:output.obj
 0001:00027c90       ?is_positional_parameter_reappearance_consistent@?$positional_parameter_base@_WV?$string_output_adapter@_W@__crt_stdio_output@@@__crt_stdio_output@@AAE_NABUparameter_data@12@W4parameter_type@12@_WW4length_modifier@2@@Z 10028c90 f i libucrt:output.obj
 0001:00027dfb       ?is_string_backed@__crt_stdio_stream@@QBE_NXZ 10028dfb f i libucrt:output.obj
 0001:00027e0a       ?narrow_null_string@?$output_processor@DV?$stream_output_adapter@D@__crt_stdio_output@@V?$format_validation_base@DV?$stream_output_adapter@D@__crt_stdio_output@@@2@@__crt_stdio_output@@CAPADXZ 10028e0a f i libucrt:output.obj
 0001:00027e10       ?narrow_null_string@?$output_processor@DV?$stream_output_adapter@D@__crt_stdio_output@@V?$positional_parameter_base@DV?$stream_output_adapter@D@__crt_stdio_output@@@2@@__crt_stdio_output@@CAPADXZ 10028e10 f i libucrt:output.obj
 0001:00027e16       ?narrow_null_string@?$output_processor@DV?$stream_output_adapter@D@__crt_stdio_output@@V?$standard_base@DV?$stream_output_adapter@D@__crt_stdio_output@@@2@@__crt_stdio_output@@CAPADXZ 10028e16 f i libucrt:output.obj
 0001:00027e1c       ?narrow_null_string@?$output_processor@DV?$string_output_adapter@D@__crt_stdio_output@@V?$format_validation_base@DV?$string_output_adapter@D@__crt_stdio_output@@@2@@__crt_stdio_output@@CAPADXZ 10028e1c f i libucrt:output.obj
 0001:00027e22       ?narrow_null_string@?$output_processor@DV?$string_output_adapter@D@__crt_stdio_output@@V?$positional_parameter_base@DV?$string_output_adapter@D@__crt_stdio_output@@@2@@__crt_stdio_output@@CAPADXZ 10028e22 f i libucrt:output.obj
 0001:00027e28       ?narrow_null_string@?$output_processor@DV?$string_output_adapter@D@__crt_stdio_output@@V?$standard_base@DV?$string_output_adapter@D@__crt_stdio_output@@@2@@__crt_stdio_output@@CAPADXZ 10028e28 f i libucrt:output.obj
 0001:00027e2e       ?narrow_null_string@?$output_processor@_WV?$stream_output_adapter@_W@__crt_stdio_output@@V?$format_validation_base@_WV?$stream_output_adapter@_W@__crt_stdio_output@@@2@@__crt_stdio_output@@CAPADXZ 10028e2e f i libucrt:output.obj
 0001:00027e34       ?narrow_null_string@?$output_processor@_WV?$stream_output_adapter@_W@__crt_stdio_output@@V?$positional_parameter_base@_WV?$stream_output_adapter@_W@__crt_stdio_output@@@2@@__crt_stdio_output@@CAPADXZ 10028e34 f i libucrt:output.obj
 0001:00027e3a       ?narrow_null_string@?$output_processor@_WV?$stream_output_adapter@_W@__crt_stdio_output@@V?$standard_base@_WV?$stream_output_adapter@_W@__crt_stdio_output@@@2@@__crt_stdio_output@@CAPADXZ 10028e3a f i libucrt:output.obj
 0001:00027e40       ?narrow_null_string@?$output_processor@_WV?$string_output_adapter@_W@__crt_stdio_output@@V?$format_validation_base@_WV?$string_output_adapter@_W@__crt_stdio_output@@@2@@__crt_stdio_output@@CAPADXZ 10028e40 f i libucrt:output.obj
 0001:00027e46       ?narrow_null_string@?$output_processor@_WV?$string_output_adapter@_W@__crt_stdio_output@@V?$positional_parameter_base@_WV?$string_output_adapter@_W@__crt_stdio_output@@@2@@__crt_stdio_output@@CAPADXZ 10028e46 f i libucrt:output.obj
 0001:00027e4c       ?narrow_null_string@?$output_processor@_WV?$string_output_adapter@_W@__crt_stdio_output@@V?$standard_base@_WV?$string_output_adapter@_W@__crt_stdio_output@@@2@@__crt_stdio_output@@CAPADXZ 10028e4c f i libucrt:output.obj
 0001:00027e52       ?parse_int_from_format_string@?$output_processor@DV?$stream_output_adapter@D@__crt_stdio_output@@V?$format_validation_base@DV?$stream_output_adapter@D@__crt_stdio_output@@@2@@__crt_stdio_output@@AAE_NQAH@Z 10028e52 f i libucrt:output.obj
 0001:00027ec5       ?parse_int_from_format_string@?$output_processor@DV?$stream_output_adapter@D@__crt_stdio_output@@V?$positional_parameter_base@DV?$stream_output_adapter@D@__crt_stdio_output@@@2@@__crt_stdio_output@@AAE_NQAH@Z 10028ec5 f i libucrt:output.obj
 0001:00027f38       ?parse_int_from_format_string@?$output_processor@DV?$stream_output_adapter@D@__crt_stdio_output@@V?$standard_base@DV?$stream_output_adapter@D@__crt_stdio_output@@@2@@__crt_stdio_output@@AAE_NQAH@Z 10028f38 f i libucrt:output.obj
 0001:00027fab       ?parse_int_from_format_string@?$output_processor@DV?$string_output_adapter@D@__crt_stdio_output@@V?$format_validation_base@DV?$string_output_adapter@D@__crt_stdio_output@@@2@@__crt_stdio_output@@AAE_NQAH@Z 10028fab f i libucrt:output.obj
 0001:0002801e       ?parse_int_from_format_string@?$output_processor@DV?$string_output_adapter@D@__crt_stdio_output@@V?$positional_parameter_base@DV?$string_output_adapter@D@__crt_stdio_output@@@2@@__crt_stdio_output@@AAE_NQAH@Z 1002901e f i libucrt:output.obj
 0001:00028091       ?parse_int_from_format_string@?$output_processor@DV?$string_output_adapter@D@__crt_stdio_output@@V?$standard_base@DV?$string_output_adapter@D@__crt_stdio_output@@@2@@__crt_stdio_output@@AAE_NQAH@Z 10029091 f i libucrt:output.obj
 0001:00028104       ?parse_int_from_format_string@?$output_processor@_WV?$stream_output_adapter@_W@__crt_stdio_output@@V?$format_validation_base@_WV?$stream_output_adapter@_W@__crt_stdio_output@@@2@@__crt_stdio_output@@AAE_NQAH@Z 10029104 f i libucrt:output.obj
 0001:00028179       ?parse_int_from_format_string@?$output_processor@_WV?$stream_output_adapter@_W@__crt_stdio_output@@V?$positional_parameter_base@_WV?$stream_output_adapter@_W@__crt_stdio_output@@@2@@__crt_stdio_output@@AAE_NQAH@Z 10029179 f i libucrt:output.obj
 0001:000281ee       ?parse_int_from_format_string@?$output_processor@_WV?$stream_output_adapter@_W@__crt_stdio_output@@V?$standard_base@_WV?$stream_output_adapter@_W@__crt_stdio_output@@@2@@__crt_stdio_output@@AAE_NQAH@Z 100291ee f i libucrt:output.obj
 0001:00028263       ?parse_int_from_format_string@?$output_processor@_WV?$string_output_adapter@_W@__crt_stdio_output@@V?$format_validation_base@_WV?$string_output_adapter@_W@__crt_stdio_output@@@2@@__crt_stdio_output@@AAE_NQAH@Z 10029263 f i libucrt:output.obj
 0001:000282d8       ?parse_int_from_format_string@?$output_processor@_WV?$string_output_adapter@_W@__crt_stdio_output@@V?$positional_parameter_base@_WV?$string_output_adapter@_W@__crt_stdio_output@@@2@@__crt_stdio_output@@AAE_NQAH@Z 100292d8 f i libucrt:output.obj
 0001:0002834d       ?parse_int_from_format_string@?$output_processor@_WV?$string_output_adapter@_W@__crt_stdio_output@@V?$standard_base@_WV?$string_output_adapter@_W@__crt_stdio_output@@@2@@__crt_stdio_output@@AAE_NQAH@Z 1002934d f i libucrt:output.obj
 0001:000283c2       ?process@?$output_processor@DV?$stream_output_adapter@D@__crt_stdio_output@@V?$format_validation_base@DV?$stream_output_adapter@D@__crt_stdio_output@@@2@@__crt_stdio_output@@QAEHXZ 100293c2 f i libucrt:output.obj
 0001:00028534       ?process@?$output_processor@DV?$stream_output_adapter@D@__crt_stdio_output@@V?$positional_parameter_base@DV?$stream_output_adapter@D@__crt_stdio_output@@@2@@__crt_stdio_output@@QAEHXZ 10029534 f i libucrt:output.obj
 0001:000286e7       ?process@?$output_processor@DV?$stream_output_adapter@D@__crt_stdio_output@@V?$standard_base@DV?$stream_output_adapter@D@__crt_stdio_output@@@2@@__crt_stdio_output@@QAEHXZ 100296e7 f i libucrt:output.obj
 0001:0002884a       ?process@?$output_processor@DV?$string_output_adapter@D@__crt_stdio_output@@V?$format_validation_base@DV?$string_output_adapter@D@__crt_stdio_output@@@2@@__crt_stdio_output@@QAEHXZ 1002984a f i libucrt:output.obj
 0001:000289bc       ?process@?$output_processor@DV?$string_output_adapter@D@__crt_stdio_output@@V?$positional_parameter_base@DV?$string_output_adapter@D@__crt_stdio_output@@@2@@__crt_stdio_output@@QAEHXZ 100299bc f i libucrt:output.obj
 0001:00028b6f       ?process@?$output_processor@DV?$string_output_adapter@D@__crt_stdio_output@@V?$standard_base@DV?$string_output_adapter@D@__crt_stdio_output@@@2@@__crt_stdio_output@@QAEHXZ 10029b6f f i libucrt:output.obj
 0001:00028cd2       ?process@?$output_processor@_WV?$stream_output_adapter@_W@__crt_stdio_output@@V?$format_validation_base@_WV?$stream_output_adapter@_W@__crt_stdio_output@@@2@@__crt_stdio_output@@QAEHXZ 10029cd2 f i libucrt:output.obj
 0001:00028e4e       ?process@?$output_processor@_WV?$stream_output_adapter@_W@__crt_stdio_output@@V?$positional_parameter_base@_WV?$stream_output_adapter@_W@__crt_stdio_output@@@2@@__crt_stdio_output@@QAEHXZ 10029e4e f i libucrt:output.obj
 0001:00029006       ?process@?$output_processor@_WV?$stream_output_adapter@_W@__crt_stdio_output@@V?$standard_base@_WV?$stream_output_adapter@_W@__crt_stdio_output@@@2@@__crt_stdio_output@@QAEHXZ 1002a006 f i libucrt:output.obj
 0001:0002916e       ?process@?$output_processor@_WV?$string_output_adapter@_W@__crt_stdio_output@@V?$format_validation_base@_WV?$string_output_adapter@_W@__crt_stdio_output@@@2@@__crt_stdio_output@@QAEHXZ 1002a16e f i libucrt:output.obj
 0001:000292ea       ?process@?$output_processor@_WV?$string_output_adapter@_W@__crt_stdio_output@@V?$positional_parameter_base@_WV?$string_output_adapter@_W@__crt_stdio_output@@@2@@__crt_stdio_output@@QAEHXZ 1002a2ea f i libucrt:output.obj
 0001:000294a2       ?process@?$output_processor@_WV?$string_output_adapter@_W@__crt_stdio_output@@V?$standard_base@_WV?$string_output_adapter@_W@__crt_stdio_output@@@2@@__crt_stdio_output@@QAEHXZ 1002a4a2 f i libucrt:output.obj
 0001:0002960a       ?public_stream@__crt_stdio_stream@@QBEPAU_iobuf@@XZ 1002a60a f i libucrt:output.obj
 0001:0002960d       ?set_flag@?$output_processor@DV?$stream_output_adapter@D@__crt_stdio_output@@V?$format_validation_base@DV?$stream_output_adapter@D@__crt_stdio_output@@@2@@__crt_stdio_output@@AAEXI@Z 1002a60d f i libucrt:output.obj
 0001:0002961f       ?set_flag@?$output_processor@DV?$stream_output_adapter@D@__crt_stdio_output@@V?$positional_parameter_base@DV?$stream_output_adapter@D@__crt_stdio_output@@@2@@__crt_stdio_output@@AAEXI@Z 1002a61f f i libucrt:output.obj
 0001:00029631       ?set_flag@?$output_processor@DV?$stream_output_adapter@D@__crt_stdio_output@@V?$standard_base@DV?$stream_output_adapter@D@__crt_stdio_output@@@2@@__crt_stdio_output@@AAEXI@Z 1002a631 f i libucrt:output.obj
 0001:00029643       ?set_flag@?$output_processor@DV?$string_output_adapter@D@__crt_stdio_output@@V?$format_validation_base@DV?$string_output_adapter@D@__crt_stdio_output@@@2@@__crt_stdio_output@@AAEXI@Z 1002a643 f i libucrt:output.obj
 0001:00029655       ?set_flag@?$output_processor@DV?$string_output_adapter@D@__crt_stdio_output@@V?$positional_parameter_base@DV?$string_output_adapter@D@__crt_stdio_output@@@2@@__crt_stdio_output@@AAEXI@Z 1002a655 f i libucrt:output.obj
 0001:00029667       ?set_flag@?$output_processor@DV?$string_output_adapter@D@__crt_stdio_output@@V?$standard_base@DV?$string_output_adapter@D@__crt_stdio_output@@@2@@__crt_stdio_output@@AAEXI@Z 1002a667 f i libucrt:output.obj
 0001:00029679       ?set_flag@?$output_processor@_WV?$stream_output_adapter@_W@__crt_stdio_output@@V?$format_validation_base@_WV?$stream_output_adapter@_W@__crt_stdio_output@@@2@@__crt_stdio_output@@AAEXI@Z 1002a679 f i libucrt:output.obj
 0001:0002968b       ?set_flag@?$output_processor@_WV?$stream_output_adapter@_W@__crt_stdio_output@@V?$positional_parameter_base@_WV?$stream_output_adapter@_W@__crt_stdio_output@@@2@@__crt_stdio_output@@AAEXI@Z 1002a68b f i libucrt:output.obj
 0001:0002969d       ?set_flag@?$output_processor@_WV?$stream_output_adapter@_W@__crt_stdio_output@@V?$standard_base@_WV?$stream_output_adapter@_W@__crt_stdio_output@@@2@@__crt_stdio_output@@AAEXI@Z 1002a69d f i libucrt:output.obj
 0001:000296af       ?set_flag@?$output_processor@_WV?$string_output_adapter@_W@__crt_stdio_output@@V?$format_validation_base@_WV?$string_output_adapter@_W@__crt_stdio_output@@@2@@__crt_stdio_output@@AAEXI@Z 1002a6af f i libucrt:output.obj
 0001:000296c1       ?set_flag@?$output_processor@_WV?$string_output_adapter@_W@__crt_stdio_output@@V?$positional_parameter_base@_WV?$string_output_adapter@_W@__crt_stdio_output@@@2@@__crt_stdio_output@@AAEXI@Z 1002a6c1 f i libucrt:output.obj
 0001:000296d3       ?set_flag@?$output_processor@_WV?$string_output_adapter@_W@__crt_stdio_output@@V?$standard_base@_WV?$string_output_adapter@_W@__crt_stdio_output@@@2@@__crt_stdio_output@@AAEXI@Z 1002a6d3 f i libucrt:output.obj
 0001:000296e5       ?should_format@?$positional_parameter_base@DV?$stream_output_adapter@D@__crt_stdio_output@@@__crt_stdio_output@@IAE_NXZ 1002a6e5 f i libucrt:output.obj
 0001:00029700       ?should_format@?$positional_parameter_base@DV?$string_output_adapter@D@__crt_stdio_output@@@__crt_stdio_output@@IAE_NXZ 1002a700 f i libucrt:output.obj
 0001:0002971b       ?should_format@?$positional_parameter_base@_WV?$stream_output_adapter@_W@__crt_stdio_output@@@__crt_stdio_output@@IAE_NXZ 1002a71b f i libucrt:output.obj
 0001:00029736       ?should_format@?$positional_parameter_base@_WV?$string_output_adapter@_W@__crt_stdio_output@@@__crt_stdio_output@@IAE_NXZ 1002a736 f i libucrt:output.obj
 0001:00029751       ?should_format@?$standard_base@DV?$stream_output_adapter@D@__crt_stdio_output@@@__crt_stdio_output@@IAE_NXZ 1002a751 f i libucrt:output.obj
 0001:00029754       ?should_format@?$standard_base@DV?$string_output_adapter@D@__crt_stdio_output@@@__crt_stdio_output@@IAE_NXZ 1002a754 f i libucrt:output.obj
 0001:00029757       ?should_format@?$standard_base@_WV?$stream_output_adapter@_W@__crt_stdio_output@@@__crt_stdio_output@@IAE_NXZ 1002a757 f i libucrt:output.obj
 0001:0002975a       ?should_format@?$standard_base@_WV?$string_output_adapter@_W@__crt_stdio_output@@@__crt_stdio_output@@IAE_NXZ 1002a75a f i libucrt:output.obj
 0001:0002975d       ?should_skip_normal_state_processing@?$positional_parameter_base@DV?$stream_output_adapter@D@__crt_stdio_output@@@__crt_stdio_output@@IAE_NXZ 1002a75d f i libucrt:output.obj
 0001:0002978f       ?should_skip_normal_state_processing@?$positional_parameter_base@DV?$string_output_adapter@D@__crt_stdio_output@@@__crt_stdio_output@@IAE_NXZ 1002a78f f i libucrt:output.obj
 0001:000297c1       ?should_skip_normal_state_processing@?$positional_parameter_base@_WV?$stream_output_adapter@_W@__crt_stdio_output@@@__crt_stdio_output@@IAE_NXZ 1002a7c1 f i libucrt:output.obj
 0001:000297f3       ?should_skip_normal_state_processing@?$positional_parameter_base@_WV?$string_output_adapter@_W@__crt_stdio_output@@@__crt_stdio_output@@IAE_NXZ 1002a7f3 f i libucrt:output.obj
 0001:00029825       ?should_skip_normal_state_processing@?$standard_base@DV?$stream_output_adapter@D@__crt_stdio_output@@@__crt_stdio_output@@IAE_NXZ 1002a825 f i libucrt:output.obj
 0001:00029828       ?should_skip_normal_state_processing@?$standard_base@DV?$string_output_adapter@D@__crt_stdio_output@@@__crt_stdio_output@@IAE_NXZ 1002a828 f i libucrt:output.obj
 0001:0002982b       ?should_skip_normal_state_processing@?$standard_base@_WV?$stream_output_adapter@_W@__crt_stdio_output@@@__crt_stdio_output@@IAE_NXZ 1002a82b f i libucrt:output.obj
 0001:0002982e       ?should_skip_normal_state_processing@?$standard_base@_WV?$string_output_adapter@_W@__crt_stdio_output@@@__crt_stdio_output@@IAE_NXZ 1002a82e f i libucrt:output.obj
 0001:00029831       ?should_skip_type_state_output@?$positional_parameter_base@DV?$stream_output_adapter@D@__crt_stdio_output@@@__crt_stdio_output@@IBE_NXZ 1002a831 f i libucrt:output.obj
 0001:0002984d       ?should_skip_type_state_output@?$positional_parameter_base@DV?$string_output_adapter@D@__crt_stdio_output@@@__crt_stdio_output@@IBE_NXZ 1002a84d f i libucrt:output.obj
 0001:00029869       ?should_skip_type_state_output@?$positional_parameter_base@_WV?$stream_output_adapter@_W@__crt_stdio_output@@@__crt_stdio_output@@IBE_NXZ 1002a869 f i libucrt:output.obj
 0001:00029885       ?should_skip_type_state_output@?$positional_parameter_base@_WV?$string_output_adapter@_W@__crt_stdio_output@@@__crt_stdio_output@@IBE_NXZ 1002a885 f i libucrt:output.obj
 0001:000298a1       ?should_skip_type_state_output@?$standard_base@DV?$stream_output_adapter@D@__crt_stdio_output@@@__crt_stdio_output@@IBE_NXZ 1002a8a1 f i libucrt:output.obj
 0001:000298a4       ?should_skip_type_state_output@?$standard_base@DV?$string_output_adapter@D@__crt_stdio_output@@@__crt_stdio_output@@IBE_NXZ 1002a8a4 f i libucrt:output.obj
 0001:000298a7       ?should_skip_type_state_output@?$standard_base@_WV?$stream_output_adapter@_W@__crt_stdio_output@@@__crt_stdio_output@@IBE_NXZ 1002a8a7 f i libucrt:output.obj
 0001:000298aa       ?should_skip_type_state_output@?$standard_base@_WV?$string_output_adapter@_W@__crt_stdio_output@@@__crt_stdio_output@@IBE_NXZ 1002a8aa f i libucrt:output.obj
 0001:000298ad       ?state_case_dot@?$output_processor@DV?$stream_output_adapter@D@__crt_stdio_output@@V?$format_validation_base@DV?$stream_output_adapter@D@__crt_stdio_output@@@2@@__crt_stdio_output@@AAE_NXZ 1002a8ad f i libucrt:output.obj
 0001:000298b4       ?state_case_dot@?$output_processor@DV?$stream_output_adapter@D@__crt_stdio_output@@V?$positional_parameter_base@DV?$stream_output_adapter@D@__crt_stdio_output@@@2@@__crt_stdio_output@@AAE_NXZ 1002a8b4 f i libucrt:output.obj
 0001:000298bb       ?state_case_dot@?$output_processor@DV?$stream_output_adapter@D@__crt_stdio_output@@V?$standard_base@DV?$stream_output_adapter@D@__crt_stdio_output@@@2@@__crt_stdio_output@@AAE_NXZ 1002a8bb f i libucrt:output.obj
 0001:000298c2       ?state_case_dot@?$output_processor@DV?$string_output_adapter@D@__crt_stdio_output@@V?$format_validation_base@DV?$string_output_adapter@D@__crt_stdio_output@@@2@@__crt_stdio_output@@AAE_NXZ 1002a8c2 f i libucrt:output.obj
 0001:000298c9       ?state_case_dot@?$output_processor@DV?$string_output_adapter@D@__crt_stdio_output@@V?$positional_parameter_base@DV?$string_output_adapter@D@__crt_stdio_output@@@2@@__crt_stdio_output@@AAE_NXZ 1002a8c9 f i libucrt:output.obj
 0001:000298d0       ?state_case_dot@?$output_processor@DV?$string_output_adapter@D@__crt_stdio_output@@V?$standard_base@DV?$string_output_adapter@D@__crt_stdio_output@@@2@@__crt_stdio_output@@AAE_NXZ 1002a8d0 f i libucrt:output.obj
 0001:000298d7       ?state_case_dot@?$output_processor@_WV?$stream_output_adapter@_W@__crt_stdio_output@@V?$format_validation_base@_WV?$stream_output_adapter@_W@__crt_stdio_output@@@2@@__crt_stdio_output@@AAE_NXZ 1002a8d7 f i libucrt:output.obj
 0001:000298de       ?state_case_dot@?$output_processor@_WV?$stream_output_adapter@_W@__crt_stdio_output@@V?$positional_parameter_base@_WV?$stream_output_adapter@_W@__crt_stdio_output@@@2@@__crt_stdio_output@@AAE_NXZ 1002a8de f i libucrt:output.obj
 0001:000298e5       ?state_case_dot@?$output_processor@_WV?$stream_output_adapter@_W@__crt_stdio_output@@V?$standard_base@_WV?$stream_output_adapter@_W@__crt_stdio_output@@@2@@__crt_stdio_output@@AAE_NXZ 1002a8e5 f i libucrt:output.obj
 0001:000298ec       ?state_case_dot@?$output_processor@_WV?$string_output_adapter@_W@__crt_stdio_output@@V?$format_validation_base@_WV?$string_output_adapter@_W@__crt_stdio_output@@@2@@__crt_stdio_output@@AAE_NXZ 1002a8ec f i libucrt:output.obj
 0001:000298f3       ?state_case_dot@?$output_processor@_WV?$string_output_adapter@_W@__crt_stdio_output@@V?$positional_parameter_base@_WV?$string_output_adapter@_W@__crt_stdio_output@@@2@@__crt_stdio_output@@AAE_NXZ 1002a8f3 f i libucrt:output.obj
 0001:000298fa       ?state_case_dot@?$output_processor@_WV?$string_output_adapter@_W@__crt_stdio_output@@V?$standard_base@_WV?$string_output_adapter@_W@__crt_stdio_output@@@2@@__crt_stdio_output@@AAE_NXZ 1002a8fa f i libucrt:output.obj
 0001:00029901       ?state_case_flag@?$output_processor@DV?$stream_output_adapter@D@__crt_stdio_output@@V?$format_validation_base@DV?$stream_output_adapter@D@__crt_stdio_output@@@2@@__crt_stdio_output@@AAE_NXZ 1002a901 f i libucrt:output.obj
 0001:0002994d       ?state_case_flag@?$output_processor@DV?$stream_output_adapter@D@__crt_stdio_output@@V?$positional_parameter_base@DV?$stream_output_adapter@D@__crt_stdio_output@@@2@@__crt_stdio_output@@AAE_NXZ 1002a94d f i libucrt:output.obj
 0001:00029999       ?state_case_flag@?$output_processor@DV?$stream_output_adapter@D@__crt_stdio_output@@V?$standard_base@DV?$stream_output_adapter@D@__crt_stdio_output@@@2@@__crt_stdio_output@@AAE_NXZ 1002a999 f i libucrt:output.obj
 0001:000299e5       ?state_case_flag@?$output_processor@DV?$string_output_adapter@D@__crt_stdio_output@@V?$format_validation_base@DV?$string_output_adapter@D@__crt_stdio_output@@@2@@__crt_stdio_output@@AAE_NXZ 1002a9e5 f i libucrt:output.obj
 0001:00029a31       ?state_case_flag@?$output_processor@DV?$string_output_adapter@D@__crt_stdio_output@@V?$positional_parameter_base@DV?$string_output_adapter@D@__crt_stdio_output@@@2@@__crt_stdio_output@@AAE_NXZ 1002aa31 f i libucrt:output.obj
 0001:00029a7d       ?state_case_flag@?$output_processor@DV?$string_output_adapter@D@__crt_stdio_output@@V?$standard_base@DV?$string_output_adapter@D@__crt_stdio_output@@@2@@__crt_stdio_output@@AAE_NXZ 1002aa7d f i libucrt:output.obj
 0001:00029ac9       ?state_case_flag@?$output_processor@_WV?$stream_output_adapter@_W@__crt_stdio_output@@V?$format_validation_base@_WV?$stream_output_adapter@_W@__crt_stdio_output@@@2@@__crt_stdio_output@@AAE_NXZ 1002aac9 f i libucrt:output.obj
 0001:00029b15       ?state_case_flag@?$output_processor@_WV?$stream_output_adapter@_W@__crt_stdio_output@@V?$positional_parameter_base@_WV?$stream_output_adapter@_W@__crt_stdio_output@@@2@@__crt_stdio_output@@AAE_NXZ 1002ab15 f i libucrt:output.obj
 0001:00029b61       ?state_case_flag@?$output_processor@_WV?$stream_output_adapter@_W@__crt_stdio_output@@V?$standard_base@_WV?$stream_output_adapter@_W@__crt_stdio_output@@@2@@__crt_stdio_output@@AAE_NXZ 1002ab61 f i libucrt:output.obj
 0001:00029bad       ?state_case_flag@?$output_processor@_WV?$string_output_adapter@_W@__crt_stdio_output@@V?$format_validation_base@_WV?$string_output_adapter@_W@__crt_stdio_output@@@2@@__crt_stdio_output@@AAE_NXZ 1002abad f i libucrt:output.obj
 0001:00029bf9       ?state_case_flag@?$output_processor@_WV?$string_output_adapter@_W@__crt_stdio_output@@V?$positional_parameter_base@_WV?$string_output_adapter@_W@__crt_stdio_output@@@2@@__crt_stdio_output@@AAE_NXZ 1002abf9 f i libucrt:output.obj
 0001:00029c45       ?state_case_flag@?$output_processor@_WV?$string_output_adapter@_W@__crt_stdio_output@@V?$standard_base@_WV?$string_output_adapter@_W@__crt_stdio_output@@@2@@__crt_stdio_output@@AAE_NXZ 1002ac45 f i libucrt:output.obj
 0001:00029c91       ?state_case_normal@?$output_processor@DV?$stream_output_adapter@D@__crt_stdio_output@@V?$format_validation_base@DV?$stream_output_adapter@D@__crt_stdio_output@@@2@@__crt_stdio_output@@AAE_NXZ 1002ac91 f i libucrt:output.obj
 0001:00029cb7       ?state_case_normal@?$output_processor@DV?$stream_output_adapter@D@__crt_stdio_output@@V?$positional_parameter_base@DV?$stream_output_adapter@D@__crt_stdio_output@@@2@@__crt_stdio_output@@AAE_NXZ 1002acb7 f i libucrt:output.obj
 0001:00029cf4       ?state_case_normal@?$output_processor@DV?$stream_output_adapter@D@__crt_stdio_output@@V?$standard_base@DV?$stream_output_adapter@D@__crt_stdio_output@@@2@@__crt_stdio_output@@AAE_NXZ 1002acf4 f i libucrt:output.obj
 0001:00029d1a       ?state_case_normal@?$output_processor@DV?$string_output_adapter@D@__crt_stdio_output@@V?$format_validation_base@DV?$string_output_adapter@D@__crt_stdio_output@@@2@@__crt_stdio_output@@AAE_NXZ 1002ad1a f i libucrt:output.obj
 0001:00029d40       ?state_case_normal@?$output_processor@DV?$string_output_adapter@D@__crt_stdio_output@@V?$positional_parameter_base@DV?$string_output_adapter@D@__crt_stdio_output@@@2@@__crt_stdio_output@@AAE_NXZ 1002ad40 f i libucrt:output.obj
 0001:00029d7d       ?state_case_normal@?$output_processor@DV?$string_output_adapter@D@__crt_stdio_output@@V?$standard_base@DV?$string_output_adapter@D@__crt_stdio_output@@@2@@__crt_stdio_output@@AAE_NXZ 1002ad7d f i libucrt:output.obj
 0001:00029da3       ?state_case_normal@?$output_processor@_WV?$stream_output_adapter@_W@__crt_stdio_output@@V?$format_validation_base@_WV?$stream_output_adapter@_W@__crt_stdio_output@@@2@@__crt_stdio_output@@AAE_NXZ 1002ada3 f i libucrt:output.obj
 0001:00029dc9       ?state_case_normal@?$output_processor@_WV?$stream_output_adapter@_W@__crt_stdio_output@@V?$positional_parameter_base@_WV?$stream_output_adapter@_W@__crt_stdio_output@@@2@@__crt_stdio_output@@AAE_NXZ 1002adc9 f i libucrt:output.obj
 0001:00029e06       ?state_case_normal@?$output_processor@_WV?$stream_output_adapter@_W@__crt_stdio_output@@V?$standard_base@_WV?$stream_output_adapter@_W@__crt_stdio_output@@@2@@__crt_stdio_output@@AAE_NXZ 1002ae06 f i libucrt:output.obj
 0001:00029e2c       ?state_case_normal@?$output_processor@_WV?$string_output_adapter@_W@__crt_stdio_output@@V?$format_validation_base@_WV?$string_output_adapter@_W@__crt_stdio_output@@@2@@__crt_stdio_output@@AAE_NXZ 1002ae2c f i libucrt:output.obj
 0001:00029e52       ?state_case_normal@?$output_processor@_WV?$string_output_adapter@_W@__crt_stdio_output@@V?$positional_parameter_base@_WV?$string_output_adapter@_W@__crt_stdio_output@@@2@@__crt_stdio_output@@AAE_NXZ 1002ae52 f i libucrt:output.obj
 0001:00029e8f       ?state_case_normal@?$output_processor@_WV?$string_output_adapter@_W@__crt_stdio_output@@V?$standard_base@_WV?$string_output_adapter@_W@__crt_stdio_output@@@2@@__crt_stdio_output@@AAE_NXZ 1002ae8f f i libucrt:output.obj
 0001:00029eb5       ?state_case_normal_common@?$output_processor@DV?$stream_output_adapter@D@__crt_stdio_output@@V?$format_validation_base@DV?$stream_output_adapter@D@__crt_stdio_output@@@2@@__crt_stdio_output@@AAE_NXZ 1002aeb5 f i libucrt:output.obj
 0001:00029ee9       ?state_case_normal_common@?$output_processor@DV?$stream_output_adapter@D@__crt_stdio_output@@V?$positional_parameter_base@DV?$stream_output_adapter@D@__crt_stdio_output@@@2@@__crt_stdio_output@@AAE_NXZ 1002aee9 f i libucrt:output.obj
 0001:00029f1d       ?state_case_normal_common@?$output_processor@DV?$stream_output_adapter@D@__crt_stdio_output@@V?$standard_base@DV?$stream_output_adapter@D@__crt_stdio_output@@@2@@__crt_stdio_output@@AAE_NXZ 1002af1d f i libucrt:output.obj
 0001:00029f51       ?state_case_normal_common@?$output_processor@DV?$string_output_adapter@D@__crt_stdio_output@@V?$format_validation_base@DV?$string_output_adapter@D@__crt_stdio_output@@@2@@__crt_stdio_output@@AAE_NXZ 1002af51 f i libucrt:output.obj
 0001:00029f85       ?state_case_normal_common@?$output_processor@DV?$string_output_adapter@D@__crt_stdio_output@@V?$positional_parameter_base@DV?$string_output_adapter@D@__crt_stdio_output@@@2@@__crt_stdio_output@@AAE_NXZ 1002af85 f i libucrt:output.obj
 0001:00029fb9       ?state_case_normal_common@?$output_processor@DV?$string_output_adapter@D@__crt_stdio_output@@V?$standard_base@DV?$string_output_adapter@D@__crt_stdio_output@@@2@@__crt_stdio_output@@AAE_NXZ 1002afb9 f i libucrt:output.obj
 0001:00029fed       ?state_case_normal_common@?$output_processor@_WV?$stream_output_adapter@_W@__crt_stdio_output@@V?$format_validation_base@_WV?$stream_output_adapter@_W@__crt_stdio_output@@@2@@__crt_stdio_output@@AAE_NXZ 1002afed f i libucrt:output.obj
 0001:0002a00e       ?state_case_normal_common@?$output_processor@_WV?$stream_output_adapter@_W@__crt_stdio_output@@V?$positional_parameter_base@_WV?$stream_output_adapter@_W@__crt_stdio_output@@@2@@__crt_stdio_output@@AAE_NXZ 1002b00e f i libucrt:output.obj
 0001:0002a02f       ?state_case_normal_common@?$output_processor@_WV?$stream_output_adapter@_W@__crt_stdio_output@@V?$standard_base@_WV?$stream_output_adapter@_W@__crt_stdio_output@@@2@@__crt_stdio_output@@AAE_NXZ 1002b02f f i libucrt:output.obj
 0001:0002a050       ?state_case_normal_common@?$output_processor@_WV?$string_output_adapter@_W@__crt_stdio_output@@V?$format_validation_base@_WV?$string_output_adapter@_W@__crt_stdio_output@@@2@@__crt_stdio_output@@AAE_NXZ 1002b050 f i libucrt:output.obj
 0001:0002a071       ?state_case_normal_common@?$output_processor@_WV?$string_output_adapter@_W@__crt_stdio_output@@V?$positional_parameter_base@_WV?$string_output_adapter@_W@__crt_stdio_output@@@2@@__crt_stdio_output@@AAE_NXZ 1002b071 f i libucrt:output.obj
 0001:0002a092       ?state_case_normal_common@?$output_processor@_WV?$string_output_adapter@_W@__crt_stdio_output@@V?$standard_base@_WV?$string_output_adapter@_W@__crt_stdio_output@@@2@@__crt_stdio_output@@AAE_NXZ 1002b092 f i libucrt:output.obj
 0001:0002a0b3       ?state_case_normal_tchar@?$output_processor@DV?$stream_output_adapter@D@__crt_stdio_output@@V?$format_validation_base@DV?$stream_output_adapter@D@__crt_stdio_output@@@2@@__crt_stdio_output@@AAE_ND@Z 1002b0b3 f i libucrt:output.obj
 0001:0002a12c       ?state_case_normal_tchar@?$output_processor@DV?$stream_output_adapter@D@__crt_stdio_output@@V?$positional_parameter_base@DV?$stream_output_adapter@D@__crt_stdio_output@@@2@@__crt_stdio_output@@AAE_ND@Z 1002b12c f i libucrt:output.obj
 0001:0002a1a5       ?state_case_normal_tchar@?$output_processor@DV?$stream_output_adapter@D@__crt_stdio_output@@V?$standard_base@DV?$stream_output_adapter@D@__crt_stdio_output@@@2@@__crt_stdio_output@@AAE_ND@Z 1002b1a5 f i libucrt:output.obj
 0001:0002a21e       ?state_case_normal_tchar@?$output_processor@DV?$string_output_adapter@D@__crt_stdio_output@@V?$format_validation_base@DV?$string_output_adapter@D@__crt_stdio_output@@@2@@__crt_stdio_output@@AAE_ND@Z 1002b21e f i libucrt:output.obj
 0001:0002a297       ?state_case_normal_tchar@?$output_processor@DV?$string_output_adapter@D@__crt_stdio_output@@V?$positional_parameter_base@DV?$string_output_adapter@D@__crt_stdio_output@@@2@@__crt_stdio_output@@AAE_ND@Z 1002b297 f i libucrt:output.obj
 0001:0002a310       ?state_case_normal_tchar@?$output_processor@DV?$string_output_adapter@D@__crt_stdio_output@@V?$standard_base@DV?$string_output_adapter@D@__crt_stdio_output@@@2@@__crt_stdio_output@@AAE_ND@Z 1002b310 f i libucrt:output.obj
 0001:0002a389       ?state_case_normal_tchar@?$output_processor@_WV?$stream_output_adapter@_W@__crt_stdio_output@@V?$format_validation_base@_WV?$stream_output_adapter@_W@__crt_stdio_output@@@2@@__crt_stdio_output@@AAE_N_W@Z 1002b389 f i libucrt:output.obj
 0001:0002a394       ?state_case_normal_tchar@?$output_processor@_WV?$stream_output_adapter@_W@__crt_stdio_output@@V?$positional_parameter_base@_WV?$stream_output_adapter@_W@__crt_stdio_output@@@2@@__crt_stdio_output@@AAE_N_W@Z 1002b394 f i libucrt:output.obj
 0001:0002a39f       ?state_case_normal_tchar@?$output_processor@_WV?$stream_output_adapter@_W@__crt_stdio_output@@V?$standard_base@_WV?$stream_output_adapter@_W@__crt_stdio_output@@@2@@__crt_stdio_output@@AAE_N_W@Z 1002b39f f i libucrt:output.obj
 0001:0002a3aa       ?state_case_normal_tchar@?$output_processor@_WV?$string_output_adapter@_W@__crt_stdio_output@@V?$format_validation_base@_WV?$string_output_adapter@_W@__crt_stdio_output@@@2@@__crt_stdio_output@@AAE_N_W@Z 1002b3aa f i libucrt:output.obj
 0001:0002a3b5       ?state_case_normal_tchar@?$output_processor@_WV?$string_output_adapter@_W@__crt_stdio_output@@V?$positional_parameter_base@_WV?$string_output_adapter@_W@__crt_stdio_output@@@2@@__crt_stdio_output@@AAE_N_W@Z 1002b3b5 f i libucrt:output.obj
 0001:0002a3c0       ?state_case_normal_tchar@?$output_processor@_WV?$string_output_adapter@_W@__crt_stdio_output@@V?$standard_base@_WV?$string_output_adapter@_W@__crt_stdio_output@@@2@@__crt_stdio_output@@AAE_N_W@Z 1002b3c0 f i libucrt:output.obj
 0001:0002a3cb       ?state_case_percent@?$output_processor@DV?$stream_output_adapter@D@__crt_stdio_output@@V?$format_validation_base@DV?$stream_output_adapter@D@__crt_stdio_output@@@2@@__crt_stdio_output@@AAE_NXZ 1002b3cb f i libucrt:output.obj
 0001:0002a3e9       ?state_case_percent@?$output_processor@DV?$stream_output_adapter@D@__crt_stdio_output@@V?$positional_parameter_base@DV?$stream_output_adapter@D@__crt_stdio_output@@@2@@__crt_stdio_output@@AAE_NXZ 1002b3e9 f i libucrt:output.obj
 0001:0002a407       ?state_case_percent@?$output_processor@DV?$stream_output_adapter@D@__crt_stdio_output@@V?$standard_base@DV?$stream_output_adapter@D@__crt_stdio_output@@@2@@__crt_stdio_output@@AAE_NXZ 1002b407 f i libucrt:output.obj
 0001:0002a425       ?state_case_percent@?$output_processor@DV?$string_output_adapter@D@__crt_stdio_output@@V?$format_validation_base@DV?$string_output_adapter@D@__crt_stdio_output@@@2@@__crt_stdio_output@@AAE_NXZ 1002b425 f i libucrt:output.obj
 0001:0002a443       ?state_case_percent@?$output_processor@DV?$string_output_adapter@D@__crt_stdio_output@@V?$positional_parameter_base@DV?$string_output_adapter@D@__crt_stdio_output@@@2@@__crt_stdio_output@@AAE_NXZ 1002b443 f i libucrt:output.obj
 0001:0002a461       ?state_case_percent@?$output_processor@DV?$string_output_adapter@D@__crt_stdio_output@@V?$standard_base@DV?$string_output_adapter@D@__crt_stdio_output@@@2@@__crt_stdio_output@@AAE_NXZ 1002b461 f i libucrt:output.obj
 0001:0002a47f       ?state_case_percent@?$output_processor@_WV?$stream_output_adapter@_W@__crt_stdio_output@@V?$format_validation_base@_WV?$stream_output_adapter@_W@__crt_stdio_output@@@2@@__crt_stdio_output@@AAE_NXZ 1002b47f f i libucrt:output.obj
 0001:0002a49d       ?state_case_percent@?$output_processor@_WV?$stream_output_adapter@_W@__crt_stdio_output@@V?$positional_parameter_base@_WV?$stream_output_adapter@_W@__crt_stdio_output@@@2@@__crt_stdio_output@@AAE_NXZ 1002b49d f i libucrt:output.obj
 0001:0002a4bb       ?state_case_percent@?$output_processor@_WV?$stream_output_adapter@_W@__crt_stdio_output@@V?$standard_base@_WV?$stream_output_adapter@_W@__crt_stdio_output@@@2@@__crt_stdio_output@@AAE_NXZ 1002b4bb f i libucrt:output.obj
 0001:0002a4d9       ?state_case_percent@?$output_processor@_WV?$string_output_adapter@_W@__crt_stdio_output@@V?$format_validation_base@_WV?$string_output_adapter@_W@__crt_stdio_output@@@2@@__crt_stdio_output@@AAE_NXZ 1002b4d9 f i libucrt:output.obj
 0001:0002a4f7       ?state_case_percent@?$output_processor@_WV?$string_output_adapter@_W@__crt_stdio_output@@V?$positional_parameter_base@_WV?$string_output_adapter@_W@__crt_stdio_output@@@2@@__crt_stdio_output@@AAE_NXZ 1002b4f7 f i libucrt:output.obj
 0001:0002a515       ?state_case_percent@?$output_processor@_WV?$string_output_adapter@_W@__crt_stdio_output@@V?$standard_base@_WV?$string_output_adapter@_W@__crt_stdio_output@@@2@@__crt_stdio_output@@AAE_NXZ 1002b515 f i libucrt:output.obj
 0001:0002a533       ?state_case_precision@?$output_processor@DV?$stream_output_adapter@D@__crt_stdio_output@@V?$format_validation_base@DV?$stream_output_adapter@D@__crt_stdio_output@@@2@@__crt_stdio_output@@AAE_NXZ 1002b533 f i libucrt:output.obj
 0001:0002a565       ?state_case_precision@?$output_processor@DV?$stream_output_adapter@D@__crt_stdio_output@@V?$positional_parameter_base@DV?$stream_output_adapter@D@__crt_stdio_output@@@2@@__crt_stdio_output@@AAE_NXZ 1002b565 f i libucrt:output.obj
 0001:0002a5ad       ?state_case_precision@?$output_processor@DV?$stream_output_adapter@D@__crt_stdio_output@@V?$standard_base@DV?$stream_output_adapter@D@__crt_stdio_output@@@2@@__crt_stdio_output@@AAE_NXZ 1002b5ad f i libucrt:output.obj
 0001:0002a5df       ?state_case_precision@?$output_processor@DV?$string_output_adapter@D@__crt_stdio_output@@V?$format_validation_base@DV?$string_output_adapter@D@__crt_stdio_output@@@2@@__crt_stdio_output@@AAE_NXZ 1002b5df f i libucrt:output.obj
 0001:0002a611       ?state_case_precision@?$output_processor@DV?$string_output_adapter@D@__crt_stdio_output@@V?$positional_parameter_base@DV?$string_output_adapter@D@__crt_stdio_output@@@2@@__crt_stdio_output@@AAE_NXZ 1002b611 f i libucrt:output.obj
 0001:0002a659       ?state_case_precision@?$output_processor@DV?$string_output_adapter@D@__crt_stdio_output@@V?$standard_base@DV?$string_output_adapter@D@__crt_stdio_output@@@2@@__crt_stdio_output@@AAE_NXZ 1002b659 f i libucrt:output.obj
 0001:0002a68b       ?state_case_precision@?$output_processor@_WV?$stream_output_adapter@_W@__crt_stdio_output@@V?$format_validation_base@_WV?$stream_output_adapter@_W@__crt_stdio_output@@@2@@__crt_stdio_output@@AAE_NXZ 1002b68b f i libucrt:output.obj
 0001:0002a6be       ?state_case_precision@?$output_processor@_WV?$stream_output_adapter@_W@__crt_stdio_output@@V?$positional_parameter_base@_WV?$stream_output_adapter@_W@__crt_stdio_output@@@2@@__crt_stdio_output@@AAE_NXZ 1002b6be f i libucrt:output.obj
 0001:0002a707       ?state_case_precision@?$output_processor@_WV?$stream_output_adapter@_W@__crt_stdio_output@@V?$standard_base@_WV?$stream_output_adapter@_W@__crt_stdio_output@@@2@@__crt_stdio_output@@AAE_NXZ 1002b707 f i libucrt:output.obj
 0001:0002a73a       ?state_case_precision@?$output_processor@_WV?$string_output_adapter@_W@__crt_stdio_output@@V?$format_validation_base@_WV?$string_output_adapter@_W@__crt_stdio_output@@@2@@__crt_stdio_output@@AAE_NXZ 1002b73a f i libucrt:output.obj
 0001:0002a76d       ?state_case_precision@?$output_processor@_WV?$string_output_adapter@_W@__crt_stdio_output@@V?$positional_parameter_base@_WV?$string_output_adapter@_W@__crt_stdio_output@@@2@@__crt_stdio_output@@AAE_NXZ 1002b76d f i libucrt:output.obj
 0001:0002a7b6       ?state_case_precision@?$output_processor@_WV?$string_output_adapter@_W@__crt_stdio_output@@V?$standard_base@_WV?$string_output_adapter@_W@__crt_stdio_output@@@2@@__crt_stdio_output@@AAE_NXZ 1002b7b6 f i libucrt:output.obj
 0001:0002a7e9       ?state_case_size@?$output_processor@DV?$stream_output_adapter@D@__crt_stdio_output@@V?$format_validation_base@DV?$stream_output_adapter@D@__crt_stdio_output@@@2@@__crt_stdio_output@@AAE_NXZ 1002b7e9 f i libucrt:output.obj
 0001:0002a9ac       ?state_case_size@?$output_processor@DV?$stream_output_adapter@D@__crt_stdio_output@@V?$positional_parameter_base@DV?$stream_output_adapter@D@__crt_stdio_output@@@2@@__crt_stdio_output@@AAE_NXZ 1002b9ac f i libucrt:output.obj
 0001:0002ab6f       ?state_case_size@?$output_processor@DV?$stream_output_adapter@D@__crt_stdio_output@@V?$standard_base@DV?$stream_output_adapter@D@__crt_stdio_output@@@2@@__crt_stdio_output@@AAE_NXZ 1002bb6f f i libucrt:output.obj
 0001:0002ad32       ?state_case_size@?$output_processor@DV?$string_output_adapter@D@__crt_stdio_output@@V?$format_validation_base@DV?$string_output_adapter@D@__crt_stdio_output@@@2@@__crt_stdio_output@@AAE_NXZ 1002bd32 f i libucrt:output.obj
 0001:0002aef5       ?state_case_size@?$output_processor@DV?$string_output_adapter@D@__crt_stdio_output@@V?$positional_parameter_base@DV?$string_output_adapter@D@__crt_stdio_output@@@2@@__crt_stdio_output@@AAE_NXZ 1002bef5 f i libucrt:output.obj
 0001:0002b0b8       ?state_case_size@?$output_processor@DV?$string_output_adapter@D@__crt_stdio_output@@V?$standard_base@DV?$string_output_adapter@D@__crt_stdio_output@@@2@@__crt_stdio_output@@AAE_NXZ 1002c0b8 f i libucrt:output.obj
 0001:0002b27b       ?state_case_size@?$output_processor@_WV?$stream_output_adapter@_W@__crt_stdio_output@@V?$format_validation_base@_WV?$stream_output_adapter@_W@__crt_stdio_output@@@2@@__crt_stdio_output@@AAE_NXZ 1002c27b f i libucrt:output.obj
 0001:0002b456       ?state_case_size@?$output_processor@_WV?$stream_output_adapter@_W@__crt_stdio_output@@V?$positional_parameter_base@_WV?$stream_output_adapter@_W@__crt_stdio_output@@@2@@__crt_stdio_output@@AAE_NXZ 1002c456 f i libucrt:output.obj
 0001:0002b631       ?state_case_size@?$output_processor@_WV?$stream_output_adapter@_W@__crt_stdio_output@@V?$standard_base@_WV?$stream_output_adapter@_W@__crt_stdio_output@@@2@@__crt_stdio_output@@AAE_NXZ 1002c631 f i libucrt:output.obj
 0001:0002b80c       ?state_case_size@?$output_processor@_WV?$string_output_adapter@_W@__crt_stdio_output@@V?$format_validation_base@_WV?$string_output_adapter@_W@__crt_stdio_output@@@2@@__crt_stdio_output@@AAE_NXZ 1002c80c f i libucrt:output.obj
 0001:0002b9e7       ?state_case_size@?$output_processor@_WV?$string_output_adapter@_W@__crt_stdio_output@@V?$positional_parameter_base@_WV?$string_output_adapter@_W@__crt_stdio_output@@@2@@__crt_stdio_output@@AAE_NXZ 1002c9e7 f i libucrt:output.obj
 0001:0002bbc2       ?state_case_size@?$output_processor@_WV?$string_output_adapter@_W@__crt_stdio_output@@V?$standard_base@_WV?$string_output_adapter@_W@__crt_stdio_output@@@2@@__crt_stdio_output@@AAE_NXZ 1002cbc2 f i libucrt:output.obj
 0001:0002bd9d       ?state_case_type@?$output_processor@DV?$stream_output_adapter@D@__crt_stdio_output@@V?$format_validation_base@DV?$stream_output_adapter@D@__crt_stdio_output@@@2@@__crt_stdio_output@@AAE_NXZ 1002cd9d f i libucrt:output.obj
 0001:0002c057       ?state_case_type@?$output_processor@DV?$stream_output_adapter@D@__crt_stdio_output@@V?$positional_parameter_base@DV?$stream_output_adapter@D@__crt_stdio_output@@@2@@__crt_stdio_output@@AAE_NXZ 1002d057 f i libucrt:output.obj
 0001:0002c31f       ?state_case_type@?$output_processor@DV?$stream_output_adapter@D@__crt_stdio_output@@V?$standard_base@DV?$stream_output_adapter@D@__crt_stdio_output@@@2@@__crt_stdio_output@@AAE_NXZ 1002d31f f i libucrt:output.obj
 0001:0002c5d9       ?state_case_type@?$output_processor@DV?$string_output_adapter@D@__crt_stdio_output@@V?$format_validation_base@DV?$string_output_adapter@D@__crt_stdio_output@@@2@@__crt_stdio_output@@AAE_NXZ 1002d5d9 f i libucrt:output.obj
 0001:0002c893       ?state_case_type@?$output_processor@DV?$string_output_adapter@D@__crt_stdio_output@@V?$positional_parameter_base@DV?$string_output_adapter@D@__crt_stdio_output@@@2@@__crt_stdio_output@@AAE_NXZ 1002d893 f i libucrt:output.obj
 0001:0002cb5b       ?state_case_type@?$output_processor@DV?$string_output_adapter@D@__crt_stdio_output@@V?$standard_base@DV?$string_output_adapter@D@__crt_stdio_output@@@2@@__crt_stdio_output@@AAE_NXZ 1002db5b f i libucrt:output.obj
 0001:0002ce15       ?state_case_type@?$output_processor@_WV?$stream_output_adapter@_W@__crt_stdio_output@@V?$format_validation_base@_WV?$stream_output_adapter@_W@__crt_stdio_output@@@2@@__crt_stdio_output@@AAE_NXZ 1002de15 f i libucrt:output.obj
 0001:0002d109       ?state_case_type@?$output_processor@_WV?$stream_output_adapter@_W@__crt_stdio_output@@V?$positional_parameter_base@_WV?$stream_output_adapter@_W@__crt_stdio_output@@@2@@__crt_stdio_output@@AAE_NXZ 1002e109 f i libucrt:output.obj
 0001:0002d410       ?state_case_type@?$output_processor@_WV?$stream_output_adapter@_W@__crt_stdio_output@@V?$standard_base@_WV?$stream_output_adapter@_W@__crt_stdio_output@@@2@@__crt_stdio_output@@AAE_NXZ 1002e410 f i libucrt:output.obj
 0001:0002d704       ?state_case_type@?$output_processor@_WV?$string_output_adapter@_W@__crt_stdio_output@@V?$format_validation_base@_WV?$string_output_adapter@_W@__crt_stdio_output@@@2@@__crt_stdio_output@@AAE_NXZ 1002e704 f i libucrt:output.obj
 0001:0002d9f8       ?state_case_type@?$output_processor@_WV?$string_output_adapter@_W@__crt_stdio_output@@V?$positional_parameter_base@_WV?$string_output_adapter@_W@__crt_stdio_output@@@2@@__crt_stdio_output@@AAE_NXZ 1002e9f8 f i libucrt:output.obj
 0001:0002dcff       ?state_case_type@?$output_processor@_WV?$string_output_adapter@_W@__crt_stdio_output@@V?$standard_base@_WV?$string_output_adapter@_W@__crt_stdio_output@@@2@@__crt_stdio_output@@AAE_NXZ 1002ecff f i libucrt:output.obj
 0001:0002dff3       ?state_case_width@?$output_processor@DV?$stream_output_adapter@D@__crt_stdio_output@@V?$format_validation_base@DV?$stream_output_adapter@D@__crt_stdio_output@@@2@@__crt_stdio_output@@AAE_NXZ 1002eff3 f i libucrt:output.obj
 0001:0002e028       ?state_case_width@?$output_processor@DV?$stream_output_adapter@D@__crt_stdio_output@@V?$positional_parameter_base@DV?$stream_output_adapter@D@__crt_stdio_output@@@2@@__crt_stdio_output@@AAE_NXZ 1002f028 f i libucrt:output.obj
 0001:0002e078       ?state_case_width@?$output_processor@DV?$stream_output_adapter@D@__crt_stdio_output@@V?$standard_base@DV?$stream_output_adapter@D@__crt_stdio_output@@@2@@__crt_stdio_output@@AAE_NXZ 1002f078 f i libucrt:output.obj
 0001:0002e0ad       ?state_case_width@?$output_processor@DV?$string_output_adapter@D@__crt_stdio_output@@V?$format_validation_base@DV?$string_output_adapter@D@__crt_stdio_output@@@2@@__crt_stdio_output@@AAE_NXZ 1002f0ad f i libucrt:output.obj
 0001:0002e0e2       ?state_case_width@?$output_processor@DV?$string_output_adapter@D@__crt_stdio_output@@V?$positional_parameter_base@DV?$string_output_adapter@D@__crt_stdio_output@@@2@@__crt_stdio_output@@AAE_NXZ 1002f0e2 f i libucrt:output.obj
 0001:0002e132       ?state_case_width@?$output_processor@DV?$string_output_adapter@D@__crt_stdio_output@@V?$standard_base@DV?$string_output_adapter@D@__crt_stdio_output@@@2@@__crt_stdio_output@@AAE_NXZ 1002f132 f i libucrt:output.obj
 0001:0002e167       ?state_case_width@?$output_processor@_WV?$stream_output_adapter@_W@__crt_stdio_output@@V?$format_validation_base@_WV?$stream_output_adapter@_W@__crt_stdio_output@@@2@@__crt_stdio_output@@AAE_NXZ 1002f167 f i libucrt:output.obj
 0001:0002e19e       ?state_case_width@?$output_processor@_WV?$stream_output_adapter@_W@__crt_stdio_output@@V?$positional_parameter_base@_WV?$stream_output_adapter@_W@__crt_stdio_output@@@2@@__crt_stdio_output@@AAE_NXZ 1002f19e f i libucrt:output.obj
 0001:0002e1ef       ?state_case_width@?$output_processor@_WV?$stream_output_adapter@_W@__crt_stdio_output@@V?$standard_base@_WV?$stream_output_adapter@_W@__crt_stdio_output@@@2@@__crt_stdio_output@@AAE_NXZ 1002f1ef f i libucrt:output.obj
 0001:0002e226       ?state_case_width@?$output_processor@_WV?$string_output_adapter@_W@__crt_stdio_output@@V?$format_validation_base@_WV?$string_output_adapter@_W@__crt_stdio_output@@@2@@__crt_stdio_output@@AAE_NXZ 1002f226 f i libucrt:output.obj
 0001:0002e25d       ?state_case_width@?$output_processor@_WV?$string_output_adapter@_W@__crt_stdio_output@@V?$positional_parameter_base@_WV?$string_output_adapter@_W@__crt_stdio_output@@@2@@__crt_stdio_output@@AAE_NXZ 1002f25d f i libucrt:output.obj
 0001:0002e2ae       ?state_case_width@?$output_processor@_WV?$string_output_adapter@_W@__crt_stdio_output@@V?$standard_base@_WV?$string_output_adapter@_W@__crt_stdio_output@@@2@@__crt_stdio_output@@AAE_NXZ 1002f2ae f i libucrt:output.obj
 0001:0002e2e5       ?state_count@?$format_validation_base@DV?$stream_output_adapter@D@__crt_stdio_output@@@__crt_stdio_output@@KAIXZ 1002f2e5 f i libucrt:output.obj
 0001:0002e2e9       ?state_count@?$format_validation_base@DV?$string_output_adapter@D@__crt_stdio_output@@@__crt_stdio_output@@KAIXZ 1002f2e9 f i libucrt:output.obj
 0001:0002e2ed       ?state_count@?$format_validation_base@_WV?$stream_output_adapter@_W@__crt_stdio_output@@@__crt_stdio_output@@KAIXZ 1002f2ed f i libucrt:output.obj
 0001:0002e2f1       ?state_count@?$format_validation_base@_WV?$string_output_adapter@_W@__crt_stdio_output@@@__crt_stdio_output@@KAIXZ 1002f2f1 f i libucrt:output.obj
 0001:0002e2f5       ?state_count@?$standard_base@DV?$stream_output_adapter@D@__crt_stdio_output@@@__crt_stdio_output@@KAIXZ 1002f2f5 f i libucrt:output.obj
 0001:0002e2f9       ?state_count@?$standard_base@DV?$string_output_adapter@D@__crt_stdio_output@@@__crt_stdio_output@@KAIXZ 1002f2f9 f i libucrt:output.obj
 0001:0002e2fd       ?state_count@?$standard_base@_WV?$stream_output_adapter@_W@__crt_stdio_output@@@__crt_stdio_output@@KAIXZ 1002f2fd f i libucrt:output.obj
 0001:0002e301       ?state_count@?$standard_base@_WV?$string_output_adapter@_W@__crt_stdio_output@@@__crt_stdio_output@@KAIXZ 1002f301 f i libucrt:output.obj
 0001:0002e305       ?state_transition_table@?$format_validation_base@DV?$stream_output_adapter@D@__crt_stdio_output@@@__crt_stdio_output@@KAPBEXZ 1002f305 f i libucrt:output.obj
 0001:0002e30b       ?state_transition_table@?$format_validation_base@DV?$string_output_adapter@D@__crt_stdio_output@@@__crt_stdio_output@@KAPBEXZ 1002f30b f i libucrt:output.obj
 0001:0002e311       ?state_transition_table@?$format_validation_base@_WV?$stream_output_adapter@_W@__crt_stdio_output@@@__crt_stdio_output@@KAPBEXZ 1002f311 f i libucrt:output.obj
 0001:0002e317       ?state_transition_table@?$format_validation_base@_WV?$string_output_adapter@_W@__crt_stdio_output@@@__crt_stdio_output@@KAPBEXZ 1002f317 f i libucrt:output.obj
 0001:0002e31d       ?state_transition_table@?$standard_base@DV?$stream_output_adapter@D@__crt_stdio_output@@@__crt_stdio_output@@KAPBEXZ 1002f31d f i libucrt:output.obj
 0001:0002e323       ?state_transition_table@?$standard_base@DV?$string_output_adapter@D@__crt_stdio_output@@@__crt_stdio_output@@KAPBEXZ 1002f323 f i libucrt:output.obj
 0001:0002e329       ?state_transition_table@?$standard_base@_WV?$stream_output_adapter@_W@__crt_stdio_output@@@__crt_stdio_output@@KAPBEXZ 1002f329 f i libucrt:output.obj
 0001:0002e32f       ?state_transition_table@?$standard_base@_WV?$string_output_adapter@_W@__crt_stdio_output@@@__crt_stdio_output@@KAPBEXZ 1002f32f f i libucrt:output.obj
 0001:0002e335       ?to_integer_size@__crt_stdio_output@@YAIW4length_modifier@1@@Z 1002f335 f i libucrt:output.obj
 0001:0002e3a8       ?type_case_X@?$output_processor@DV?$stream_output_adapter@D@__crt_stdio_output@@V?$format_validation_base@DV?$stream_output_adapter@D@__crt_stdio_output@@@2@@__crt_stdio_output@@AAE_NXZ 1002f3a8 f i libucrt:output.obj
 0001:0002e3b4       ?type_case_X@?$output_processor@DV?$stream_output_adapter@D@__crt_stdio_output@@V?$positional_parameter_base@DV?$stream_output_adapter@D@__crt_stdio_output@@@2@@__crt_stdio_output@@AAE_NXZ 1002f3b4 f i libucrt:output.obj
 0001:0002e3c0       ?type_case_X@?$output_processor@DV?$stream_output_adapter@D@__crt_stdio_output@@V?$standard_base@DV?$stream_output_adapter@D@__crt_stdio_output@@@2@@__crt_stdio_output@@AAE_NXZ 1002f3c0 f i libucrt:output.obj
 0001:0002e3cc       ?type_case_X@?$output_processor@DV?$string_output_adapter@D@__crt_stdio_output@@V?$format_validation_base@DV?$string_output_adapter@D@__crt_stdio_output@@@2@@__crt_stdio_output@@AAE_NXZ 1002f3cc f i libucrt:output.obj
 0001:0002e3d8       ?type_case_X@?$output_processor@DV?$string_output_adapter@D@__crt_stdio_output@@V?$positional_parameter_base@DV?$string_output_adapter@D@__crt_stdio_output@@@2@@__crt_stdio_output@@AAE_NXZ 1002f3d8 f i libucrt:output.obj
 0001:0002e3e4       ?type_case_X@?$output_processor@DV?$string_output_adapter@D@__crt_stdio_output@@V?$standard_base@DV?$string_output_adapter@D@__crt_stdio_output@@@2@@__crt_stdio_output@@AAE_NXZ 1002f3e4 f i libucrt:output.obj
 0001:0002e3f0       ?type_case_X@?$output_processor@_WV?$stream_output_adapter@_W@__crt_stdio_output@@V?$format_validation_base@_WV?$stream_output_adapter@_W@__crt_stdio_output@@@2@@__crt_stdio_output@@AAE_NXZ 1002f3f0 f i libucrt:output.obj
 0001:0002e3fc       ?type_case_X@?$output_processor@_WV?$stream_output_adapter@_W@__crt_stdio_output@@V?$positional_parameter_base@_WV?$stream_output_adapter@_W@__crt_stdio_output@@@2@@__crt_stdio_output@@AAE_NXZ 1002f3fc f i libucrt:output.obj
 0001:0002e408       ?type_case_X@?$output_processor@_WV?$stream_output_adapter@_W@__crt_stdio_output@@V?$standard_base@_WV?$stream_output_adapter@_W@__crt_stdio_output@@@2@@__crt_stdio_output@@AAE_NXZ 1002f408 f i libucrt:output.obj
 0001:0002e414       ?type_case_X@?$output_processor@_WV?$string_output_adapter@_W@__crt_stdio_output@@V?$format_validation_base@_WV?$string_output_adapter@_W@__crt_stdio_output@@@2@@__crt_stdio_output@@AAE_NXZ 1002f414 f i libucrt:output.obj
 0001:0002e420       ?type_case_X@?$output_processor@_WV?$string_output_adapter@_W@__crt_stdio_output@@V?$positional_parameter_base@_WV?$string_output_adapter@_W@__crt_stdio_output@@@2@@__crt_stdio_output@@AAE_NXZ 1002f420 f i libucrt:output.obj
 0001:0002e42c       ?type_case_X@?$output_processor@_WV?$string_output_adapter@_W@__crt_stdio_output@@V?$standard_base@_WV?$string_output_adapter@_W@__crt_stdio_output@@@2@@__crt_stdio_output@@AAE_NXZ 1002f42c f i libucrt:output.obj
 0001:0002e438       ?type_case_Z@?$output_processor@DV?$stream_output_adapter@D@__crt_stdio_output@@V?$format_validation_base@DV?$stream_output_adapter@D@__crt_stdio_output@@@2@@__crt_stdio_output@@AAE_NXZ 1002f438 f i libucrt:output.obj
 0001:0002e4b3       ?type_case_Z@?$output_processor@DV?$stream_output_adapter@D@__crt_stdio_output@@V?$positional_parameter_base@DV?$stream_output_adapter@D@__crt_stdio_output@@@2@@__crt_stdio_output@@AAE_NXZ 1002f4b3 f i libucrt:output.obj
 0001:0002e551       ?type_case_Z@?$output_processor@DV?$stream_output_adapter@D@__crt_stdio_output@@V?$standard_base@DV?$stream_output_adapter@D@__crt_stdio_output@@@2@@__crt_stdio_output@@AAE_NXZ 1002f551 f i libucrt:output.obj
 0001:0002e5cc       ?type_case_Z@?$output_processor@DV?$string_output_adapter@D@__crt_stdio_output@@V?$format_validation_base@DV?$string_output_adapter@D@__crt_stdio_output@@@2@@__crt_stdio_output@@AAE_NXZ 1002f5cc f i libucrt:output.obj
 0001:0002e647       ?type_case_Z@?$output_processor@DV?$string_output_adapter@D@__crt_stdio_output@@V?$positional_parameter_base@DV?$string_output_adapter@D@__crt_stdio_output@@@2@@__crt_stdio_output@@AAE_NXZ 1002f647 f i libucrt:output.obj
 0001:0002e6e5       ?type_case_Z@?$output_processor@DV?$string_output_adapter@D@__crt_stdio_output@@V?$standard_base@DV?$string_output_adapter@D@__crt_stdio_output@@@2@@__crt_stdio_output@@AAE_NXZ 1002f6e5 f i libucrt:output.obj
 0001:0002e760       ?type_case_Z@?$output_processor@_WV?$stream_output_adapter@_W@__crt_stdio_output@@V?$format_validation_base@_WV?$stream_output_adapter@_W@__crt_stdio_output@@@2@@__crt_stdio_output@@AAE_NXZ 1002f760 f i libucrt:output.obj
 0001:0002e7db       ?type_case_Z@?$output_processor@_WV?$stream_output_adapter@_W@__crt_stdio_output@@V?$positional_parameter_base@_WV?$stream_output_adapter@_W@__crt_stdio_output@@@2@@__crt_stdio_output@@AAE_NXZ 1002f7db f i libucrt:output.obj
 0001:0002e879       ?type_case_Z@?$output_processor@_WV?$stream_output_adapter@_W@__crt_stdio_output@@V?$standard_base@_WV?$stream_output_adapter@_W@__crt_stdio_output@@@2@@__crt_stdio_output@@AAE_NXZ 1002f879 f i libucrt:output.obj
 0001:0002e8f4       ?type_case_Z@?$output_processor@_WV?$string_output_adapter@_W@__crt_stdio_output@@V?$format_validation_base@_WV?$string_output_adapter@_W@__crt_stdio_output@@@2@@__crt_stdio_output@@AAE_NXZ 1002f8f4 f i libucrt:output.obj
 0001:0002e96f       ?type_case_Z@?$output_processor@_WV?$string_output_adapter@_W@__crt_stdio_output@@V?$positional_parameter_base@_WV?$string_output_adapter@_W@__crt_stdio_output@@@2@@__crt_stdio_output@@AAE_NXZ 1002f96f f i libucrt:output.obj
 0001:0002ea0d       ?type_case_Z@?$output_processor@_WV?$string_output_adapter@_W@__crt_stdio_output@@V?$standard_base@_WV?$string_output_adapter@_W@__crt_stdio_output@@@2@@__crt_stdio_output@@AAE_NXZ 1002fa0d f i libucrt:output.obj
 0001:0002ea88       ?type_case_a@?$output_processor@DV?$stream_output_adapter@D@__crt_stdio_output@@V?$format_validation_base@DV?$stream_output_adapter@D@__crt_stdio_output@@@2@@__crt_stdio_output@@AAE_NXZ 1002fa88 f i libucrt:output.obj
 0001:0002ec38       ?type_case_a@?$output_processor@DV?$stream_output_adapter@D@__crt_stdio_output@@V?$positional_parameter_base@DV?$stream_output_adapter@D@__crt_stdio_output@@@2@@__crt_stdio_output@@AAE_NXZ 1002fc38 f i libucrt:output.obj
 0001:0002ee0f       ?type_case_a@?$output_processor@DV?$stream_output_adapter@D@__crt_stdio_output@@V?$standard_base@DV?$stream_output_adapter@D@__crt_stdio_output@@@2@@__crt_stdio_output@@AAE_NXZ 1002fe0f f i libucrt:output.obj
 0001:0002efbf       ?type_case_a@?$output_processor@DV?$string_output_adapter@D@__crt_stdio_output@@V?$format_validation_base@DV?$string_output_adapter@D@__crt_stdio_output@@@2@@__crt_stdio_output@@AAE_NXZ 1002ffbf f i libucrt:output.obj
 0001:0002f16f       ?type_case_a@?$output_processor@DV?$string_output_adapter@D@__crt_stdio_output@@V?$positional_parameter_base@DV?$string_output_adapter@D@__crt_stdio_output@@@2@@__crt_stdio_output@@AAE_NXZ 1003016f f i libucrt:output.obj
 0001:0002f346       ?type_case_a@?$output_processor@DV?$string_output_adapter@D@__crt_stdio_output@@V?$standard_base@DV?$string_output_adapter@D@__crt_stdio_output@@@2@@__crt_stdio_output@@AAE_NXZ 10030346 f i libucrt:output.obj
 0001:0002f4f6       ?type_case_a@?$output_processor@_WV?$stream_output_adapter@_W@__crt_stdio_output@@V?$format_validation_base@_WV?$stream_output_adapter@_W@__crt_stdio_output@@@2@@__crt_stdio_output@@AAE_NXZ 100304f6 f i libucrt:output.obj
 0001:0002f6c4       ?type_case_a@?$output_processor@_WV?$stream_output_adapter@_W@__crt_stdio_output@@V?$positional_parameter_base@_WV?$stream_output_adapter@_W@__crt_stdio_output@@@2@@__crt_stdio_output@@AAE_NXZ 100306c4 f i libucrt:output.obj
 0001:0002f8b9       ?type_case_a@?$output_processor@_WV?$stream_output_adapter@_W@__crt_stdio_output@@V?$standard_base@_WV?$stream_output_adapter@_W@__crt_stdio_output@@@2@@__crt_stdio_output@@AAE_NXZ 100308b9 f i libucrt:output.obj
 0001:0002fa87       ?type_case_a@?$output_processor@_WV?$string_output_adapter@_W@__crt_stdio_output@@V?$format_validation_base@_WV?$string_output_adapter@_W@__crt_stdio_output@@@2@@__crt_stdio_output@@AAE_NXZ 10030a87 f i libucrt:output.obj
 0001:0002fc55       ?type_case_a@?$output_processor@_WV?$string_output_adapter@_W@__crt_stdio_output@@V?$positional_parameter_base@_WV?$string_output_adapter@_W@__crt_stdio_output@@@2@@__crt_stdio_output@@AAE_NXZ 10030c55 f i libucrt:output.obj
 0001:0002fe4a       ?type_case_a@?$output_processor@_WV?$string_output_adapter@_W@__crt_stdio_output@@V?$standard_base@_WV?$string_output_adapter@_W@__crt_stdio_output@@@2@@__crt_stdio_output@@AAE_NXZ 10030e4a f i libucrt:output.obj
 0001:00030018       ?type_case_c@?$output_processor@DV?$stream_output_adapter@D@__crt_stdio_output@@V?$format_validation_base@DV?$stream_output_adapter@D@__crt_stdio_output@@@2@@__crt_stdio_output@@AAE_NXZ 10031018 f i libucrt:output.obj
 0001:00030022       ?type_case_c@?$output_processor@DV?$stream_output_adapter@D@__crt_stdio_output@@V?$positional_parameter_base@DV?$stream_output_adapter@D@__crt_stdio_output@@@2@@__crt_stdio_output@@AAE_NXZ 10031022 f i libucrt:output.obj
 0001:0003002c       ?type_case_c@?$output_processor@DV?$stream_output_adapter@D@__crt_stdio_output@@V?$standard_base@DV?$stream_output_adapter@D@__crt_stdio_output@@@2@@__crt_stdio_output@@AAE_NXZ 1003102c f i libucrt:output.obj
 0001:00030036       ?type_case_c@?$output_processor@DV?$string_output_adapter@D@__crt_stdio_output@@V?$format_validation_base@DV?$string_output_adapter@D@__crt_stdio_output@@@2@@__crt_stdio_output@@AAE_NXZ 10031036 f i libucrt:output.obj
 0001:00030040       ?type_case_c@?$output_processor@DV?$string_output_adapter@D@__crt_stdio_output@@V?$positional_parameter_base@DV?$string_output_adapter@D@__crt_stdio_output@@@2@@__crt_stdio_output@@AAE_NXZ 10031040 f i libucrt:output.obj
 0001:0003004a       ?type_case_c@?$output_processor@DV?$string_output_adapter@D@__crt_stdio_output@@V?$standard_base@DV?$string_output_adapter@D@__crt_stdio_output@@@2@@__crt_stdio_output@@AAE_NXZ 1003104a f i libucrt:output.obj
 0001:00030054       ?type_case_c@?$output_processor@_WV?$stream_output_adapter@_W@__crt_stdio_output@@V?$format_validation_base@_WV?$stream_output_adapter@_W@__crt_stdio_output@@@2@@__crt_stdio_output@@AAE_NXZ 10031054 f i libucrt:output.obj
 0001:0003005e       ?type_case_c@?$output_processor@_WV?$stream_output_adapter@_W@__crt_stdio_output@@V?$positional_parameter_base@_WV?$stream_output_adapter@_W@__crt_stdio_output@@@2@@__crt_stdio_output@@AAE_NXZ 1003105e f i libucrt:output.obj
 0001:00030068       ?type_case_c@?$output_processor@_WV?$stream_output_adapter@_W@__crt_stdio_output@@V?$standard_base@_WV?$stream_output_adapter@_W@__crt_stdio_output@@@2@@__crt_stdio_output@@AAE_NXZ 10031068 f i libucrt:output.obj
 0001:00030072       ?type_case_c@?$output_processor@_WV?$string_output_adapter@_W@__crt_stdio_output@@V?$format_validation_base@_WV?$string_output_adapter@_W@__crt_stdio_output@@@2@@__crt_stdio_output@@AAE_NXZ 10031072 f i libucrt:output.obj
 0001:0003007c       ?type_case_c@?$output_processor@_WV?$string_output_adapter@_W@__crt_stdio_output@@V?$positional_parameter_base@_WV?$string_output_adapter@_W@__crt_stdio_output@@@2@@__crt_stdio_output@@AAE_NXZ 1003107c f i libucrt:output.obj
 0001:00030086       ?type_case_c@?$output_processor@_WV?$string_output_adapter@_W@__crt_stdio_output@@V?$standard_base@_WV?$string_output_adapter@_W@__crt_stdio_output@@@2@@__crt_stdio_output@@AAE_NXZ 10031086 f i libucrt:output.obj
 0001:00030090       ?type_case_c_tchar@?$output_processor@DV?$stream_output_adapter@D@__crt_stdio_output@@V?$format_validation_base@DV?$stream_output_adapter@D@__crt_stdio_output@@@2@@__crt_stdio_output@@AAE_ND@Z 10031090 f i libucrt:output.obj
 0001:00030144       ?type_case_c_tchar@?$output_processor@DV?$stream_output_adapter@D@__crt_stdio_output@@V?$positional_parameter_base@DV?$stream_output_adapter@D@__crt_stdio_output@@@2@@__crt_stdio_output@@AAE_ND@Z 10031144 f i libucrt:output.obj
 0001:00030234       ?type_case_c_tchar@?$output_processor@DV?$stream_output_adapter@D@__crt_stdio_output@@V?$standard_base@DV?$stream_output_adapter@D@__crt_stdio_output@@@2@@__crt_stdio_output@@AAE_ND@Z 10031234 f i libucrt:output.obj
 0001:000302e8       ?type_case_c_tchar@?$output_processor@DV?$string_output_adapter@D@__crt_stdio_output@@V?$format_validation_base@DV?$string_output_adapter@D@__crt_stdio_output@@@2@@__crt_stdio_output@@AAE_ND@Z 100312e8 f i libucrt:output.obj
 0001:0003039c       ?type_case_c_tchar@?$output_processor@DV?$string_output_adapter@D@__crt_stdio_output@@V?$positional_parameter_base@DV?$string_output_adapter@D@__crt_stdio_output@@@2@@__crt_stdio_output@@AAE_ND@Z 1003139c f i libucrt:output.obj
 0001:0003048c       ?type_case_c_tchar@?$output_processor@DV?$string_output_adapter@D@__crt_stdio_output@@V?$standard_base@DV?$string_output_adapter@D@__crt_stdio_output@@@2@@__crt_stdio_output@@AAE_ND@Z 1003148c f i libucrt:output.obj
 0001:00030540       ?type_case_c_tchar@?$output_processor@_WV?$stream_output_adapter@_W@__crt_stdio_output@@V?$format_validation_base@_WV?$stream_output_adapter@_W@__crt_stdio_output@@@2@@__crt_stdio_output@@AAE_N_W@Z 10031540 f i libucrt:output.obj
 0001:000305fe       ?type_case_c_tchar@?$output_processor@_WV?$stream_output_adapter@_W@__crt_stdio_output@@V?$positional_parameter_base@_WV?$stream_output_adapter@_W@__crt_stdio_output@@@2@@__crt_stdio_output@@AAE_N_W@Z 100315fe f i libucrt:output.obj
 0001:000306d8       ?type_case_c_tchar@?$output_processor@_WV?$stream_output_adapter@_W@__crt_stdio_output@@V?$standard_base@_WV?$stream_output_adapter@_W@__crt_stdio_output@@@2@@__crt_stdio_output@@AAE_N_W@Z 100316d8 f i libucrt:output.obj
 0001:00030796       ?type_case_c_tchar@?$output_processor@_WV?$string_output_adapter@_W@__crt_stdio_output@@V?$format_validation_base@_WV?$string_output_adapter@_W@__crt_stdio_output@@@2@@__crt_stdio_output@@AAE_N_W@Z 10031796 f i libucrt:output.obj
 0001:00030854       ?type_case_c_tchar@?$output_processor@_WV?$string_output_adapter@_W@__crt_stdio_output@@V?$positional_parameter_base@_WV?$string_output_adapter@_W@__crt_stdio_output@@@2@@__crt_stdio_output@@AAE_N_W@Z 10031854 f i libucrt:output.obj
 0001:0003092e       ?type_case_c_tchar@?$output_processor@_WV?$string_output_adapter@_W@__crt_stdio_output@@V?$standard_base@_WV?$string_output_adapter@_W@__crt_stdio_output@@@2@@__crt_stdio_output@@AAE_N_W@Z 1003192e f i libucrt:output.obj
 0001:000309ec       ?type_case_d@?$output_processor@DV?$stream_output_adapter@D@__crt_stdio_output@@V?$format_validation_base@DV?$stream_output_adapter@D@__crt_stdio_output@@@2@@__crt_stdio_output@@AAE_NXZ 100319ec f i libucrt:output.obj
 0001:000309fd       ?type_case_d@?$output_processor@DV?$stream_output_adapter@D@__crt_stdio_output@@V?$positional_parameter_base@DV?$stream_output_adapter@D@__crt_stdio_output@@@2@@__crt_stdio_output@@AAE_NXZ 100319fd f i libucrt:output.obj
 0001:00030a0e       ?type_case_d@?$output_processor@DV?$stream_output_adapter@D@__crt_stdio_output@@V?$standard_base@DV?$stream_output_adapter@D@__crt_stdio_output@@@2@@__crt_stdio_output@@AAE_NXZ 10031a0e f i libucrt:output.obj
 0001:00030a1f       ?type_case_d@?$output_processor@DV?$string_output_adapter@D@__crt_stdio_output@@V?$format_validation_base@DV?$string_output_adapter@D@__crt_stdio_output@@@2@@__crt_stdio_output@@AAE_NXZ 10031a1f f i libucrt:output.obj
 0001:00030a30       ?type_case_d@?$output_processor@DV?$string_output_adapter@D@__crt_stdio_output@@V?$positional_parameter_base@DV?$string_output_adapter@D@__crt_stdio_output@@@2@@__crt_stdio_output@@AAE_NXZ 10031a30 f i libucrt:output.obj
 0001:00030a41       ?type_case_d@?$output_processor@DV?$string_output_adapter@D@__crt_stdio_output@@V?$standard_base@DV?$string_output_adapter@D@__crt_stdio_output@@@2@@__crt_stdio_output@@AAE_NXZ 10031a41 f i libucrt:output.obj
 0001:00030a52       ?type_case_d@?$output_processor@_WV?$stream_output_adapter@_W@__crt_stdio_output@@V?$format_validation_base@_WV?$stream_output_adapter@_W@__crt_stdio_output@@@2@@__crt_stdio_output@@AAE_NXZ 10031a52 f i libucrt:output.obj
 0001:00030a63       ?type_case_d@?$output_processor@_WV?$stream_output_adapter@_W@__crt_stdio_output@@V?$positional_parameter_base@_WV?$stream_output_adapter@_W@__crt_stdio_output@@@2@@__crt_stdio_output@@AAE_NXZ 10031a63 f i libucrt:output.obj
 0001:00030a74       ?type_case_d@?$output_processor@_WV?$stream_output_adapter@_W@__crt_stdio_output@@V?$standard_base@_WV?$stream_output_adapter@_W@__crt_stdio_output@@@2@@__crt_stdio_output@@AAE_NXZ 10031a74 f i libucrt:output.obj
 0001:00030a85       ?type_case_d@?$output_processor@_WV?$string_output_adapter@_W@__crt_stdio_output@@V?$format_validation_base@_WV?$string_output_adapter@_W@__crt_stdio_output@@@2@@__crt_stdio_output@@AAE_NXZ 10031a85 f i libucrt:output.obj
 0001:00030a96       ?type_case_d@?$output_processor@_WV?$string_output_adapter@_W@__crt_stdio_output@@V?$positional_parameter_base@_WV?$string_output_adapter@_W@__crt_stdio_output@@@2@@__crt_stdio_output@@AAE_NXZ 10031a96 f i libucrt:output.obj
 0001:00030aa7       ?type_case_d@?$output_processor@_WV?$string_output_adapter@_W@__crt_stdio_output@@V?$standard_base@_WV?$string_output_adapter@_W@__crt_stdio_output@@@2@@__crt_stdio_output@@AAE_NXZ 10031aa7 f i libucrt:output.obj
 0001:00030ab8       ?type_case_integer@?$output_processor@DV?$stream_output_adapter@D@__crt_stdio_output@@V?$format_validation_base@DV?$stream_output_adapter@D@__crt_stdio_output@@@2@@__crt_stdio_output@@AAE_NI_N@Z 10031ab8 f i libucrt:output.obj
 0001:00030c54       ?type_case_integer@?$output_processor@DV?$stream_output_adapter@D@__crt_stdio_output@@V?$positional_parameter_base@DV?$stream_output_adapter@D@__crt_stdio_output@@@2@@__crt_stdio_output@@AAE_NI_N@Z 10031c54 f i libucrt:output.obj
 0001:00030e31       ?type_case_integer@?$output_processor@DV?$stream_output_adapter@D@__crt_stdio_output@@V?$standard_base@DV?$stream_output_adapter@D@__crt_stdio_output@@@2@@__crt_stdio_output@@AAE_NI_N@Z 10031e31 f i libucrt:output.obj
 0001:00030fcd       ?type_case_integer@?$output_processor@DV?$string_output_adapter@D@__crt_stdio_output@@V?$format_validation_base@DV?$string_output_adapter@D@__crt_stdio_output@@@2@@__crt_stdio_output@@AAE_NI_N@Z 10031fcd f i libucrt:output.obj
 0001:00031169       ?type_case_integer@?$output_processor@DV?$string_output_adapter@D@__crt_stdio_output@@V?$positional_parameter_base@DV?$string_output_adapter@D@__crt_stdio_output@@@2@@__crt_stdio_output@@AAE_NI_N@Z 10032169 f i libucrt:output.obj
 0001:00031346       ?type_case_integer@?$output_processor@DV?$string_output_adapter@D@__crt_stdio_output@@V?$standard_base@DV?$string_output_adapter@D@__crt_stdio_output@@@2@@__crt_stdio_output@@AAE_NI_N@Z 10032346 f i libucrt:output.obj
 0001:000314e2       ?type_case_integer@?$output_processor@_WV?$stream_output_adapter@_W@__crt_stdio_output@@V?$format_validation_base@_WV?$stream_output_adapter@_W@__crt_stdio_output@@@2@@__crt_stdio_output@@AAE_NI_N@Z 100324e2 f i libucrt:output.obj
 0001:0003167e       ?type_case_integer@?$output_processor@_WV?$stream_output_adapter@_W@__crt_stdio_output@@V?$positional_parameter_base@_WV?$stream_output_adapter@_W@__crt_stdio_output@@@2@@__crt_stdio_output@@AAE_NI_N@Z 1003267e f i libucrt:output.obj
 0001:0003185b       ?type_case_integer@?$output_processor@_WV?$stream_output_adapter@_W@__crt_stdio_output@@V?$standard_base@_WV?$stream_output_adapter@_W@__crt_stdio_output@@@2@@__crt_stdio_output@@AAE_NI_N@Z 1003285b f i libucrt:output.obj
 0001:000319f7       ?type_case_integer@?$output_processor@_WV?$string_output_adapter@_W@__crt_stdio_output@@V?$format_validation_base@_WV?$string_output_adapter@_W@__crt_stdio_output@@@2@@__crt_stdio_output@@AAE_NI_N@Z 100329f7 f i libucrt:output.obj
 0001:00031b93       ?type_case_integer@?$output_processor@_WV?$string_output_adapter@_W@__crt_stdio_output@@V?$positional_parameter_base@_WV?$string_output_adapter@_W@__crt_stdio_output@@@2@@__crt_stdio_output@@AAE_NI_N@Z 10032b93 f i libucrt:output.obj
 0001:00031d70       ?type_case_integer@?$output_processor@_WV?$string_output_adapter@_W@__crt_stdio_output@@V?$standard_base@_WV?$string_output_adapter@_W@__crt_stdio_output@@@2@@__crt_stdio_output@@AAE_NI_N@Z 10032d70 f i libucrt:output.obj
 0001:00031f0c       ?type_case_n@?$output_processor@DV?$stream_output_adapter@D@__crt_stdio_output@@V?$format_validation_base@DV?$stream_output_adapter@D@__crt_stdio_output@@@2@@__crt_stdio_output@@AAE_NXZ 10032f0c f i libucrt:output.obj
 0001:00031f9d       ?type_case_n@?$output_processor@DV?$stream_output_adapter@D@__crt_stdio_output@@V?$positional_parameter_base@DV?$stream_output_adapter@D@__crt_stdio_output@@@2@@__crt_stdio_output@@AAE_NXZ 10032f9d f i libucrt:output.obj
 0001:0003205c       ?type_case_n@?$output_processor@DV?$stream_output_adapter@D@__crt_stdio_output@@V?$standard_base@DV?$stream_output_adapter@D@__crt_stdio_output@@@2@@__crt_stdio_output@@AAE_NXZ 1003305c f i libucrt:output.obj
 0001:000320ed       ?type_case_n@?$output_processor@DV?$string_output_adapter@D@__crt_stdio_output@@V?$format_validation_base@DV?$string_output_adapter@D@__crt_stdio_output@@@2@@__crt_stdio_output@@AAE_NXZ 100330ed f i libucrt:output.obj
 0001:0003217e       ?type_case_n@?$output_processor@DV?$string_output_adapter@D@__crt_stdio_output@@V?$positional_parameter_base@DV?$string_output_adapter@D@__crt_stdio_output@@@2@@__crt_stdio_output@@AAE_NXZ 1003317e f i libucrt:output.obj
 0001:0003223d       ?type_case_n@?$output_processor@DV?$string_output_adapter@D@__crt_stdio_output@@V?$standard_base@DV?$string_output_adapter@D@__crt_stdio_output@@@2@@__crt_stdio_output@@AAE_NXZ 1003323d f i libucrt:output.obj
 0001:000322ce       ?type_case_n@?$output_processor@_WV?$stream_output_adapter@_W@__crt_stdio_output@@V?$format_validation_base@_WV?$stream_output_adapter@_W@__crt_stdio_output@@@2@@__crt_stdio_output@@AAE_NXZ 100332ce f i libucrt:output.obj
 0001:0003235f       ?type_case_n@?$output_processor@_WV?$stream_output_adapter@_W@__crt_stdio_output@@V?$positional_parameter_base@_WV?$stream_output_adapter@_W@__crt_stdio_output@@@2@@__crt_stdio_output@@AAE_NXZ 1003335f f i libucrt:output.obj
 0001:0003241e       ?type_case_n@?$output_processor@_WV?$stream_output_adapter@_W@__crt_stdio_output@@V?$standard_base@_WV?$stream_output_adapter@_W@__crt_stdio_output@@@2@@__crt_stdio_output@@AAE_NXZ 1003341e f i libucrt:output.obj
 0001:000324af       ?type_case_n@?$output_processor@_WV?$string_output_adapter@_W@__crt_stdio_output@@V?$format_validation_base@_WV?$string_output_adapter@_W@__crt_stdio_output@@@2@@__crt_stdio_output@@AAE_NXZ 100334af f i libucrt:output.obj
 0001:00032540       ?type_case_n@?$output_processor@_WV?$string_output_adapter@_W@__crt_stdio_output@@V?$positional_parameter_base@_WV?$string_output_adapter@_W@__crt_stdio_output@@@2@@__crt_stdio_output@@AAE_NXZ 10033540 f i libucrt:output.obj
 0001:000325ff       ?type_case_n@?$output_processor@_WV?$string_output_adapter@_W@__crt_stdio_output@@V?$standard_base@_WV?$string_output_adapter@_W@__crt_stdio_output@@@2@@__crt_stdio_output@@AAE_NXZ 100335ff f i libucrt:output.obj
 0001:00032690       ?type_case_o@?$output_processor@DV?$stream_output_adapter@D@__crt_stdio_output@@V?$format_validation_base@DV?$stream_output_adapter@D@__crt_stdio_output@@@2@@__crt_stdio_output@@AAE_NXZ 10033690 f i libucrt:output.obj
 0001:000326b6       ?type_case_o@?$output_processor@DV?$stream_output_adapter@D@__crt_stdio_output@@V?$positional_parameter_base@DV?$stream_output_adapter@D@__crt_stdio_output@@@2@@__crt_stdio_output@@AAE_NXZ 100336b6 f i libucrt:output.obj
 0001:000326dc       ?type_case_o@?$output_processor@DV?$stream_output_adapter@D@__crt_stdio_output@@V?$standard_base@DV?$stream_output_adapter@D@__crt_stdio_output@@@2@@__crt_stdio_output@@AAE_NXZ 100336dc f i libucrt:output.obj
 0001:00032702       ?type_case_o@?$output_processor@DV?$string_output_adapter@D@__crt_stdio_output@@V?$format_validation_base@DV?$string_output_adapter@D@__crt_stdio_output@@@2@@__crt_stdio_output@@AAE_NXZ 10033702 f i libucrt:output.obj
 0001:00032728       ?type_case_o@?$output_processor@DV?$string_output_adapter@D@__crt_stdio_output@@V?$positional_parameter_base@DV?$string_output_adapter@D@__crt_stdio_output@@@2@@__crt_stdio_output@@AAE_NXZ 10033728 f i libucrt:output.obj
 0001:0003274e       ?type_case_o@?$output_processor@DV?$string_output_adapter@D@__crt_stdio_output@@V?$standard_base@DV?$string_output_adapter@D@__crt_stdio_output@@@2@@__crt_stdio_output@@AAE_NXZ 1003374e f i libucrt:output.obj
 0001:00032774       ?type_case_o@?$output_processor@_WV?$stream_output_adapter@_W@__crt_stdio_output@@V?$format_validation_base@_WV?$stream_output_adapter@_W@__crt_stdio_output@@@2@@__crt_stdio_output@@AAE_NXZ 10033774 f i libucrt:output.obj
 0001:0003279a       ?type_case_o@?$output_processor@_WV?$stream_output_adapter@_W@__crt_stdio_output@@V?$positional_parameter_base@_WV?$stream_output_adapter@_W@__crt_stdio_output@@@2@@__crt_stdio_output@@AAE_NXZ 1003379a f i libucrt:output.obj
 0001:000327c0       ?type_case_o@?$output_processor@_WV?$stream_output_adapter@_W@__crt_stdio_output@@V?$standard_base@_WV?$stream_output_adapter@_W@__crt_stdio_output@@@2@@__crt_stdio_output@@AAE_NXZ 100337c0 f i libucrt:output.obj
 0001:000327e6       ?type_case_o@?$output_processor@_WV?$string_output_adapter@_W@__crt_stdio_output@@V?$format_validation_base@_WV?$string_output_adapter@_W@__crt_stdio_output@@@2@@__crt_stdio_output@@AAE_NXZ 100337e6 f i libucrt:output.obj
 0001:0003280c       ?type_case_o@?$output_processor@_WV?$string_output_adapter@_W@__crt_stdio_output@@V?$positional_parameter_base@_WV?$string_output_adapter@_W@__crt_stdio_output@@@2@@__crt_stdio_output@@AAE_NXZ 1003380c f i libucrt:output.obj
 0001:00032832       ?type_case_o@?$output_processor@_WV?$string_output_adapter@_W@__crt_stdio_output@@V?$standard_base@_WV?$string_output_adapter@_W@__crt_stdio_output@@@2@@__crt_stdio_output@@AAE_NXZ 10033832 f i libucrt:output.obj
 0001:00032858       ?type_case_p@?$output_processor@DV?$stream_output_adapter@D@__crt_stdio_output@@V?$format_validation_base@DV?$stream_output_adapter@D@__crt_stdio_output@@@2@@__crt_stdio_output@@AAE_NXZ 10033858 f i libucrt:output.obj
 0001:00032876       ?type_case_p@?$output_processor@DV?$stream_output_adapter@D@__crt_stdio_output@@V?$positional_parameter_base@DV?$stream_output_adapter@D@__crt_stdio_output@@@2@@__crt_stdio_output@@AAE_NXZ 10033876 f i libucrt:output.obj
 0001:00032894       ?type_case_p@?$output_processor@DV?$stream_output_adapter@D@__crt_stdio_output@@V?$standard_base@DV?$stream_output_adapter@D@__crt_stdio_output@@@2@@__crt_stdio_output@@AAE_NXZ 10033894 f i libucrt:output.obj
 0001:000328b2       ?type_case_p@?$output_processor@DV?$string_output_adapter@D@__crt_stdio_output@@V?$format_validation_base@DV?$string_output_adapter@D@__crt_stdio_output@@@2@@__crt_stdio_output@@AAE_NXZ 100338b2 f i libucrt:output.obj
 0001:000328d0       ?type_case_p@?$output_processor@DV?$string_output_adapter@D@__crt_stdio_output@@V?$positional_parameter_base@DV?$string_output_adapter@D@__crt_stdio_output@@@2@@__crt_stdio_output@@AAE_NXZ 100338d0 f i libucrt:output.obj
 0001:000328ee       ?type_case_p@?$output_processor@DV?$string_output_adapter@D@__crt_stdio_output@@V?$standard_base@DV?$string_output_adapter@D@__crt_stdio_output@@@2@@__crt_stdio_output@@AAE_NXZ 100338ee f i libucrt:output.obj
 0001:0003290c       ?type_case_p@?$output_processor@_WV?$stream_output_adapter@_W@__crt_stdio_output@@V?$format_validation_base@_WV?$stream_output_adapter@_W@__crt_stdio_output@@@2@@__crt_stdio_output@@AAE_NXZ 1003390c f i libucrt:output.obj
 0001:0003292a       ?type_case_p@?$output_processor@_WV?$stream_output_adapter@_W@__crt_stdio_output@@V?$positional_parameter_base@_WV?$stream_output_adapter@_W@__crt_stdio_output@@@2@@__crt_stdio_output@@AAE_NXZ 1003392a f i libucrt:output.obj
 0001:00032948       ?type_case_p@?$output_processor@_WV?$stream_output_adapter@_W@__crt_stdio_output@@V?$standard_base@_WV?$stream_output_adapter@_W@__crt_stdio_output@@@2@@__crt_stdio_output@@AAE_NXZ 10033948 f i libucrt:output.obj
 0001:00032966       ?type_case_p@?$output_processor@_WV?$string_output_adapter@_W@__crt_stdio_output@@V?$format_validation_base@_WV?$string_output_adapter@_W@__crt_stdio_output@@@2@@__crt_stdio_output@@AAE_NXZ 10033966 f i libucrt:output.obj
 0001:00032984       ?type_case_p@?$output_processor@_WV?$string_output_adapter@_W@__crt_stdio_output@@V?$positional_parameter_base@_WV?$string_output_adapter@_W@__crt_stdio_output@@@2@@__crt_stdio_output@@AAE_NXZ 10033984 f i libucrt:output.obj
 0001:000329a2       ?type_case_p@?$output_processor@_WV?$string_output_adapter@_W@__crt_stdio_output@@V?$standard_base@_WV?$string_output_adapter@_W@__crt_stdio_output@@@2@@__crt_stdio_output@@AAE_NXZ 100339a2 f i libucrt:output.obj
 0001:000329c0       ?type_case_s@?$output_processor@DV?$stream_output_adapter@D@__crt_stdio_output@@V?$format_validation_base@DV?$stream_output_adapter@D@__crt_stdio_output@@@2@@__crt_stdio_output@@AAE_NXZ 100339c0 f i libucrt:output.obj
 0001:00032a4f       ?type_case_s@?$output_processor@DV?$stream_output_adapter@D@__crt_stdio_output@@V?$positional_parameter_base@DV?$stream_output_adapter@D@__crt_stdio_output@@@2@@__crt_stdio_output@@AAE_NXZ 10033a4f f i libucrt:output.obj
 0001:00032aea       ?type_case_s@?$output_processor@DV?$stream_output_adapter@D@__crt_stdio_output@@V?$standard_base@DV?$stream_output_adapter@D@__crt_stdio_output@@@2@@__crt_stdio_output@@AAE_NXZ 10033aea f i libucrt:output.obj
 0001:00032b79       ?type_case_s@?$output_processor@DV?$string_output_adapter@D@__crt_stdio_output@@V?$format_validation_base@DV?$string_output_adapter@D@__crt_stdio_output@@@2@@__crt_stdio_output@@AAE_NXZ 10033b79 f i libucrt:output.obj
 0001:00032c08       ?type_case_s@?$output_processor@DV?$string_output_adapter@D@__crt_stdio_output@@V?$positional_parameter_base@DV?$string_output_adapter@D@__crt_stdio_output@@@2@@__crt_stdio_output@@AAE_NXZ 10033c08 f i libucrt:output.obj
 0001:00032ca3       ?type_case_s@?$output_processor@DV?$string_output_adapter@D@__crt_stdio_output@@V?$standard_base@DV?$string_output_adapter@D@__crt_stdio_output@@@2@@__crt_stdio_output@@AAE_NXZ 10033ca3 f i libucrt:output.obj
 0001:00032d32       ?type_case_s@?$output_processor@_WV?$stream_output_adapter@_W@__crt_stdio_output@@V?$format_validation_base@_WV?$stream_output_adapter@_W@__crt_stdio_output@@@2@@__crt_stdio_output@@AAE_NXZ 10033d32 f i libucrt:output.obj
 0001:00032dc3       ?type_case_s@?$output_processor@_WV?$stream_output_adapter@_W@__crt_stdio_output@@V?$positional_parameter_base@_WV?$stream_output_adapter@_W@__crt_stdio_output@@@2@@__crt_stdio_output@@AAE_NXZ 10033dc3 f i libucrt:output.obj
 0001:00032e60       ?type_case_s@?$output_processor@_WV?$stream_output_adapter@_W@__crt_stdio_output@@V?$standard_base@_WV?$stream_output_adapter@_W@__crt_stdio_output@@@2@@__crt_stdio_output@@AAE_NXZ 10033e60 f i libucrt:output.obj
 0001:00032ef1       ?type_case_s@?$output_processor@_WV?$string_output_adapter@_W@__crt_stdio_output@@V?$format_validation_base@_WV?$string_output_adapter@_W@__crt_stdio_output@@@2@@__crt_stdio_output@@AAE_NXZ 10033ef1 f i libucrt:output.obj
 0001:00032f82       ?type_case_s@?$output_processor@_WV?$string_output_adapter@_W@__crt_stdio_output@@V?$positional_parameter_base@_WV?$string_output_adapter@_W@__crt_stdio_output@@@2@@__crt_stdio_output@@AAE_NXZ 10033f82 f i libucrt:output.obj
 0001:0003301f       ?type_case_s@?$output_processor@_WV?$string_output_adapter@_W@__crt_stdio_output@@V?$standard_base@_WV?$string_output_adapter@_W@__crt_stdio_output@@@2@@__crt_stdio_output@@AAE_NXZ 1003401f f i libucrt:output.obj
 0001:000330b0       ?type_case_s_compute_narrow_string_length@?$output_processor@DV?$stream_output_adapter@D@__crt_stdio_output@@V?$format_validation_base@DV?$stream_output_adapter@D@__crt_stdio_output@@@2@@__crt_stdio_output@@ABEHHD@Z 100340b0 f i libucrt:output.obj
 0001:000330cb       ?type_case_s_compute_narrow_string_length@?$output_processor@DV?$stream_output_adapter@D@__crt_stdio_output@@V?$positional_parameter_base@DV?$stream_output_adapter@D@__crt_stdio_output@@@2@@__crt_stdio_output@@ABEHHD@Z 100340cb f i libucrt:output.obj
 0001:000330e6       ?type_case_s_compute_narrow_string_length@?$output_processor@DV?$stream_output_adapter@D@__crt_stdio_output@@V?$standard_base@DV?$stream_output_adapter@D@__crt_stdio_output@@@2@@__crt_stdio_output@@ABEHHD@Z 100340e6 f i libucrt:output.obj
 0001:00033101       ?type_case_s_compute_narrow_string_length@?$output_processor@DV?$string_output_adapter@D@__crt_stdio_output@@V?$format_validation_base@DV?$string_output_adapter@D@__crt_stdio_output@@@2@@__crt_stdio_output@@ABEHHD@Z 10034101 f i libucrt:output.obj
 0001:0003311c       ?type_case_s_compute_narrow_string_length@?$output_processor@DV?$string_output_adapter@D@__crt_stdio_output@@V?$positional_parameter_base@DV?$string_output_adapter@D@__crt_stdio_output@@@2@@__crt_stdio_output@@ABEHHD@Z 1003411c f i libucrt:output.obj
 0001:00033137       ?type_case_s_compute_narrow_string_length@?$output_processor@DV?$string_output_adapter@D@__crt_stdio_output@@V?$standard_base@DV?$string_output_adapter@D@__crt_stdio_output@@@2@@__crt_stdio_output@@ABEHHD@Z 10034137 f i libucrt:output.obj
 0001:00033152       ?type_case_s_compute_narrow_string_length@?$output_processor@_WV?$stream_output_adapter@_W@__crt_stdio_output@@V?$format_validation_base@_WV?$stream_output_adapter@_W@__crt_stdio_output@@@2@@__crt_stdio_output@@ABEHH_W@Z 10034152 f i libucrt:output.obj
 0001:000331a2       ?type_case_s_compute_narrow_string_length@?$output_processor@_WV?$stream_output_adapter@_W@__crt_stdio_output@@V?$positional_parameter_base@_WV?$stream_output_adapter@_W@__crt_stdio_output@@@2@@__crt_stdio_output@@ABEHH_W@Z 100341a2 f i libucrt:output.obj
 0001:000331f2       ?type_case_s_compute_narrow_string_length@?$output_processor@_WV?$stream_output_adapter@_W@__crt_stdio_output@@V?$standard_base@_WV?$stream_output_adapter@_W@__crt_stdio_output@@@2@@__crt_stdio_output@@ABEHH_W@Z 100341f2 f i libucrt:output.obj
 0001:00033242       ?type_case_s_compute_narrow_string_length@?$output_processor@_WV?$string_output_adapter@_W@__crt_stdio_output@@V?$format_validation_base@_WV?$string_output_adapter@_W@__crt_stdio_output@@@2@@__crt_stdio_output@@ABEHH_W@Z 10034242 f i libucrt:output.obj
 0001:00033292       ?type_case_s_compute_narrow_string_length@?$output_processor@_WV?$string_output_adapter@_W@__crt_stdio_output@@V?$positional_parameter_base@_WV?$string_output_adapter@_W@__crt_stdio_output@@@2@@__crt_stdio_output@@ABEHH_W@Z 10034292 f i libucrt:output.obj
 0001:000332e2       ?type_case_s_compute_narrow_string_length@?$output_processor@_WV?$string_output_adapter@_W@__crt_stdio_output@@V?$standard_base@_WV?$string_output_adapter@_W@__crt_stdio_output@@@2@@__crt_stdio_output@@ABEHH_W@Z 100342e2 f i libucrt:output.obj
 0001:00033332       ?type_case_u@?$output_processor@DV?$stream_output_adapter@D@__crt_stdio_output@@V?$format_validation_base@DV?$stream_output_adapter@D@__crt_stdio_output@@@2@@__crt_stdio_output@@AAE_NXZ 10034332 f i libucrt:output.obj
 0001:0003333e       ?type_case_u@?$output_processor@DV?$stream_output_adapter@D@__crt_stdio_output@@V?$positional_parameter_base@DV?$stream_output_adapter@D@__crt_stdio_output@@@2@@__crt_stdio_output@@AAE_NXZ 1003433e f i libucrt:output.obj
 0001:0003334a       ?type_case_u@?$output_processor@DV?$stream_output_adapter@D@__crt_stdio_output@@V?$standard_base@DV?$stream_output_adapter@D@__crt_stdio_output@@@2@@__crt_stdio_output@@AAE_NXZ 1003434a f i libucrt:output.obj
 0001:00033356       ?type_case_u@?$output_processor@DV?$string_output_adapter@D@__crt_stdio_output@@V?$format_validation_base@DV?$string_output_adapter@D@__crt_stdio_output@@@2@@__crt_stdio_output@@AAE_NXZ 10034356 f i libucrt:output.obj
 0001:00033362       ?type_case_u@?$output_processor@DV?$string_output_adapter@D@__crt_stdio_output@@V?$positional_parameter_base@DV?$string_output_adapter@D@__crt_stdio_output@@@2@@__crt_stdio_output@@AAE_NXZ 10034362 f i libucrt:output.obj
 0001:0003336e       ?type_case_u@?$output_processor@DV?$string_output_adapter@D@__crt_stdio_output@@V?$standard_base@DV?$string_output_adapter@D@__crt_stdio_output@@@2@@__crt_stdio_output@@AAE_NXZ 1003436e f i libucrt:output.obj
 0001:0003337a       ?type_case_u@?$output_processor@_WV?$stream_output_adapter@_W@__crt_stdio_output@@V?$format_validation_base@_WV?$stream_output_adapter@_W@__crt_stdio_output@@@2@@__crt_stdio_output@@AAE_NXZ 1003437a f i libucrt:output.obj
 0001:00033386       ?type_case_u@?$output_processor@_WV?$stream_output_adapter@_W@__crt_stdio_output@@V?$positional_parameter_base@_WV?$stream_output_adapter@_W@__crt_stdio_output@@@2@@__crt_stdio_output@@AAE_NXZ 10034386 f i libucrt:output.obj
 0001:00033392       ?type_case_u@?$output_processor@_WV?$stream_output_adapter@_W@__crt_stdio_output@@V?$standard_base@_WV?$stream_output_adapter@_W@__crt_stdio_output@@@2@@__crt_stdio_output@@AAE_NXZ 10034392 f i libucrt:output.obj
 0001:0003339e       ?type_case_u@?$output_processor@_WV?$string_output_adapter@_W@__crt_stdio_output@@V?$format_validation_base@_WV?$string_output_adapter@_W@__crt_stdio_output@@@2@@__crt_stdio_output@@AAE_NXZ 1003439e f i libucrt:output.obj
 0001:000333aa       ?type_case_u@?$output_processor@_WV?$string_output_adapter@_W@__crt_stdio_output@@V?$positional_parameter_base@_WV?$string_output_adapter@_W@__crt_stdio_output@@@2@@__crt_stdio_output@@AAE_NXZ 100343aa f i libucrt:output.obj
 0001:000333b6       ?type_case_u@?$output_processor@_WV?$string_output_adapter@_W@__crt_stdio_output@@V?$standard_base@_WV?$string_output_adapter@_W@__crt_stdio_output@@@2@@__crt_stdio_output@@AAE_NXZ 100343b6 f i libucrt:output.obj
 0001:000333c2       ?type_case_x@?$output_processor@DV?$stream_output_adapter@D@__crt_stdio_output@@V?$format_validation_base@DV?$stream_output_adapter@D@__crt_stdio_output@@@2@@__crt_stdio_output@@AAE_NXZ 100343c2 f i libucrt:output.obj
 0001:000333ce       ?type_case_x@?$output_processor@DV?$stream_output_adapter@D@__crt_stdio_output@@V?$positional_parameter_base@DV?$stream_output_adapter@D@__crt_stdio_output@@@2@@__crt_stdio_output@@AAE_NXZ 100343ce f i libucrt:output.obj
 0001:000333da       ?type_case_x@?$output_processor@DV?$stream_output_adapter@D@__crt_stdio_output@@V?$standard_base@DV?$stream_output_adapter@D@__crt_stdio_output@@@2@@__crt_stdio_output@@AAE_NXZ 100343da f i libucrt:output.obj
 0001:000333e6       ?type_case_x@?$output_processor@DV?$string_output_adapter@D@__crt_stdio_output@@V?$format_validation_base@DV?$string_output_adapter@D@__crt_stdio_output@@@2@@__crt_stdio_output@@AAE_NXZ 100343e6 f i libucrt:output.obj
 0001:000333f2       ?type_case_x@?$output_processor@DV?$string_output_adapter@D@__crt_stdio_output@@V?$positional_parameter_base@DV?$string_output_adapter@D@__crt_stdio_output@@@2@@__crt_stdio_output@@AAE_NXZ 100343f2 f i libucrt:output.obj
 0001:000333fe       ?type_case_x@?$output_processor@DV?$string_output_adapter@D@__crt_stdio_output@@V?$standard_base@DV?$string_output_adapter@D@__crt_stdio_output@@@2@@__crt_stdio_output@@AAE_NXZ 100343fe f i libucrt:output.obj
 0001:0003340a       ?type_case_x@?$output_processor@_WV?$stream_output_adapter@_W@__crt_stdio_output@@V?$format_validation_base@_WV?$stream_output_adapter@_W@__crt_stdio_output@@@2@@__crt_stdio_output@@AAE_NXZ 1003440a f i libucrt:output.obj
 0001:00033416       ?type_case_x@?$output_processor@_WV?$stream_output_adapter@_W@__crt_stdio_output@@V?$positional_parameter_base@_WV?$stream_output_adapter@_W@__crt_stdio_output@@@2@@__crt_stdio_output@@AAE_NXZ 10034416 f i libucrt:output.obj
 0001:00033422       ?type_case_x@?$output_processor@_WV?$stream_output_adapter@_W@__crt_stdio_output@@V?$standard_base@_WV?$stream_output_adapter@_W@__crt_stdio_output@@@2@@__crt_stdio_output@@AAE_NXZ 10034422 f i libucrt:output.obj
 0001:0003342e       ?type_case_x@?$output_processor@_WV?$string_output_adapter@_W@__crt_stdio_output@@V?$format_validation_base@_WV?$string_output_adapter@_W@__crt_stdio_output@@@2@@__crt_stdio_output@@AAE_NXZ 1003442e f i libucrt:output.obj
 0001:0003343a       ?type_case_x@?$output_processor@_WV?$string_output_adapter@_W@__crt_stdio_output@@V?$positional_parameter_base@_WV?$string_output_adapter@_W@__crt_stdio_output@@@2@@__crt_stdio_output@@AAE_NXZ 1003443a f i libucrt:output.obj
 0001:00033446       ?type_case_x@?$output_processor@_WV?$string_output_adapter@_W@__crt_stdio_output@@V?$standard_base@_WV?$string_output_adapter@_W@__crt_stdio_output@@@2@@__crt_stdio_output@@AAE_NXZ 10034446 f i libucrt:output.obj
 0001:00033452       ?unset_flag@?$output_processor@DV?$stream_output_adapter@D@__crt_stdio_output@@V?$format_validation_base@DV?$stream_output_adapter@D@__crt_stdio_output@@@2@@__crt_stdio_output@@AAEXI@Z 10034452 f i libucrt:output.obj
 0001:00033467       ?unset_flag@?$output_processor@DV?$stream_output_adapter@D@__crt_stdio_output@@V?$positional_parameter_base@DV?$stream_output_adapter@D@__crt_stdio_output@@@2@@__crt_stdio_output@@AAEXI@Z 10034467 f i libucrt:output.obj
 0001:0003347c       ?unset_flag@?$output_processor@DV?$stream_output_adapter@D@__crt_stdio_output@@V?$standard_base@DV?$stream_output_adapter@D@__crt_stdio_output@@@2@@__crt_stdio_output@@AAEXI@Z 1003447c f i libucrt:output.obj
 0001:00033491       ?unset_flag@?$output_processor@DV?$string_output_adapter@D@__crt_stdio_output@@V?$format_validation_base@DV?$string_output_adapter@D@__crt_stdio_output@@@2@@__crt_stdio_output@@AAEXI@Z 10034491 f i libucrt:output.obj
 0001:000334a6       ?unset_flag@?$output_processor@DV?$string_output_adapter@D@__crt_stdio_output@@V?$positional_parameter_base@DV?$string_output_adapter@D@__crt_stdio_output@@@2@@__crt_stdio_output@@AAEXI@Z 100344a6 f i libucrt:output.obj
 0001:000334bb       ?unset_flag@?$output_processor@DV?$string_output_adapter@D@__crt_stdio_output@@V?$standard_base@DV?$string_output_adapter@D@__crt_stdio_output@@@2@@__crt_stdio_output@@AAEXI@Z 100344bb f i libucrt:output.obj
 0001:000334d0       ?unset_flag@?$output_processor@_WV?$stream_output_adapter@_W@__crt_stdio_output@@V?$format_validation_base@_WV?$stream_output_adapter@_W@__crt_stdio_output@@@2@@__crt_stdio_output@@AAEXI@Z 100344d0 f i libucrt:output.obj
 0001:000334e5       ?unset_flag@?$output_processor@_WV?$stream_output_adapter@_W@__crt_stdio_output@@V?$positional_parameter_base@_WV?$stream_output_adapter@_W@__crt_stdio_output@@@2@@__crt_stdio_output@@AAEXI@Z 100344e5 f i libucrt:output.obj
 0001:000334fa       ?unset_flag@?$output_processor@_WV?$stream_output_adapter@_W@__crt_stdio_output@@V?$standard_base@_WV?$stream_output_adapter@_W@__crt_stdio_output@@@2@@__crt_stdio_output@@AAEXI@Z 100344fa f i libucrt:output.obj
 0001:0003350f       ?unset_flag@?$output_processor@_WV?$string_output_adapter@_W@__crt_stdio_output@@V?$format_validation_base@_WV?$string_output_adapter@_W@__crt_stdio_output@@@2@@__crt_stdio_output@@AAEXI@Z 1003450f f i libucrt:output.obj
 0001:00033524       ?unset_flag@?$output_processor@_WV?$string_output_adapter@_W@__crt_stdio_output@@V?$positional_parameter_base@_WV?$string_output_adapter@_W@__crt_stdio_output@@@2@@__crt_stdio_output@@AAEXI@Z 10034524 f i libucrt:output.obj
 0001:00033539       ?unset_flag@?$output_processor@_WV?$string_output_adapter@_W@__crt_stdio_output@@V?$standard_base@_WV?$string_output_adapter@_W@__crt_stdio_output@@@2@@__crt_stdio_output@@AAEXI@Z 10034539 f i libucrt:output.obj
 0001:0003354e       ?update_field_width@?$positional_parameter_base@DV?$stream_output_adapter@D@__crt_stdio_output@@@__crt_stdio_output@@IAE_NXZ 1003454e f i libucrt:output.obj
 0001:00033631       ?update_field_width@?$positional_parameter_base@DV?$string_output_adapter@D@__crt_stdio_output@@@__crt_stdio_output@@IAE_NXZ 10034631 f i libucrt:output.obj
 0001:00033714       ?update_field_width@?$positional_parameter_base@_WV?$stream_output_adapter@_W@__crt_stdio_output@@@__crt_stdio_output@@IAE_NXZ 10034714 f i libucrt:output.obj
 0001:000337f8       ?update_field_width@?$positional_parameter_base@_WV?$string_output_adapter@_W@__crt_stdio_output@@@__crt_stdio_output@@IAE_NXZ 100347f8 f i libucrt:output.obj
 0001:000338dc       ?update_field_width@?$standard_base@DV?$stream_output_adapter@D@__crt_stdio_output@@@__crt_stdio_output@@IAE_NXZ 100348dc f i libucrt:output.obj
 0001:000338f0       ?update_field_width@?$standard_base@DV?$string_output_adapter@D@__crt_stdio_output@@@__crt_stdio_output@@IAE_NXZ 100348f0 f i libucrt:output.obj
 0001:00033904       ?update_field_width@?$standard_base@_WV?$stream_output_adapter@_W@__crt_stdio_output@@@__crt_stdio_output@@IAE_NXZ 10034904 f i libucrt:output.obj
 0001:00033918       ?update_field_width@?$standard_base@_WV?$string_output_adapter@_W@__crt_stdio_output@@@__crt_stdio_output@@IAE_NXZ 10034918 f i libucrt:output.obj
 0001:0003392c       ?update_precision@?$positional_parameter_base@DV?$stream_output_adapter@D@__crt_stdio_output@@@__crt_stdio_output@@IAE_NXZ 1003492c f i libucrt:output.obj
 0001:00033a0f       ?update_precision@?$positional_parameter_base@DV?$string_output_adapter@D@__crt_stdio_output@@@__crt_stdio_output@@IAE_NXZ 10034a0f f i libucrt:output.obj
 0001:00033af2       ?update_precision@?$positional_parameter_base@_WV?$stream_output_adapter@_W@__crt_stdio_output@@@__crt_stdio_output@@IAE_NXZ 10034af2 f i libucrt:output.obj
 0001:00033bd6       ?update_precision@?$positional_parameter_base@_WV?$string_output_adapter@_W@__crt_stdio_output@@@__crt_stdio_output@@IAE_NXZ 10034bd6 f i libucrt:output.obj
 0001:00033cba       ?update_precision@?$standard_base@DV?$stream_output_adapter@D@__crt_stdio_output@@@__crt_stdio_output@@IAE_NXZ 10034cba f i libucrt:output.obj
 0001:00033cce       ?update_precision@?$standard_base@DV?$string_output_adapter@D@__crt_stdio_output@@@__crt_stdio_output@@IAE_NXZ 10034cce f i libucrt:output.obj
 0001:00033ce2       ?update_precision@?$standard_base@_WV?$stream_output_adapter@_W@__crt_stdio_output@@@__crt_stdio_output@@IAE_NXZ 10034ce2 f i libucrt:output.obj
 0001:00033cf6       ?update_precision@?$standard_base@_WV?$string_output_adapter@_W@__crt_stdio_output@@@__crt_stdio_output@@IAE_NXZ 10034cf6 f i libucrt:output.obj
 0001:00033d0a       ?valid@__crt_stdio_stream@@QBE_NXZ 10034d0a f i libucrt:output.obj
 0001:00033d14       ?validate@?$stream_output_adapter@D@__crt_stdio_output@@QBE_NXZ 10034d14 f i libucrt:output.obj
 0001:00033d3d       ?validate@?$stream_output_adapter@_W@__crt_stdio_output@@QBE_NXZ 10034d3d f i libucrt:output.obj
 0001:00033d5e       ?validate@?$string_output_adapter@D@__crt_stdio_output@@QBE_NXZ 10034d5e f i libucrt:output.obj
 0001:00033d7f       ?validate@?$string_output_adapter@_W@__crt_stdio_output@@QBE_NXZ 10034d7f f i libucrt:output.obj
 0001:00033da0       ?validate_and_store_parameter_data@?$positional_parameter_base@DV?$stream_output_adapter@D@__crt_stdio_output@@@__crt_stdio_output@@AAE_NAAUparameter_data@12@W4parameter_type@12@DW4length_modifier@2@@Z 10034da0 f i libucrt:output.obj
 0001:00033dfd       ?validate_and_store_parameter_data@?$positional_parameter_base@DV?$string_output_adapter@D@__crt_stdio_output@@@__crt_stdio_output@@AAE_NAAUparameter_data@12@W4parameter_type@12@DW4length_modifier@2@@Z 10034dfd f i libucrt:output.obj
 0001:00033e5a       ?validate_and_store_parameter_data@?$positional_parameter_base@_WV?$stream_output_adapter@_W@__crt_stdio_output@@@__crt_stdio_output@@AAE_NAAUparameter_data@12@W4parameter_type@12@_WW4length_modifier@2@@Z 10034e5a f i libucrt:output.obj
 0001:00033eba       ?validate_and_store_parameter_data@?$positional_parameter_base@_WV?$string_output_adapter@_W@__crt_stdio_output@@@__crt_stdio_output@@AAE_NAAUparameter_data@12@W4parameter_type@12@_WW4length_modifier@2@@Z 10034eba f i libucrt:output.obj
 0001:00033f1a       ?validate_and_update_state_at_beginning_of_format_character@?$positional_parameter_base@DV?$stream_output_adapter@D@__crt_stdio_output@@@__crt_stdio_output@@IAE_NXZ 10034f1a f i libucrt:output.obj
 0001:00034050       ?validate_and_update_state_at_beginning_of_format_character@?$positional_parameter_base@DV?$string_output_adapter@D@__crt_stdio_output@@@__crt_stdio_output@@IAE_NXZ 10035050 f i libucrt:output.obj
 0001:00034186       ?validate_and_update_state_at_beginning_of_format_character@?$positional_parameter_base@_WV?$stream_output_adapter@_W@__crt_stdio_output@@@__crt_stdio_output@@IAE_NXZ 10035186 f i libucrt:output.obj
 0001:000342c8       ?validate_and_update_state_at_beginning_of_format_character@?$positional_parameter_base@_WV?$string_output_adapter@_W@__crt_stdio_output@@@__crt_stdio_output@@IAE_NXZ 100352c8 f i libucrt:output.obj
 0001:0003440a       ?validate_and_update_state_at_beginning_of_format_character@?$standard_base@DV?$stream_output_adapter@D@__crt_stdio_output@@@__crt_stdio_output@@IAE_NXZ 1003540a f i libucrt:output.obj
 0001:0003440d       ?validate_and_update_state_at_beginning_of_format_character@?$standard_base@DV?$string_output_adapter@D@__crt_stdio_output@@@__crt_stdio_output@@IAE_NXZ 1003540d f i libucrt:output.obj
 0001:00034410       ?validate_and_update_state_at_beginning_of_format_character@?$standard_base@_WV?$stream_output_adapter@_W@__crt_stdio_output@@@__crt_stdio_output@@IAE_NXZ 10035410 f i libucrt:output.obj
 0001:00034413       ?validate_and_update_state_at_beginning_of_format_character@?$standard_base@_WV?$string_output_adapter@_W@__crt_stdio_output@@@__crt_stdio_output@@IAE_NXZ 10035413 f i libucrt:output.obj
 0001:00034416       ?validate_and_update_state_at_end_of_format_string@?$format_validation_base@DV?$stream_output_adapter@D@__crt_stdio_output@@@__crt_stdio_output@@IBE_NXZ 10035416 f i libucrt:output.obj
 0001:00034440       ?validate_and_update_state_at_end_of_format_string@?$format_validation_base@DV?$string_output_adapter@D@__crt_stdio_output@@@__crt_stdio_output@@IBE_NXZ 10035440 f i libucrt:output.obj
 0001:0003446a       ?validate_and_update_state_at_end_of_format_string@?$format_validation_base@_WV?$stream_output_adapter@_W@__crt_stdio_output@@@__crt_stdio_output@@IBE_NXZ 1003546a f i libucrt:output.obj
 0001:00034494       ?validate_and_update_state_at_end_of_format_string@?$format_validation_base@_WV?$string_output_adapter@_W@__crt_stdio_output@@@__crt_stdio_output@@IBE_NXZ 10035494 f i libucrt:output.obj
 0001:000344be       ?validate_and_update_state_at_end_of_format_string@?$positional_parameter_base@DV?$stream_output_adapter@D@__crt_stdio_output@@@__crt_stdio_output@@IAE_NXZ 100354be f i libucrt:output.obj
 0001:0003455e       ?validate_and_update_state_at_end_of_format_string@?$positional_parameter_base@DV?$string_output_adapter@D@__crt_stdio_output@@@__crt_stdio_output@@IAE_NXZ 1003555e f i libucrt:output.obj
 0001:000345fe       ?validate_and_update_state_at_end_of_format_string@?$positional_parameter_base@_WV?$stream_output_adapter@_W@__crt_stdio_output@@@__crt_stdio_output@@IAE_NXZ 100355fe f i libucrt:output.obj
 0001:0003469e       ?validate_and_update_state_at_end_of_format_string@?$positional_parameter_base@_WV?$string_output_adapter@_W@__crt_stdio_output@@@__crt_stdio_output@@IAE_NXZ 1003569e f i libucrt:output.obj
 0001:0003473e       ?validate_and_update_state_at_end_of_format_string@?$standard_base@DV?$stream_output_adapter@D@__crt_stdio_output@@@__crt_stdio_output@@IBE_NXZ 1003573e f i libucrt:output.obj
 0001:00034741       ?validate_and_update_state_at_end_of_format_string@?$standard_base@DV?$string_output_adapter@D@__crt_stdio_output@@@__crt_stdio_output@@IBE_NXZ 10035741 f i libucrt:output.obj
 0001:00034744       ?validate_and_update_state_at_end_of_format_string@?$standard_base@_WV?$stream_output_adapter@_W@__crt_stdio_output@@@__crt_stdio_output@@IBE_NXZ 10035744 f i libucrt:output.obj
 0001:00034747       ?validate_and_update_state_at_end_of_format_string@?$standard_base@_WV?$string_output_adapter@_W@__crt_stdio_output@@@__crt_stdio_output@@IBE_NXZ 10035747 f i libucrt:output.obj
 0001:0003474a       ?validate_state_for_type_case_a@?$positional_parameter_base@DV?$stream_output_adapter@D@__crt_stdio_output@@@__crt_stdio_output@@IAE_NXZ 1003574a f i libucrt:output.obj
 0001:000347b1       ?validate_state_for_type_case_a@?$positional_parameter_base@DV?$string_output_adapter@D@__crt_stdio_output@@@__crt_stdio_output@@IAE_NXZ 100357b1 f i libucrt:output.obj
 0001:00034818       ?validate_state_for_type_case_a@?$positional_parameter_base@_WV?$stream_output_adapter@_W@__crt_stdio_output@@@__crt_stdio_output@@IAE_NXZ 10035818 f i libucrt:output.obj
 0001:0003487f       ?validate_state_for_type_case_a@?$positional_parameter_base@_WV?$string_output_adapter@_W@__crt_stdio_output@@@__crt_stdio_output@@IAE_NXZ 1003587f f i libucrt:output.obj
 0001:000348e6       ?validate_state_for_type_case_a@?$standard_base@DV?$stream_output_adapter@D@__crt_stdio_output@@@__crt_stdio_output@@IBE_NXZ 100358e6 f i libucrt:output.obj
 0001:000348e9       ?validate_state_for_type_case_a@?$standard_base@DV?$string_output_adapter@D@__crt_stdio_output@@@__crt_stdio_output@@IBE_NXZ 100358e9 f i libucrt:output.obj
 0001:000348ec       ?validate_state_for_type_case_a@?$standard_base@_WV?$stream_output_adapter@_W@__crt_stdio_output@@@__crt_stdio_output@@IBE_NXZ 100358ec f i libucrt:output.obj
 0001:000348ef       ?validate_state_for_type_case_a@?$standard_base@_WV?$string_output_adapter@_W@__crt_stdio_output@@@__crt_stdio_output@@IBE_NXZ 100358ef f i libucrt:output.obj
 0001:000348f2       ?validate_stream_is_ansi_if_required@?$__acrt_stdio_char_traits@D@@SA_NQAU_iobuf@@@Z 100358f2 f i libucrt:output.obj
 0001:00034994       ?validate_stream_is_ansi_if_required@?$__acrt_stdio_char_traits@_W@@SA_NQAU_iobuf@@@Z 10035994 f i libucrt:output.obj
 0001:00034997       ?wide_null_string@?$output_processor@DV?$stream_output_adapter@D@__crt_stdio_output@@V?$format_validation_base@DV?$stream_output_adapter@D@__crt_stdio_output@@@2@@__crt_stdio_output@@CAPA_WXZ 10035997 f i libucrt:output.obj
 0001:0003499d       ?wide_null_string@?$output_processor@DV?$stream_output_adapter@D@__crt_stdio_output@@V?$positional_parameter_base@DV?$stream_output_adapter@D@__crt_stdio_output@@@2@@__crt_stdio_output@@CAPA_WXZ 1003599d f i libucrt:output.obj
 0001:000349a3       ?wide_null_string@?$output_processor@DV?$stream_output_adapter@D@__crt_stdio_output@@V?$standard_base@DV?$stream_output_adapter@D@__crt_stdio_output@@@2@@__crt_stdio_output@@CAPA_WXZ 100359a3 f i libucrt:output.obj
 0001:000349a9       ?wide_null_string@?$output_processor@DV?$string_output_adapter@D@__crt_stdio_output@@V?$format_validation_base@DV?$string_output_adapter@D@__crt_stdio_output@@@2@@__crt_stdio_output@@CAPA_WXZ 100359a9 f i libucrt:output.obj
 0001:000349af       ?wide_null_string@?$output_processor@DV?$string_output_adapter@D@__crt_stdio_output@@V?$positional_parameter_base@DV?$string_output_adapter@D@__crt_stdio_output@@@2@@__crt_stdio_output@@CAPA_WXZ 100359af f i libucrt:output.obj
 0001:000349b5       ?wide_null_string@?$output_processor@DV?$string_output_adapter@D@__crt_stdio_output@@V?$standard_base@DV?$string_output_adapter@D@__crt_stdio_output@@@2@@__crt_stdio_output@@CAPA_WXZ 100359b5 f i libucrt:output.obj
 0001:000349bb       ?wide_null_string@?$output_processor@_WV?$stream_output_adapter@_W@__crt_stdio_output@@V?$format_validation_base@_WV?$stream_output_adapter@_W@__crt_stdio_output@@@2@@__crt_stdio_output@@CAPA_WXZ 100359bb f i libucrt:output.obj
 0001:000349c1       ?wide_null_string@?$output_processor@_WV?$stream_output_adapter@_W@__crt_stdio_output@@V?$positional_parameter_base@_WV?$stream_output_adapter@_W@__crt_stdio_output@@@2@@__crt_stdio_output@@CAPA_WXZ 100359c1 f i libucrt:output.obj
 0001:000349c7       ?wide_null_string@?$output_processor@_WV?$stream_output_adapter@_W@__crt_stdio_output@@V?$standard_base@_WV?$stream_output_adapter@_W@__crt_stdio_output@@@2@@__crt_stdio_output@@CAPA_WXZ 100359c7 f i libucrt:output.obj
 0001:000349cd       ?wide_null_string@?$output_processor@_WV?$string_output_adapter@_W@__crt_stdio_output@@V?$format_validation_base@_WV?$string_output_adapter@_W@__crt_stdio_output@@@2@@__crt_stdio_output@@CAPA_WXZ 100359cd f i libucrt:output.obj
 0001:000349d3       ?wide_null_string@?$output_processor@_WV?$string_output_adapter@_W@__crt_stdio_output@@V?$positional_parameter_base@_WV?$string_output_adapter@_W@__crt_stdio_output@@@2@@__crt_stdio_output@@CAPA_WXZ 100359d3 f i libucrt:output.obj
 0001:000349d9       ?wide_null_string@?$output_processor@_WV?$string_output_adapter@_W@__crt_stdio_output@@V?$standard_base@_WV?$string_output_adapter@_W@__crt_stdio_output@@@2@@__crt_stdio_output@@CAPA_WXZ 100359d9 f i libucrt:output.obj
 0001:000349df       ?write_character@?$stream_output_adapter@D@__crt_stdio_output@@QBEXDQAH@Z 100359df f i libucrt:output.obj
 0001:00034a2b       ?write_character@?$stream_output_adapter@_W@__crt_stdio_output@@QBEX_WQAH@Z 10035a2b f i libucrt:output.obj
 0001:00034a7b       ?write_character@?$string_output_adapter@D@__crt_stdio_output@@QBE_NDQAH@Z 10035a7b f i libucrt:output.obj
 0001:00034acd       ?write_character@?$string_output_adapter@_W@__crt_stdio_output@@QBE_N_WQAH@Z 10035acd f i libucrt:output.obj
 0001:00034b23       ?write_stored_string_tchar@?$output_processor@DV?$stream_output_adapter@D@__crt_stdio_output@@V?$format_validation_base@DV?$stream_output_adapter@D@__crt_stdio_output@@@2@@__crt_stdio_output@@AAE_ND@Z 10035b23 f i libucrt:output.obj
 0001:00034bf3       ?write_stored_string_tchar@?$output_processor@DV?$stream_output_adapter@D@__crt_stdio_output@@V?$positional_parameter_base@DV?$stream_output_adapter@D@__crt_stdio_output@@@2@@__crt_stdio_output@@AAE_ND@Z 10035bf3 f i libucrt:output.obj
 0001:00034cc3       ?write_stored_string_tchar@?$output_processor@DV?$stream_output_adapter@D@__crt_stdio_output@@V?$standard_base@DV?$stream_output_adapter@D@__crt_stdio_output@@@2@@__crt_stdio_output@@AAE_ND@Z 10035cc3 f i libucrt:output.obj
 0001:00034d93       ?write_stored_string_tchar@?$output_processor@DV?$string_output_adapter@D@__crt_stdio_output@@V?$format_validation_base@DV?$string_output_adapter@D@__crt_stdio_output@@@2@@__crt_stdio_output@@AAE_ND@Z 10035d93 f i libucrt:output.obj
 0001:00034e63       ?write_stored_string_tchar@?$output_processor@DV?$string_output_adapter@D@__crt_stdio_output@@V?$positional_parameter_base@DV?$string_output_adapter@D@__crt_stdio_output@@@2@@__crt_stdio_output@@AAE_ND@Z 10035e63 f i libucrt:output.obj
 0001:00034f33       ?write_stored_string_tchar@?$output_processor@DV?$string_output_adapter@D@__crt_stdio_output@@V?$standard_base@DV?$string_output_adapter@D@__crt_stdio_output@@@2@@__crt_stdio_output@@AAE_ND@Z 10035f33 f i libucrt:output.obj
 0001:00035003       ?write_stored_string_tchar@?$output_processor@_WV?$stream_output_adapter@_W@__crt_stdio_output@@V?$format_validation_base@_WV?$stream_output_adapter@_W@__crt_stdio_output@@@2@@__crt_stdio_output@@AAE_N_W@Z 10036003 f i libucrt:output.obj
 0001:000350b0       ?write_stored_string_tchar@?$output_processor@_WV?$stream_output_adapter@_W@__crt_stdio_output@@V?$positional_parameter_base@_WV?$stream_output_adapter@_W@__crt_stdio_output@@@2@@__crt_stdio_output@@AAE_N_W@Z 100360b0 f i libucrt:output.obj
 0001:0003515d       ?write_stored_string_tchar@?$output_processor@_WV?$stream_output_adapter@_W@__crt_stdio_output@@V?$standard_base@_WV?$stream_output_adapter@_W@__crt_stdio_output@@@2@@__crt_stdio_output@@AAE_N_W@Z 1003615d f i libucrt:output.obj
 0001:0003520a       ?write_stored_string_tchar@?$output_processor@_WV?$string_output_adapter@_W@__crt_stdio_output@@V?$format_validation_base@_WV?$string_output_adapter@_W@__crt_stdio_output@@@2@@__crt_stdio_output@@AAE_N_W@Z 1003620a f i libucrt:output.obj
 0001:000352b7       ?write_stored_string_tchar@?$output_processor@_WV?$string_output_adapter@_W@__crt_stdio_output@@V?$positional_parameter_base@_WV?$string_output_adapter@_W@__crt_stdio_output@@@2@@__crt_stdio_output@@AAE_N_W@Z 100362b7 f i libucrt:output.obj
 0001:00035364       ?write_stored_string_tchar@?$output_processor@_WV?$string_output_adapter@_W@__crt_stdio_output@@V?$standard_base@_WV?$string_output_adapter@_W@__crt_stdio_output@@@2@@__crt_stdio_output@@AAE_N_W@Z 10036364 f i libucrt:output.obj
 0001:00035411       ?write_string@?$stream_output_adapter@D@__crt_stdio_output@@QBEXQBDHQAH1@Z 10036411 f i libucrt:output.obj
 0001:000354bd       ?write_string@?$stream_output_adapter@_W@__crt_stdio_output@@QBEXQB_WHQAH1@Z 100364bd f i libucrt:output.obj
 0001:0003556d       ?write_string@?$string_output_adapter@D@__crt_stdio_output@@QBEXQBDHQAH1@Z 1003656d f i libucrt:output.obj
 0001:00035624       ?write_string@?$string_output_adapter@_W@__crt_stdio_output@@QBEXQB_WHQAH1@Z 10036624 f i libucrt:output.obj
 0001:000356e4       ___acrt_isleadbyte_l_noupdate 100366e4 f i libucrt:output.obj
 0001:00035705       ___acrt_locale_changed     10036705 f i libucrt:output.obj
 0001:00035716       ___stdio_common_vfprintf   10036716 f   libucrt:output.obj
 0001:000357aa       ___stdio_common_vfprintf_p 100367aa f   libucrt:output.obj
 0001:0003583e       ___stdio_common_vfprintf_s 1003683e f   libucrt:output.obj
 0001:000358d2       ___stdio_common_vfwprintf  100368d2 f   libucrt:output.obj
 0001:00035966       ___stdio_common_vfwprintf_p 10036966 f   libucrt:output.obj
 0001:000359fa       ___stdio_common_vfwprintf_s 100369fa f   libucrt:output.obj
 0001:00035a8e       ___stdio_common_vsnprintf_s 10036a8e f   libucrt:output.obj
 0001:00035abe       ___stdio_common_vsnwprintf_s 10036abe f   libucrt:output.obj
 0001:00035aee       ___stdio_common_vsprintf   10036aee f   libucrt:output.obj
 0001:00035b1b       ___stdio_common_vsprintf_p 10036b1b f   libucrt:output.obj
 0001:00035b48       ___stdio_common_vsprintf_s 10036b48 f   libucrt:output.obj
 0001:00035b75       ___stdio_common_vswprintf  10036b75 f   libucrt:output.obj
 0001:00035ba2       ___stdio_common_vswprintf_p 10036ba2 f   libucrt:output.obj
 0001:00035bcf       ___stdio_common_vswprintf_s 10036bcf f   libucrt:output.obj
 0001:00035bfc       _calloc                    10036bfc f   libucrt:calloc.obj
 0001:00035c09       _free                      10036c09 f   libucrt:free.obj
 0001:00035c0e       _realloc                   10036c0e f   libucrt:realloc.obj
 0001:00035c1b       ??$?B$$A6GXPAXK0@Z@__crt_fast_encoded_nullptr_t@@QBEP6GXPAXK0@ZXZ 10036c1b f i libucrt:exit.obj
 0001:00035c39       ??$__crt_fast_decode_pointer@P6GXPAXK0@Z@@YAP6GXPAXK0@ZQ6GX0K0@Z@Z 10036c39 f i libucrt:exit.obj
 0001:00035c54       ??$__crt_fast_encode_pointer@P6GXPAXK0@Z@@YAP6GXPAXK0@ZQ6GX0K0@Z@Z 10036c54 f i libucrt:exit.obj
 0001:00035c7a       ??$__crt_get_proc_address@P6GXI@Z@@YAP6GXI@ZQAUHINSTANCE__@@QBD@Z 10036c7a f i libucrt:exit.obj
 0001:00035c91       ??0?$__crt_unique_handle_t@U__crt_hmodule_traits@@@@QAE@QAUHINSTANCE__@@@Z 10036c91 f i libucrt:exit.obj
 0001:00035ca5       ??1?$__crt_unique_handle_t@U__crt_hmodule_traits@@@@QAE@XZ 10036ca5 f i libucrt:exit.obj
 0001:00035cd8       ?close@?$__crt_unique_handle_t@U__crt_hmodule_traits@@@@QAEXXZ 10036cd8 f i libucrt:exit.obj
 0001:00035cf4       ?close@__crt_hmodule_traits@@SA_NPAUHINSTANCE__@@@Z 10036cf4 f i libucrt:exit.obj
 0001:00035ebf       ?get@?$__crt_unique_handle_t@U__crt_hmodule_traits@@@@QBEPAUHINSTANCE__@@XZ 10036ebf f i libucrt:exit.obj
 0001:00035ec2       ?get_address_of@?$__crt_unique_handle_t@U__crt_hmodule_traits@@@@QAEPAPAUHINSTANCE__@@XZ 10036ec2 f i libucrt:exit.obj
 0001:00035ec5       ?get_invalid_value@__crt_hmodule_traits@@SAPAUHINSTANCE__@@XZ 10036ec5 f i libucrt:exit.obj
 0001:00035fc2       __Exit                     10036fc2 f   libucrt:exit.obj
 0001:00035fdd       ___acrt_initialize_thread_local_exit_callback 10036fdd f   libucrt:exit.obj
 0001:00035fef       __c_exit                   10036fef f   libucrt:exit.obj
 0001:00036001       __cexit                    10037001 f   libucrt:exit.obj
 0001:00036013       __exit                     10037013 f   libucrt:exit.obj
 0001:0003602e       __is_c_termination_complete 1003702e f   libucrt:exit.obj
 0001:00036034       __register_thread_local_exe_atexit_callback 10037034 f   libucrt:exit.obj
 0001:0003607a       _exit                      1003707a f   libucrt:exit.obj
 0001:00036095       _quick_exit                10037095 f   libucrt:exit.obj
 0001:000360b0       _strncat                   100370b0 f   libucrt:strncat.obj
 0001:00036240       _strncpy                   10037240 f   libucrt:strncpy.obj
 0001:000363ad       ?is_in_use@__crt_stdio_stream@@QBE_NXZ 100373ad f i libucrt:fclose.obj
 0001:000363bc       __fclose_nolock            100373bc f   libucrt:fclose.obj
 0001:0003644f       _fclose                    1003744f f   libucrt:fclose.obj
 0001:00036781       ??$open_file@ABQBDABQBDABHPAU_iobuf@@@?$__crt_char_traits@D@@SAPAU_iobuf@@ABQBD0ABH$$QAPAU1@@Z 10037781 f i libucrt:fopen.obj
 0001:000367ac       ??$open_file@ABQB_WABQB_WABHPAU_iobuf@@@?$__crt_char_traits@_W@@SAPAU_iobuf@@ABQB_W0ABH$$QAPAU1@@Z 100377ac f i libucrt:fopen.obj
 0001:000367d7       ?unlock@__crt_stdio_stream@@QBEXXZ 100377d7 f i libucrt:fopen.obj
 0001:000367e2       __fsopen                   100377e2 f   libucrt:fopen.obj
 0001:000367ef       __wfopen                   100377ef f   libucrt:fopen.obj
 0001:0003680b       __wfopen_s                 1003780b f   libucrt:fopen.obj
 0001:00036863       __wfsopen                  10037863 f   libucrt:fopen.obj
 0001:00036870       _fopen                     10037870 f   libucrt:fopen.obj
 0001:0003688c       _fopen_s                   1003788c f   libucrt:fopen.obj
 0001:000368e4       ?has_any_buffer@__crt_stdio_stream@@QBE_NXZ 100378e4 f i libucrt:fread.obj
 0001:000368f9       ?has_any_of@__crt_stdio_stream@@QBE_NJ@Z 100378f9 f i libucrt:fread.obj
 0001:00036915       ?set_flags@__crt_stdio_stream@@QBE_NJ@Z 10037915 f i libucrt:fread.obj
 0001:00036945       __fread_nolock             10037945 f   libucrt:fread.obj
 0001:00036969       __fread_nolock_s           10037969 f   libucrt:fread.obj
 0001:00036ba8       _fread                     10037ba8 f   libucrt:fread.obj
 0001:00036bcc       _fread_s                   10037bcc f   libucrt:fread.obj
 0001:00036d24       ??$?RV<lambda_11b4f7b0d3157825a5656a18eba1ae27>@@AAV<lambda_b51c0495177f500e782686251704ae76>@@V<lambda_cf89b47920b5017557bfe891e78aca36>@@@?$__crt_seh_guarded_call@I@@QAEI$$QAV<lambda_11b4f7b0d3157825a5656a18eba1ae27>@@AAV<lambda_b51c0495177f500e782686251704ae76>@@$$QAV<lambda_cf89b47920b5017557bfe891e78aca36>@@@Z 10037d24 f i libucrt:fwrite.obj
 0001:00036d89       ??$__acrt_lock_stream_and_call@V<lambda_b51c0495177f500e782686251704ae76>@@@@YAIQAU_iobuf@@$$QAV<lambda_b51c0495177f500e782686251704ae76>@@@Z 10037d89 f i libucrt:fwrite.obj
 0001:00036e7e       ?has_big_buffer@__crt_stdio_stream@@QBE_NXZ 10037e7e f i libucrt:fwrite.obj
 0001:00036e8f       __fwrite_nolock            10037e8f f   libucrt:fwrite.obj
 0001:00037066       _fwrite                    10038066 f   libucrt:fwrite.obj
 0001:000370d4       ??$?R_W@__crt_internal_free_policy@@QBEXQB_W@Z 100380d4 f i libucrt:unlink.obj
 0001:000370ea       ??0?$__crt_unique_heap_ptr@_WU__crt_internal_free_policy@@@@QAE@QA_W@Z 100380ea f i libucrt:unlink.obj
 0001:000370fe       ??1?$__crt_unique_heap_ptr@_WU__crt_internal_free_policy@@@@QAE@XZ 100380fe f i libucrt:unlink.obj
 0001:00037114       ?get@?$__crt_unique_heap_ptr@_WU__crt_internal_free_policy@@@@QBEPA_WXZ 10038114 f i libucrt:unlink.obj
 0001:00037117       ?get_address_of@?$__crt_unique_heap_ptr@_WU__crt_internal_free_policy@@@@QAEPAPA_WXZ 10038117 f i libucrt:unlink.obj
 0001:0003711a       ?release@?$__crt_unique_heap_ptr@_WU__crt_internal_free_policy@@@@QAEXXZ 1003811a f i libucrt:unlink.obj
 0001:00037130       __unlink                   10038130 f   libucrt:unlink.obj
 0001:0003713d       _remove                    1003813d f   libucrt:unlink.obj
 0001:0003719d       ?__acrt_stdio_reset_buffer@@YAXV__crt_stdio_stream@@@Z 1003819d f i libucrt:rewind.obj
 0001:000371b8       ?has_all_of@__crt_stdio_stream@@QBE_NJ@Z 100381b8 f i libucrt:rewind.obj
 0001:000371d7       ?unset_flags@__crt_stdio_stream@@QBE_NJ@Z 100381d7 f i libucrt:rewind.obj
 0001:0003720b       _rewind                    1003820b f   libucrt:rewind.obj
 0001:0003730c       _ldexp                     1003830c f   libucrt:ldexp.obj
 0001:0003756c       ??$__vcrt_va_start_verify_argument_type@QB_W@@YAXXZ 1003856c f i libucrt:assert.obj
 0001:00038509       ??$ftprintf@PAU_iobuf@@PBDABQBDABQBDABI@?$__crt_char_traits@D@@SAH$$QAPAU_iobuf@@$$QAPBDABQBD2ABI@Z 10039509 f i libucrt:assert.obj
 0001:0003853b       ??$ftprintf@PAU_iobuf@@PB_WABQB_WABQB_WABI@?$__crt_char_traits@_W@@SAH$$QAPAU_iobuf@@$$QAPB_WABQB_W2ABI@Z 1003953b f i libucrt:assert.obj
 0001:0003856d       ??$get_module_file_name@AAPAUHINSTANCE__@@AAY0BAF@DK@?$__crt_char_traits@D@@SAKAAPAUHINSTANCE__@@AAY0BAF@D$$QAK@Z 1003956d f i libucrt:assert.obj
 0001:0003858d       ??$get_module_file_name@AAPAUHINSTANCE__@@AAY0BAF@_WK@?$__crt_char_traits@_W@@SAKAAPAUHINSTANCE__@@AAY0BAF@_W$$QAK@Z 1003958d f i libucrt:assert.obj
 0001:000385ad       ??$itot_s@ABIQAD$$CBIH@?$__crt_char_traits@D@@SAHABI$$QBQAD$$QBI$$QAH@Z 100395ad f i libucrt:assert.obj
 0001:000385d8       ??$itot_s@ABIQA_W$$CBIH@?$__crt_char_traits@_W@@SAHABI$$QBQA_W$$QBI$$QAH@Z 100395d8 f i libucrt:assert.obj
 0001:00038603       ??$show_message_box@AAY0CEA@DPBDJ@?$__crt_char_traits@D@@SAHAAY0CEA@D$$QAPBD$$QAJ@Z 10039603 f i libucrt:assert.obj
 0001:00038626       ??$show_message_box@AAY0CEA@_WPB_WJ@?$__crt_char_traits@_W@@SAHAAY0CEA@_W$$QAPB_W$$QAJ@Z 10039626 f i libucrt:assert.obj
 0001:00038649       ??$tcscat_s@ABQADABIAAPAD@?$__crt_char_traits@D@@SAHABQADABIAAPAD@Z 10039649 f i libucrt:assert.obj
 0001:0003866e       ??$tcscat_s@ABQADABIABQBD@?$__crt_char_traits@D@@SAHABQADABIABQBD@Z 1003966e f i libucrt:assert.obj
 0001:00038693       ??$tcscat_s@ABQADABIPBD@?$__crt_char_traits@D@@SAHABQADABI$$QAPBD@Z 10039693 f i libucrt:assert.obj
 0001:000386b8       ??$tcscat_s@ABQA_WABIAAPA_W@?$__crt_char_traits@_W@@SAHABQA_WABIAAPA_W@Z 100396b8 f i libucrt:assert.obj
 0001:000386dd       ??$tcscat_s@ABQA_WABIABQB_W@?$__crt_char_traits@_W@@SAHABQA_WABIABQB_W@Z 100396dd f i libucrt:assert.obj
 0001:00038702       ??$tcscat_s@ABQA_WABIPB_W@?$__crt_char_traits@_W@@SAHABQA_WABI$$QAPB_W@Z 10039702 f i libucrt:assert.obj
 0001:00038727       ??$tcscpy_s@AAY0BAF@DIPBD@?$__crt_char_traits@D@@SAHAAY0BAF@D$$QAI$$QAPBD@Z 10039727 f i libucrt:assert.obj
 0001:0003874a       ??$tcscpy_s@AAY0BAF@_WIPB_W@?$__crt_char_traits@_W@@SAHAAY0BAF@_W$$QAI$$QAPB_W@Z 1003974a f i libucrt:assert.obj
 0001:0003876d       ??$tcscpy_s@ABQADABIPBD@?$__crt_char_traits@D@@SAHABQADABI$$QAPBD@Z 1003976d f i libucrt:assert.obj
 0001:00038792       ??$tcscpy_s@ABQA_WABIPB_W@?$__crt_char_traits@_W@@SAHABQA_WABI$$QAPB_W@Z 10039792 f i libucrt:assert.obj
 0001:000387b7       ??$tcslen@AAY0BAF@D@?$__crt_char_traits@D@@SAIAAY0BAF@D@Z 100397b7 f i libucrt:assert.obj
 0001:000387d2       ??$tcslen@AAY0BAF@_W@?$__crt_char_traits@_W@@SAIAAY0BAF@_W@Z 100397d2 f i libucrt:assert.obj
 0001:000387f5       ??$tcslen@ABQAD@?$__crt_char_traits@D@@SAIABQAD@Z 100397f5 f i libucrt:assert.obj
 0001:00038813       ??$tcslen@ABQA_W@?$__crt_char_traits@_W@@SAIABQA_W@Z 10039813 f i libucrt:assert.obj
 0001:00038838       ??$tcslen@ABQBD@?$__crt_char_traits@D@@SAIABQBD@Z 10039838 f i libucrt:assert.obj
 0001:00038856       ??$tcslen@ABQB_W@?$__crt_char_traits@_W@@SAIABQB_W@Z 10039856 f i libucrt:assert.obj
 0001:0003887b       ??$tcsncat_s@ABQADABIAAPBD$$CBI@?$__crt_char_traits@D@@SAHABQADABIAAPBD$$QBI@Z 1003987b f i libucrt:assert.obj
 0001:000388a6       ??$tcsncat_s@ABQADABIABQBDABI@?$__crt_char_traits@D@@SAHABQADABIABQBD1@Z 100398a6 f i libucrt:assert.obj
 0001:000388d1       ??$tcsncat_s@ABQADABIPBD$$CBI@?$__crt_char_traits@D@@SAHABQADABI$$QAPBD$$QBI@Z 100398d1 f i libucrt:assert.obj
 0001:000388fc       ??$tcsncat_s@ABQA_WABIAAPB_W$$CBI@?$__crt_char_traits@_W@@SAHABQA_WABIAAPB_W$$QBI@Z 100398fc f i libucrt:assert.obj
 0001:00038927       ??$tcsncat_s@ABQA_WABIABQB_WABI@?$__crt_char_traits@_W@@SAHABQA_WABIABQB_W1@Z 10039927 f i libucrt:assert.obj
 0001:00038952       ??$tcsncat_s@ABQA_WABIPB_W$$CBI@?$__crt_char_traits@_W@@SAHABQA_WABI$$QAPB_W$$QBI@Z 10039952 f i libucrt:assert.obj
 0001:00038af7       __assert                   10039af7 f   libucrt:assert.obj
 0001:00038b51       __invoke_watson_if_error   10039b51 f i libucrt:assert.obj
 0001:00038b7b       __vfwprintf_l              10039b7b f i libucrt:assert.obj
 0001:00038ba9       __vswprintf_c_l            10039ba9 f i libucrt:assert.obj
 0001:00038be3       __wassert                  10039be3 f   libucrt:assert.obj
 0001:00038c3d       _fwprintf                  10039c3d f i libucrt:assert.obj
 0001:00038cff       _swprintf                  10039cff f i libucrt:assert.obj
 0001:00038d24       __errcode                  10039d24 f   libucrt:fpexcept.obj
 0001:00038d65       __except1                  10039d65 f   libucrt:fpexcept.obj
 0001:00038e66       __except2                  10039e66 f   libucrt:fpexcept.obj
 0001:00038faf       __handle_exc               10039faf f   libucrt:fpexcept.obj
 0001:00039207       __handle_qnan2             1003a207 f   libucrt:fpexcept.obj
 0001:00039217       __raise_exc                1003a217 f   libucrt:fpexcept.obj
 0001:00039242       __raise_exc_ex             1003a242 f   libucrt:fpexcept.obj
 0001:000395ef       __raise_excf               1003a5ef f   libucrt:fpexcept.obj
 0001:0003961a       __set_errno_from_matherr   1003a61a f   libucrt:fpexcept.obj
 0001:00039654       __umatherr                 1003a654 f   libucrt:fpexcept.obj
 0001:0003971e       __initterm                 1003a71e f   libucrt:initterm.obj
 0001:00039791       __initterm_e               1003a791 f   libucrt:initterm.obj
 0001:00039814       __seh_filter_dll           1003a814 f   libucrt:exception_filter.obj
 0001:0003983c       __seh_filter_exe           1003a83c f   libucrt:exception_filter.obj
 0001:00039a0b       ??$?RE@__crt_internal_free_policy@@QBEXQBE@Z 1003aa0b f i libucrt:argv_parsing.obj
 0001:00039a21       ??$?RPAD@__crt_internal_free_policy@@QBEXQBQAD@Z 1003aa21 f i libucrt:argv_parsing.obj
 0001:00039a37       ??$?RPA_W@__crt_internal_free_policy@@QBEXQBQA_W@Z 1003aa37 f i libucrt:argv_parsing.obj
 0001:00039d20       ??$get_module_file_name@$$TAAY0BAF@DH@?$__crt_char_traits@D@@SAK$$QA$$TAAY0BAF@D$$QAH@Z 1003ad20 f i libucrt:argv_parsing.obj
 0001:00039d40       ??$get_module_file_name@$$TAAY0BAF@_WH@?$__crt_char_traits@_W@@SAK$$QA$$TAAY0BAF@_W$$QAH@Z 1003ad40 f i libucrt:argv_parsing.obj
 0001:0003a119       ??$set_program_name@PAD@?$__crt_char_traits@D@@SAX$$QAPAD@Z 1003b119 f i libucrt:argv_parsing.obj
 0001:0003a12e       ??$set_program_name@PA_W@?$__crt_char_traits@_W@@SAX$$QAPA_W@Z 1003b12e f i libucrt:argv_parsing.obj
 0001:0003a16b       ??0?$__crt_unique_heap_ptr@EU__crt_internal_free_policy@@@@QAE@QAE@Z 1003b16b f i libucrt:argv_parsing.obj
 0001:0003a17f       ??0?$__crt_unique_heap_ptr@PADU__crt_internal_free_policy@@@@QAE@QAPAD@Z 1003b17f f i libucrt:argv_parsing.obj
 0001:0003a193       ??0?$__crt_unique_heap_ptr@PA_WU__crt_internal_free_policy@@@@QAE@QAPA_W@Z 1003b193 f i libucrt:argv_parsing.obj
 0001:0003a1a7       ??1?$__crt_unique_heap_ptr@EU__crt_internal_free_policy@@@@QAE@XZ 1003b1a7 f i libucrt:argv_parsing.obj
 0001:0003a1bd       ??1?$__crt_unique_heap_ptr@PADU__crt_internal_free_policy@@@@QAE@XZ 1003b1bd f i libucrt:argv_parsing.obj
 0001:0003a1d3       ??1?$__crt_unique_heap_ptr@PA_WU__crt_internal_free_policy@@@@QAE@XZ 1003b1d3 f i libucrt:argv_parsing.obj
 0001:0003a1e9       ??B?$__crt_unique_heap_ptr@EU__crt_internal_free_policy@@@@QBE_NXZ 1003b1e9 f i libucrt:argv_parsing.obj
 0001:0003a229       ?detach@?$__crt_unique_heap_ptr@EU__crt_internal_free_policy@@@@QAEPAEXZ 1003b229 f i libucrt:argv_parsing.obj
 0001:0003a22f       ?detach@?$__crt_unique_heap_ptr@PADU__crt_internal_free_policy@@@@QAEPAPADXZ 1003b22f f i libucrt:argv_parsing.obj
 0001:0003a235       ?detach@?$__crt_unique_heap_ptr@PA_WU__crt_internal_free_policy@@@@QAEPAPA_WXZ 1003b235 f i libucrt:argv_parsing.obj
 0001:0003a25b       ?get@?$__crt_unique_heap_ptr@EU__crt_internal_free_policy@@@@QBEPAEXZ 1003b25b f i libucrt:argv_parsing.obj
 0001:0003a25e       ?get@?$__crt_unique_heap_ptr@PADU__crt_internal_free_policy@@@@QBEPAPADXZ 1003b25e f i libucrt:argv_parsing.obj
 0001:0003a261       ?get@?$__crt_unique_heap_ptr@PA_WU__crt_internal_free_policy@@@@QBEPAPA_WXZ 1003b261 f i libucrt:argv_parsing.obj
 0001:0003a264       ?get_address_of@?$__crt_unique_heap_ptr@PADU__crt_internal_free_policy@@@@QAEPAPAPADXZ 1003b264 f i libucrt:argv_parsing.obj
 0001:0003a267       ?get_address_of@?$__crt_unique_heap_ptr@PA_WU__crt_internal_free_policy@@@@QAEPAPAPA_WXZ 1003b267 f i libucrt:argv_parsing.obj
 0001:0003a282       ?is_valid@?$__crt_unique_heap_ptr@EU__crt_internal_free_policy@@@@QBE_NXZ 1003b282 f i libucrt:argv_parsing.obj
 0001:0003a28c       ?release@?$__crt_unique_heap_ptr@EU__crt_internal_free_policy@@@@QAEXXZ 1003b28c f i libucrt:argv_parsing.obj
 0001:0003a2a2       ?release@?$__crt_unique_heap_ptr@PADU__crt_internal_free_policy@@@@QAEXXZ 1003b2a2 f i libucrt:argv_parsing.obj
 0001:0003a2b8       ?release@?$__crt_unique_heap_ptr@PA_WU__crt_internal_free_policy@@@@QAEXXZ 1003b2b8 f i libucrt:argv_parsing.obj
 0001:0003a2ef       ___acrt_allocate_buffer_for_argv 1003b2ef f   libucrt:argv_parsing.obj
 0001:0003a359       __configure_narrow_argv    1003b359 f   libucrt:argv_parsing.obj
 0001:0003a366       __configure_wide_argv      1003b366 f   libucrt:argv_parsing.obj
 0001:0003a373       __set_pgmptr               1003b373 f i libucrt:argv_parsing.obj
 0001:0003a385       __set_wpgmptr              1003b385 f i libucrt:argv_parsing.obj
 0001:0003a85f       ??$get_environment_from_os@$$$V@?$__crt_char_traits@D@@SAPADXZ 1003b85f f i libucrt:environment_initialization.obj
 0001:0003a864       ??$get_environment_from_os@$$$V@?$__crt_char_traits@_W@@SAPA_WXZ 1003b864 f i libucrt:environment_initialization.obj
 0001:0003a99e       ??$set_variable_in_environment_nolock@PADH@?$__crt_char_traits@D@@SAH$$QAPAD$$QAH@Z 1003b99e f i libucrt:environment_initialization.obj
 0001:0003a9bc       ??$set_variable_in_environment_nolock@PA_WH@?$__crt_char_traits@_W@@SAH$$QAPA_W$$QAH@Z 1003b9bc f i libucrt:environment_initialization.obj
 0001:0003a9da       ??$tcscpy_s@PADABIAAPAD@?$__crt_char_traits@D@@SAH$$QAPADABIAAPAD@Z 1003b9da f i libucrt:environment_initialization.obj
 0001:0003a9ff       ??$tcscpy_s@PA_WABIAAPA_W@?$__crt_char_traits@_W@@SAH$$QAPA_WABIAAPA_W@Z 1003b9ff f i libucrt:environment_initialization.obj
 0001:0003aa24       ??$tcslen@AAPAD@?$__crt_char_traits@D@@SAIAAPAD@Z 1003ba24 f i libucrt:environment_initialization.obj
 0001:0003aa42       ??$tcslen@AAPA_W@?$__crt_char_traits@_W@@SAIAAPA_W@Z 1003ba42 f i libucrt:environment_initialization.obj
 0001:0003aa67       ??$uninitialize@A6AXAAPAPAD@Z@?$dual_state_global@PAPAD@__crt_state_management@@QAEXA6AXAAPAPAD@Z@Z 1003ba67 f i libucrt:environment_initialization.obj
 0001:0003aab7       ??$uninitialize@A6AXAAPAPA_W@Z@?$dual_state_global@PAPA_W@__crt_state_management@@QAEXA6AXAAPAPA_W@Z@Z 1003bab7 f i libucrt:environment_initialization.obj
 0001:0003ab49       ??B?$__crt_unique_heap_ptr@PADU__crt_internal_free_policy@@@@QBE_NXZ 1003bb49 f i libucrt:environment_initialization.obj
 0001:0003ab53       ??B?$__crt_unique_heap_ptr@PA_WU__crt_internal_free_policy@@@@QBE_NXZ 1003bb53 f i libucrt:environment_initialization.obj
 0001:0003ab5d       ??B?$__crt_unique_heap_ptr@_WU__crt_internal_free_policy@@@@QBE_NXZ 1003bb5d f i libucrt:environment_initialization.obj
 0001:0003ab67       ?__crt_compute_required_transform_buffer_count@@YAIIQBD@Z 1003bb67 f i libucrt:environment_initialization.obj
 0001:0003ab87       ?__crt_compute_required_transform_buffer_count@@YAIIQB_W@Z 1003bb87 f i libucrt:environment_initialization.obj
 0001:0003abaa       ?__crt_transform_string@@YAIIQBDQA_WI@Z 1003bbaa f i libucrt:environment_initialization.obj
 0001:0003abce       ?__crt_transform_string@@YAIIQB_WQADI@Z 1003bbce f i libucrt:environment_initialization.obj
 0001:0003abf6       ?detach@?$__crt_unique_heap_ptr@DU__crt_internal_free_policy@@@@QAEPADXZ 1003bbf6 f i libucrt:environment_initialization.obj
 0001:0003abfc       ?detach@?$__crt_unique_heap_ptr@_WU__crt_internal_free_policy@@@@QAEPA_WXZ 1003bbfc f i libucrt:environment_initialization.obj
 0001:0003ac02       ?get_current_state_index@__crt_state_management@@YAIXZ 1003bc02 f i libucrt:environment_initialization.obj
 0001:0003ac29       ?initialize@?$dual_state_global@PAPAD@__crt_state_management@@QAEXQAPAD@Z 1003bc29 f i libucrt:environment_initialization.obj
 0001:0003ac66       ?initialize@?$dual_state_global@PAPA_W@__crt_state_management@@QAEXQAPA_W@Z 1003bc66 f i libucrt:environment_initialization.obj
 0001:0003aca3       ?is_valid@?$__crt_unique_heap_ptr@PADU__crt_internal_free_policy@@@@QBE_NXZ 1003bca3 f i libucrt:environment_initialization.obj
 0001:0003acad       ?is_valid@?$__crt_unique_heap_ptr@PA_WU__crt_internal_free_policy@@@@QBE_NXZ 1003bcad f i libucrt:environment_initialization.obj
 0001:0003acb7       ?is_valid@?$__crt_unique_heap_ptr@_WU__crt_internal_free_policy@@@@QBE_NXZ 1003bcb7 f i libucrt:environment_initialization.obj
 0001:0003acc7       ?value@?$dual_state_global@PAPAD@__crt_state_management@@QAEAAPAPADXZ 1003bcc7 f i libucrt:environment_initialization.obj
 0001:0003acca       ?value@?$dual_state_global@PAPA_W@__crt_state_management@@QAEAAPAPA_WXZ 1003bcca f i libucrt:environment_initialization.obj
 0001:0003accd       ___dcrt_get_or_create_narrow_environment_nolock 1003bccd f   libucrt:environment_initialization.obj
 0001:0003acd2       ___dcrt_get_or_create_wide_environment_nolock 1003bcd2 f   libucrt:environment_initialization.obj
 0001:0003acd7       ___dcrt_uninitialize_environments_nolock 1003bcd7 f   libucrt:environment_initialization.obj
 0001:0003ad1b       ___p__environ              1003bd1b f   libucrt:environment_initialization.obj
 0001:0003ad21       ___p__wenviron             1003bd21 f   libucrt:environment_initialization.obj
 0001:0003ad27       __get_initial_narrow_environment 1003bd27 f   libucrt:environment_initialization.obj
 0001:0003ad40       __get_initial_wide_environment 1003bd40 f   libucrt:environment_initialization.obj
 0001:0003ad59       __initialize_narrow_environment 1003bd59 f   libucrt:environment_initialization.obj
 0001:0003ad5e       __initialize_wide_environment 1003bd5e f   libucrt:environment_initialization.obj
 0001:0003ad63       ??$?BP6AXXZ@__crt_fast_encoded_nullptr_t@@QBEPAP6AXXZXZ 1003bd63 f i libucrt:onexit.obj
 0001:0003ad81       ??$?RP6AXXZ@__crt_internal_free_policy@@QBEXQBQ6AXXZ@Z 1003bd81 f i libucrt:onexit.obj
 0001:0003ad97       ??$?RV<lambda_800076c951b434888f4765a74a194fcc>@@AAV<lambda_4e60a939b0d047cfe11ddc22648dfba9>@@V<lambda_6dbb1268764f43b569ce7b67e331d33a>@@@?$__crt_seh_guarded_call@H@@QAEH$$QAV<lambda_800076c951b434888f4765a74a194fcc>@@AAV<lambda_4e60a939b0d047cfe11ddc22648dfba9>@@$$QAV<lambda_6dbb1268764f43b569ce7b67e331d33a>@@@Z 1003bd97 f i libucrt:onexit.obj
 0001:0003adfc       ??$?RV<lambda_995298e7d72eb4c2aab26c0585b3abe5>@@AAV<lambda_275893d493268fdec8709772e3fcec0e>@@V<lambda_293819299cbf9a7022e18b56a874bb5c>@@@?$__crt_seh_guarded_call@H@@QAEH$$QAV<lambda_995298e7d72eb4c2aab26c0585b3abe5>@@AAV<lambda_275893d493268fdec8709772e3fcec0e>@@$$QAV<lambda_293819299cbf9a7022e18b56a874bb5c>@@@Z 1003bdfc f i libucrt:onexit.obj
 0001:0003ae61       ??$__acrt_lock_and_call@V<lambda_275893d493268fdec8709772e3fcec0e>@@@@YAHW4__acrt_lock_id@@$$QAV<lambda_275893d493268fdec8709772e3fcec0e>@@@Z 1003be61 f i libucrt:onexit.obj
 0001:0003ae93       ??$__acrt_lock_and_call@V<lambda_4e60a939b0d047cfe11ddc22648dfba9>@@@@YAHW4__acrt_lock_id@@$$QAV<lambda_4e60a939b0d047cfe11ddc22648dfba9>@@@Z 1003be93 f i libucrt:onexit.obj
 0001:0003aec5       ??$__crt_fast_encode_pointer@P6AHXZ@@YAP6AHXZQ6AHXZ@Z 1003bec5 f i libucrt:onexit.obj
 0001:0003af72       ??0?$__crt_unique_heap_ptr@P6AXXZU__crt_internal_free_policy@@@@QAE@QAP6AXXZ@Z 1003bf72 f i libucrt:onexit.obj
 0001:0003af86       ??1?$__crt_unique_heap_ptr@P6AXXZU__crt_internal_free_policy@@@@QAE@XZ 1003bf86 f i libucrt:onexit.obj
 0001:0003b2c1       ?detach@?$__crt_unique_heap_ptr@P6AXXZU__crt_internal_free_policy@@@@QAEPAP6AXXZXZ 1003c2c1 f i libucrt:onexit.obj
 0001:0003b2c7       ?release@?$__crt_unique_heap_ptr@P6AXXZU__crt_internal_free_policy@@@@QAEXXZ 1003c2c7 f i libucrt:onexit.obj
 0001:0003b2dd       __crt_at_quick_exit        1003c2dd f   libucrt:onexit.obj
 0001:0003b2f8       __crt_atexit               1003c2f8 f   libucrt:onexit.obj
 0001:0003b313       __execute_onexit_table     1003c313 f   libucrt:onexit.obj
 0001:0003b337       __initialize_onexit_table  1003c337 f   libucrt:onexit.obj
 0001:0003b383       __register_onexit_function 1003c383 f   libucrt:onexit.obj
 0001:0003b4ea       ?initialize@?$dual_state_global@PAU__crt_locale_data@@@__crt_state_management@@QAEXQAU__crt_locale_data@@@Z 1003c4ea f i libucrt:initialization.obj
 0001:0003b527       ___acrt_initialize         1003c527 f   libucrt:initialization.obj
 0001:0003b53d       ___acrt_thread_attach      1003c53d f   libucrt:initialization.obj
 0001:0003b54a       ___acrt_thread_detach      1003c54a f   libucrt:initialization.obj
 0001:0003b554       ___acrt_uninitialize       1003c554 f   libucrt:initialization.obj
 0001:0003b56a       ___acrt_uninitialize_critical 1003c56a f   libucrt:initialization.obj
 0001:0003b59b       __get_terminate            1003c59b f   libucrt:terminate.obj
 0001:0003b5b1       _set_terminate             1003c5b1 f   libucrt:terminate.obj
 0001:0003b5d9       _terminate                 1003c5d9 f   libucrt:terminate.obj
 0001:0003b624       ??$__crt_interlocked_exchange_pointer@X$$T@@YAPAXPDSAX$$T@Z 1003c624 f i libucrt:free_base.obj
 0001:0003b63c       ___acrt_get_msvcrt_heap_handle 1003c63c f   libucrt:free_base.obj
 0001:0003b6cd       __free_base                1003c6cd f   libucrt:free_base.obj
 0001:0003b715       __malloc_base              1003c715 f   libucrt:malloc_base.obj
 0001:0003b7e6       _strcpy_s                  1003c7e6 f   libucrt:strcpy_s.obj
 0001:0003b856       __set_abort_behavior       1003c856 f   libucrt:abort.obj
 0001:0003b87f       _abort                     1003c87f f   libucrt:abort.obj
 0001:0003b8d2       __calloc_base              1003c8d2 f   libucrt:calloc_base.obj
 0001:0003b946       ??$is_overflow_condition@K@__crt_strtox@@YA_NIK@Z 1003c946 f i libucrt:atox.obj
 0001:0003b985       ??$is_overflow_condition@_K@__crt_strtox@@YA_NI_K@Z 1003c985 f i libucrt:atox.obj
 0001:0003b9d8       ??$make_c_string_character_source@D$$T@__crt_strtox@@YA?AV?$c_string_character_source@D@0@QBD$$T@Z 1003c9d8 f i libucrt:atox.obj
 0001:0003b9f9       ??$make_c_string_character_source@_W$$T@__crt_strtox@@YA?AV?$c_string_character_source@_W@0@QB_W$$T@Z 1003c9f9 f i libucrt:atox.obj
 0001:0003ba1a       ??$parse_integer@KV?$c_string_character_source@D@__crt_strtox@@@__crt_strtox@@YAKQAU__crt_locale_pointers@@V?$c_string_character_source@D@0@H_N@Z 1003ca1a f i libucrt:atox.obj
 0001:0003bccc       ??$parse_integer@KV?$c_string_character_source@_W@__crt_strtox@@@__crt_strtox@@YAKQAU__crt_locale_pointers@@V?$c_string_character_source@_W@0@H_N@Z 1003cccc f i libucrt:atox.obj
 0001:0003c56a       ??$parse_integer@_KV?$c_string_character_source@D@__crt_strtox@@@__crt_strtox@@YA_KQAU__crt_locale_pointers@@V?$c_string_character_source@D@0@H_N@Z 1003d56a f i libucrt:atox.obj
 0001:0003c8b9       ??$parse_integer@_KV?$c_string_character_source@_W@__crt_strtox@@@__crt_strtox@@YA_KQAU__crt_locale_pointers@@V?$c_string_character_source@_W@0@H_N@Z 1003d8b9 f i libucrt:atox.obj
 0001:0003d02b       ??$parse_integer_from_string@JD$$T@__crt_strtox@@YAJQBD$$THQAU__crt_locale_pointers@@@Z 1003e02b f i libucrt:atox.obj
 0001:0003d063       ??$parse_integer_from_string@J_W$$T@__crt_strtox@@YAJQB_W$$THQAU__crt_locale_pointers@@@Z 1003e063 f i libucrt:atox.obj
 0001:0003d09b       ??$parse_integer_from_string@_JD$$T@__crt_strtox@@YA_JQBD$$THQAU__crt_locale_pointers@@@Z 1003e09b f i libucrt:atox.obj
 0001:0003d0d3       ??$parse_integer_from_string@_J_W$$T@__crt_strtox@@YA_JQB_W$$THQAU__crt_locale_pointers@@@Z 1003e0d3 f i libucrt:atox.obj
 0001:0003d10b       ??0?$c_string_character_source@D@__crt_strtox@@QAE@QBDQAPBD@Z 1003e10b f i libucrt:atox.obj
 0001:0003d12e       ??0?$c_string_character_source@_W@__crt_strtox@@QAE@QB_WQAPB_W@Z 1003e12e f i libucrt:atox.obj
 0001:0003d151       ??1?$c_string_character_source@D@__crt_strtox@@QAE@XZ 1003e151 f i libucrt:atox.obj
 0001:0003d160       ??1?$c_string_character_source@_W@__crt_strtox@@QAE@XZ 1003e160 f i libucrt:atox.obj
 0001:0003d16f       ?get@?$c_string_character_source@D@__crt_strtox@@QAEDXZ 1003e16f f i libucrt:atox.obj
 0001:0003d179       ?get@?$c_string_character_source@_W@__crt_strtox@@QAE_WXZ 1003e179 f i libucrt:atox.obj
 0001:0003d186       ?is_space@__crt_strtox@@YA_NDQAU__crt_locale_pointers@@@Z 1003e186 f i libucrt:atox.obj
 0001:0003d1ac       ?is_space@__crt_strtox@@YA_N_WPAU__crt_locale_pointers@@@Z 1003e1ac f i libucrt:atox.obj
 0001:0003d1cb       ?maximum_signed_value@__crt_strtox@@YAJK@Z 1003e1cb f i libucrt:atox.obj
 0001:0003d1d1       ?maximum_signed_value@__crt_strtox@@YA_J_K@Z 1003e1d1 f i libucrt:atox.obj
 0001:0003d1dc       ?minimum_signed_value@__crt_strtox@@YAJK@Z 1003e1dc f i libucrt:atox.obj
 0001:0003d1e2       ?minimum_signed_value@__crt_strtox@@YA_J_K@Z 1003e1e2 f i libucrt:atox.obj
 0001:0003d1ec       ?parse_digit@__crt_strtox@@YAID@Z 1003e1ec f i libucrt:atox.obj
 0001:0003d234       ?parse_digit@__crt_strtox@@YAI_W@Z 1003e234 f i libucrt:atox.obj
 0001:0003d491       ?restore_state@?$c_string_character_source@D@__crt_strtox@@QAE_NQBD@Z 1003e491 f i libucrt:atox.obj
 0001:0003d4a5       ?restore_state@?$c_string_character_source@_W@__crt_strtox@@QAE_NQB_W@Z 1003e4a5 f i libucrt:atox.obj
 0001:0003d4b9       ?save_state@?$c_string_character_source@D@__crt_strtox@@QBEPBDXZ 1003e4b9 f i libucrt:atox.obj
 0001:0003d4bc       ?save_state@?$c_string_character_source@_W@__crt_strtox@@QBEPB_WXZ 1003e4bc f i libucrt:atox.obj
 0001:0003d4bf       ?unget@?$c_string_character_source@D@__crt_strtox@@QAEXD@Z 1003e4bf f i libucrt:atox.obj
 0001:0003d4f1       ?unget@?$c_string_character_source@_W@__crt_strtox@@QAEX_W@Z 1003e4f1 f i libucrt:atox.obj
 0001:0003d528       ?validate@?$c_string_character_source@D@__crt_strtox@@QBE_NXZ 1003e528 f i libucrt:atox.obj
 0001:0003d549       ?validate@?$c_string_character_source@_W@__crt_strtox@@QBE_NXZ 1003e549 f i libucrt:atox.obj
 0001:0003d56a       ?wide_character_to_digit@__crt_strtox@@YAH_W@Z 1003e56a f i libucrt:atox.obj
 0001:0003d773       ___acrt_get_locale_data_prefix 1003e773 f i libucrt:atox.obj
 0001:0003d782       __atoi64                   1003e782 f   libucrt:atox.obj
 0001:0003d7b6       __atoi64_l                 1003e7b6 f   libucrt:atox.obj
 0001:0003d7eb       __atoi_l                   1003e7eb f   libucrt:atox.obj
 0001:0003d820       __atol_l                   1003e820 f   libucrt:atox.obj
 0001:0003d855       __atoll_l                  1003e855 f   libucrt:atox.obj
 0001:0003d88a       __chvalidchk_l             1003e88a f i libucrt:atox.obj
 0001:0003d8be       __ischartype_l             1003e8be f i libucrt:atox.obj
 0001:0003d8fd       __wtoi                     1003e8fd f   libucrt:atox.obj
 0001:0003d931       __wtoi64                   1003e931 f   libucrt:atox.obj
 0001:0003d965       __wtoi64_l                 1003e965 f   libucrt:atox.obj
 0001:0003d99a       __wtoi_l                   1003e99a f   libucrt:atox.obj
 0001:0003d9cf       __wtol                     1003e9cf f   libucrt:atox.obj
 0001:0003da03       __wtol_l                   1003ea03 f   libucrt:atox.obj
 0001:0003da38       __wtoll                    1003ea38 f   libucrt:atox.obj
 0001:0003da6c       __wtoll_l                  1003ea6c f   libucrt:atox.obj
 0001:0003daa1       _atoi                      1003eaa1 f   libucrt:atox.obj
 0001:0003dad5       _atol                      1003ead5 f   libucrt:atox.obj
 0001:0003db09       _atoll                     1003eb09 f   libucrt:atox.obj
 0001:0003db3d       ??$__crt_fast_decode_pointer@P6AXPB_W00II@Z@@YAP6AXPB_W00II@ZQ6AX000II@Z@Z 1003eb3d f i libucrt:invalid_parameter.obj
 0001:0003db58       ??$__crt_fast_encode_pointer@P6AXPB_W00II@Z@@YAP6AXPB_W00II@ZQ6AX000II@Z@Z 1003eb58 f i libucrt:invalid_parameter.obj
 0001:0003db7e       ?initialize@?$dual_state_global@P6AXPB_W00II@Z@__crt_state_management@@QAEXQ6AXPB_W00II@Z@Z 1003eb7e f i libucrt:invalid_parameter.obj
 0001:0003dbbb       ?value@?$dual_state_global@P6AXPB_W00II@Z@__crt_state_management@@QAEAAP6AXPB_W00II@ZXZ 1003ebbb f i libucrt:invalid_parameter.obj
 0001:0003dbbe       ___acrt_call_reportfault   1003ebbe f   libucrt:invalid_parameter.obj
 0001:0003dd47       ___acrt_initialize_invalid_parameter_handler 1003ed47 f   libucrt:invalid_parameter.obj
 0001:0003dd60       __get_invalid_parameter_handler 1003ed60 f   libucrt:invalid_parameter.obj
 0001:0003dd77       __get_thread_local_invalid_parameter_handler 1003ed77 f   libucrt:invalid_parameter.obj
 0001:0003dd8c       __invalid_parameter        1003ed8c f   libucrt:invalid_parameter.obj
 0001:0003de25       __invalid_parameter_noinfo 1003ee25 f   libucrt:invalid_parameter.obj
 0001:0003de39       __invalid_parameter_noinfo_noreturn 1003ee39 f   libucrt:invalid_parameter.obj
 0001:0003de5d       __invoke_watson            1003ee5d f   libucrt:invalid_parameter.obj
 0001:0003de9c       __set_invalid_parameter_handler 1003ee9c f   libucrt:invalid_parameter.obj
 0001:0003ded8       __set_thread_local_invalid_parameter_handler 1003eed8 f   libucrt:invalid_parameter.obj
 0001:0003defc       ___acrt_errno_from_os_error 1003eefc f   libucrt:errno.obj
 0001:0003df4f       ___acrt_errno_map_os_error 1003ef4f f   libucrt:errno.obj
 0001:0003df7a       ___doserrno                1003ef7a f   libucrt:errno.obj
 0001:0003df91       __errno                    1003ef91 f   libucrt:errno.obj
 0001:0003dfa8       __get_doserrno             1003efa8 f   libucrt:errno.obj
 0001:0003dfd6       __get_errno                1003efd6 f   libucrt:errno.obj
 0001:0003e004       __set_doserrno             1003f004 f   libucrt:errno.obj
 0001:0003e02d       __set_errno                1003f02d f   libucrt:errno.obj
 0001:0003e0ad       ??$?B$$A6GHPA_WKJ@Z@__crt_fast_encoded_nullptr_t@@QBEP6GHPA_WKJ@ZXZ 1003f0ad f i libucrt:winapi_thunks.obj
 0001:0003e0cb       ??$?RV<lambda_9227be29367c048ad7fd93a717dcb1a1>@@AAV<lambda_a463b7b0560cfcaf9b17f27c6ef46564>@@V<lambda_ccea11b5727ccf69be64f5f5d9a08d9f>@@@?$__crt_seh_guarded_call@H@@QAEH$$QAV<lambda_9227be29367c048ad7fd93a717dcb1a1>@@AAV<lambda_a463b7b0560cfcaf9b17f27c6ef46564>@@$$QAV<lambda_ccea11b5727ccf69be64f5f5d9a08d9f>@@@Z 1003f0cb f i libucrt:winapi_thunks.obj
 0001:0003e170       ??$__acrt_lock_and_call@V<lambda_a463b7b0560cfcaf9b17f27c6ef46564>@@@@YAHW4__acrt_lock_id@@$$QAV<lambda_a463b7b0560cfcaf9b17f27c6ef46564>@@@Z 1003f170 f i libucrt:winapi_thunks.obj
 0001:0003e1a2       ??$__crt_fast_decode_pointer@P6GHPA_WKJ@Z@@YAP6GHPA_WKJ@ZQ6GH0KJ@Z@Z 1003f1a2 f i libucrt:winapi_thunks.obj
 0001:0003e1bd       ??$__crt_fast_encode_pointer@P6GHPA_WKJ@Z@@YAP6GHPA_WKJ@ZQ6GH0KJ@Z@Z 1003f1bd f i libucrt:winapi_thunks.obj
 0001:0003e8ea       ___acrt_AreFileApisANSI@0  1003f8ea f   libucrt:winapi_thunks.obj
 0001:0003e94b       ___acrt_CompareStringEx@36 1003f94b f   libucrt:winapi_thunks.obj
 0001:0003e9dc       ___acrt_EnumSystemLocalesEx@16 1003f9dc f   libucrt:winapi_thunks.obj
 0001:0003ea64       ___acrt_FlsAlloc@4         1003fa64 f   libucrt:winapi_thunks.obj
 0001:0003eacf       ___acrt_FlsFree@4          1003facf f   libucrt:winapi_thunks.obj
 0001:0003eb3a       ___acrt_FlsGetValue@4      1003fb3a f   libucrt:winapi_thunks.obj
 0001:0003eba5       ___acrt_FlsSetValue@8      1003fba5 f   libucrt:winapi_thunks.obj
 0001:0003ec14       ___acrt_GetDateFormatEx@28 1003fc14 f   libucrt:winapi_thunks.obj
 0001:0003ecb6       ___acrt_GetEnabledXStateFeatures@0 1003fcb6 f   libucrt:winapi_thunks.obj
 0001:0003ed18       ___acrt_GetFileInformationByHandleEx@16 1003fd18 f   libucrt:winapi_thunks.obj
 0001:0003ed93       ___acrt_GetLocaleInfoEx@16 1003fd93 f   libucrt:winapi_thunks.obj
 0001:0003ee17       ___acrt_GetSystemTimePreciseAsFileTime@4 1003fe17 f   libucrt:winapi_thunks.obj
 0001:0003ee82       ___acrt_GetTimeFormatEx@24 1003fe82 f   libucrt:winapi_thunks.obj
 0001:0003ef0e       ___acrt_GetUserDefaultLocaleName@8 1003ff0e f   libucrt:winapi_thunks.obj
 0001:0003ef8e       ___acrt_GetXStateFeaturesMask@8 1003ff8e f   libucrt:winapi_thunks.obj
 0001:0003effa       ___acrt_InitializeCriticalSectionEx@12 1003fffa f   libucrt:winapi_thunks.obj
 0001:0003f074       ___acrt_IsValidLocaleName@4 10040074 f   libucrt:winapi_thunks.obj
 0001:0003f0ef       ___acrt_LCIDToLocaleName@16 100400ef f   libucrt:winapi_thunks.obj
 0001:0003f173       ___acrt_LCMapStringEx@36   10040173 f   libucrt:winapi_thunks.obj
 0001:0003f21d       ___acrt_LocaleNameToLCID@8 1004021d f   libucrt:winapi_thunks.obj
 0001:0003f290       ___acrt_LocateXStateFeature@12 10040290 f   libucrt:winapi_thunks.obj
 0001:0003f2e7       ___acrt_MessageBoxA@16     100402e7 f   libucrt:winapi_thunks.obj
 0001:0003f342       ___acrt_MessageBoxW@16     10040342 f   libucrt:winapi_thunks.obj
 0001:0003f39d       ___acrt_RoInitialize@4     1004039d f   libucrt:winapi_thunks.obj
 0001:0003f403       ___acrt_RoUninitialize@0   10040403 f   libucrt:winapi_thunks.obj
 0001:0003f45e       ___acrt_RtlGenRandom@8     1004045e f   libucrt:winapi_thunks.obj
 0001:0003f4ca       ___acrt_SetThreadStackGuarantee@4 100404ca f   libucrt:winapi_thunks.obj
 0001:0003f530       ___acrt_can_show_message_box 10040530 f   libucrt:winapi_thunks.obj
 0001:0003f54f       ___acrt_can_use_vista_locale_apis 1004054f f   libucrt:winapi_thunks.obj
 0001:0003f55e       ___acrt_can_use_xstate_apis 1004055e f   libucrt:winapi_thunks.obj
 0001:0003f56d       ___acrt_get_parent_window  1004056d f   libucrt:winapi_thunks.obj
 0001:0003f60b       ___acrt_initialize_winapi_thunks 1004060b f   libucrt:winapi_thunks.obj
 0001:0003f63a       ___acrt_is_interactive     1004063a f   libucrt:winapi_thunks.obj
 0001:0003f709       ___acrt_is_packaged_app    10040709 f   libucrt:winapi_thunks.obj
 0001:0003f7b1       ___acrt_uninitialize_winapi_thunks 100407b1 f   libucrt:winapi_thunks.obj
 0001:0003f7f4       ??0__crt_stdio_stream@@QAE@QAU__crt_stdio_stream_data@@@Z 100407f4 f i libucrt:closeall.obj
 0001:0003f808       __fcloseall                10040808 f   libucrt:closeall.obj
 0001:0003f8d0       ___acrt_stdio_flush_nolock 100408d0 f   libucrt:fflush.obj
 0001:0003f94f       __fflush_nolock            1004094f f   libucrt:fflush.obj
 0001:0003f9a7       __flushall                 100409a7 f   libucrt:fflush.obj
 0001:0003fac0       _fflush                    10040ac0 f   libucrt:fflush.obj
 0001:0003fb2f       ?has_crt_buffer@__crt_stdio_stream@@QBE_NXZ 10040b2f f i libucrt:_freebuf.obj
 0001:0003fb3e       ___acrt_stdio_free_buffer_nolock 10040b3e f   libucrt:_freebuf.obj
 0001:0003fd7b       ___acrt_initialize_lowio   10040d7b f   libucrt:ioinit.obj
 0001:0003fde6       ___acrt_uninitialize_lowio 10040de6 f   libucrt:ioinit.obj
 0001:0003fe38       ___isascii                 10040e38 f i libucrt:_ctype.obj
 0001:0003fe4e       ___iscsym                  10040e4e f i libucrt:_ctype.obj
 0001:0003fe78       ___iscsymf                 10040e78 f i libucrt:_ctype.obj
 0001:0003fe9e       ___toascii                 10040e9e f i libucrt:_ctype.obj
 0001:0003feae       __isalnum_l                10040eae f i libucrt:_ctype.obj
 0001:0003fef7       __isalpha_l                10040ef7 f i libucrt:_ctype.obj
 0001:0003ff40       __isblank_l                10040f40 f i libucrt:_ctype.obj
 0001:0003ff93       __iscntrl_l                10040f93 f i libucrt:_ctype.obj
 0001:0003ffd9       __iscsym_l                 10040fd9 f i libucrt:_ctype.obj
 0001:00040004       __iscsymf_l                10041004 f i libucrt:_ctype.obj
 0001:0004002f       __isdigit_l                1004102f f i libucrt:_ctype.obj
 0001:00040075       __isgraph_l                10041075 f i libucrt:_ctype.obj
 0001:000400be       __islower_l                100410be f i libucrt:_ctype.obj
 0001:00040104       __isprint_l                10041104 f i libucrt:_ctype.obj
 0001:0004014d       __ispunct_l                1004114d f i libucrt:_ctype.obj
 0001:00040193       __isspace_l                10041193 f i libucrt:_ctype.obj
 0001:000401d9       __isupper_l                100411d9 f i libucrt:_ctype.obj
 0001:0004021f       __isxdigit_l               1004121f f i libucrt:_ctype.obj
 0001:00040268       _isalnum                   10041268 f i libucrt:_ctype.obj
 0001:000402a2       _isalpha                   100412a2 f i libucrt:_ctype.obj
 0001:000402dc       _isblank                   100412dc f i libucrt:_ctype.obj
 0001:00040320       _iscntrl                   10041320 f i libucrt:_ctype.obj
 0001:00040358       _isdigit                   10041358 f i libucrt:_ctype.obj
 0001:00040390       _isgraph                   10041390 f i libucrt:_ctype.obj
 0001:000403ca       _islower                   100413ca f i libucrt:_ctype.obj
 0001:00040402       _isprint                   10041402 f i libucrt:_ctype.obj
 0001:0004043c       _ispunct                   1004143c f i libucrt:_ctype.obj
 0001:00040474       _isspace                   10041474 f i libucrt:_ctype.obj
 0001:000404ac       _isupper                   100414ac f i libucrt:_ctype.obj
 0001:000404e4       _isxdigit                  100414e4 f i libucrt:_ctype.obj
 0001:000408dc       __tolower                  100418dc f   libucrt:tolower_toupper.obj
 0001:000408ec       __tolower_l                100418ec f   libucrt:tolower_toupper.obj
 0001:0004090c       __toupper                  1004190c f   libucrt:tolower_toupper.obj
 0001:0004091c       __toupper_l                1004191c f   libucrt:tolower_toupper.obj
 0001:0004093c       _tolower                   1004193c f   libucrt:tolower_toupper.obj
 0001:00040978       _toupper                   10041978 f   libucrt:tolower_toupper.obj
 0001:000409b4       ??$make_c_string_character_source@DPAPAD@__crt_strtox@@YA?AV?$c_string_character_source@D@0@QBDQAPAD@Z 100419b4 f i libucrt:strtox.obj
 0001:000409d5       ??$make_c_string_character_source@_WPAPA_W@__crt_strtox@@YA?AV?$c_string_character_source@_W@0@QB_WQAPA_W@Z 100419d5 f i libucrt:strtox.obj
 0001:000409f6       ??$parse_integer_from_string@JDPAPAD@__crt_strtox@@YAJQBDQAPADHQAU__crt_locale_pointers@@@Z 100419f6 f i libucrt:strtox.obj
 0001:00040a2e       ??$parse_integer_from_string@J_WPAPA_W@__crt_strtox@@YAJQB_WQAPA_WHQAU__crt_locale_pointers@@@Z 10041a2e f i libucrt:strtox.obj
 0001:00040a66       ??$parse_integer_from_string@KDPAPAD@__crt_strtox@@YAKQBDQAPADHQAU__crt_locale_pointers@@@Z 10041a66 f i libucrt:strtox.obj
 0001:00040a9e       ??$parse_integer_from_string@K_WPAPA_W@__crt_strtox@@YAKQB_WQAPA_WHQAU__crt_locale_pointers@@@Z 10041a9e f i libucrt:strtox.obj
 0001:00040ad6       ??$parse_integer_from_string@_JDPAPAD@__crt_strtox@@YA_JQBDQAPADHQAU__crt_locale_pointers@@@Z 10041ad6 f i libucrt:strtox.obj
 0001:00040b0e       ??$parse_integer_from_string@_J_WPAPA_W@__crt_strtox@@YA_JQB_WQAPA_WHQAU__crt_locale_pointers@@@Z 10041b0e f i libucrt:strtox.obj
 0001:00040b46       ??$parse_integer_from_string@_KDPAPAD@__crt_strtox@@YA_KQBDQAPADHQAU__crt_locale_pointers@@@Z 10041b46 f i libucrt:strtox.obj
 0001:00040b7e       ??$parse_integer_from_string@_K_WPAPA_W@__crt_strtox@@YA_KQB_WQAPA_WHQAU__crt_locale_pointers@@@Z 10041b7e f i libucrt:strtox.obj
 0001:00040bb6       __strtoi64                 10041bb6 f   libucrt:strtox.obj
 0001:00040bed       __strtoi64_l               10041bed f   libucrt:strtox.obj
 0001:00040c25       __strtoimax_l              10041c25 f   libucrt:strtox.obj
 0001:00040c5d       __strtol_l                 10041c5d f   libucrt:strtox.obj
 0001:00040c95       __strtoll_l                10041c95 f   libucrt:strtox.obj
 0001:00040ccd       __strtoui64                10041ccd f   libucrt:strtox.obj
 0001:00040d04       __strtoui64_l              10041d04 f   libucrt:strtox.obj
 0001:00040d3c       __strtoul_l                10041d3c f   libucrt:strtox.obj
 0001:00040d74       __strtoull_l               10041d74 f   libucrt:strtox.obj
 0001:00040dac       __strtoumax_l              10041dac f   libucrt:strtox.obj
 0001:00040de4       __wcstoi64                 10041de4 f   libucrt:strtox.obj
 0001:00040e1b       __wcstoi64_l               10041e1b f   libucrt:strtox.obj
 0001:00040e53       __wcstoimax_l              10041e53 f   libucrt:strtox.obj
 0001:00040e8b       __wcstol_l                 10041e8b f   libucrt:strtox.obj
 0001:00040ec3       __wcstoll_l                10041ec3 f   libucrt:strtox.obj
 0001:00040efb       __wcstoui64                10041efb f   libucrt:strtox.obj
 0001:00040f32       __wcstoui64_l              10041f32 f   libucrt:strtox.obj
 0001:00040f6a       __wcstoul_l                10041f6a f   libucrt:strtox.obj
 0001:00040fa2       __wcstoull_l               10041fa2 f   libucrt:strtox.obj
 0001:00040fda       __wcstoumax_l              10041fda f   libucrt:strtox.obj
 0001:00041012       _strtoimax                 10042012 f   libucrt:strtox.obj
 0001:00041049       _strtol                    10042049 f   libucrt:strtox.obj
 0001:00041080       _strtoll                   10042080 f   libucrt:strtox.obj
 0001:000410b7       _strtoul                   100420b7 f   libucrt:strtox.obj
 0001:000410ee       _strtoull                  100420ee f   libucrt:strtox.obj
 0001:00041125       _strtoumax                 10042125 f   libucrt:strtox.obj
 0001:0004115c       _wcstoimax                 1004215c f   libucrt:strtox.obj
 0001:00041193       _wcstol                    10042193 f   libucrt:strtox.obj
 0001:000411ca       _wcstoll                   100421ca f   libucrt:strtox.obj
 0001:00041201       _wcstoul                   10042201 f   libucrt:strtox.obj
 0001:00041238       _wcstoull                  10042238 f   libucrt:strtox.obj
 0001:0004126f       _wcstoumax                 1004226f f   libucrt:strtox.obj
 0001:000412a6       __mbtowc_l                 100422a6 f   libucrt:mbtowc.obj
 0001:000413de       _mbtowc                    100423de f   libucrt:mbtowc.obj
 0001:000413fe       __wctomb_l                 100423fe f   libucrt:wctomb.obj
 0001:00041465       __wctomb_s_l               10042465 f   libucrt:wctomb.obj
 0001:000415ce       _wctomb                    100425ce f   libucrt:wctomb.obj
 0001:0004160f       _wctomb_s                  1004260f f   libucrt:wctomb.obj
 0001:00041d27       ??1?$__crt_simd_cleanup_guard@$00@@QAE@XZ 10042d27 f i libucrt:strnlen.obj
 0001:00041d2b       ??1?$__crt_simd_cleanup_guard@$0A@@@QAE@XZ 10042d2b f i libucrt:strnlen.obj
 0001:00041d2c       ?compare_equals@?$__crt_simd_traits@$00E@@SA?AT__m256i@@T2@0@Z 10042d2c f i libucrt:strnlen.obj
 0001:00041d31       ?compare_equals@?$__crt_simd_traits@$00G@@SA?AT__m256i@@T2@0@Z 10042d31 f i libucrt:strnlen.obj
 0001:00041d36       ?compare_equals@?$__crt_simd_traits@$0A@E@@SA?AT__m128i@@T2@0@Z 10042d36 f i libucrt:strnlen.obj
 0001:00041d3b       ?compare_equals@?$__crt_simd_traits@$0A@G@@SA?AT__m128i@@T2@0@Z 10042d3b f i libucrt:strnlen.obj
 0001:00041d40       ?compute_byte_mask@?$__crt_simd_pack_traits@$00@@SAHT__m256i@@@Z 10042d40 f i libucrt:strnlen.obj
 0001:00041d45       ?compute_byte_mask@?$__crt_simd_pack_traits@$0A@@@SAHT__m128i@@@Z 10042d45 f i libucrt:strnlen.obj
 0001:00041d4a       ?get_zero_pack@?$__crt_simd_pack_traits@$00@@SA?AT__m256i@@XZ 10042d4a f i libucrt:strnlen.obj
 0001:00041d4f       ?get_zero_pack@?$__crt_simd_pack_traits@$0A@@@SA?AT__m128i@@XZ 10042d4f f i libucrt:strnlen.obj
 0001:00041d54       _strnlen                   10042d54 f   libucrt:strnlen.obj
 0001:00041ec4       _wcsnlen                   10042ec4 f   libucrt:strnlen.obj
 0001:000420e8       ??$?RU__acrt_ptd@@@__crt_internal_free_policy@@QBEXQBU__acrt_ptd@@@Z 100430e8 f i libucrt:per_thread_data.obj
 0001:000420fe       ??$?RV<lambda_3518db117f0e7cdb002338c5d3c47b6c>@@AAV<lambda_b2ea41f6bbb362cd97d94c6828d90b61>@@V<lambda_abdedf541bb04549bc734292b4a045d4>@@@?$__crt_seh_guarded_call@X@@QAEX$$QAV<lambda_3518db117f0e7cdb002338c5d3c47b6c>@@AAV<lambda_b2ea41f6bbb362cd97d94c6828d90b61>@@$$QAV<lambda_abdedf541bb04549bc734292b4a045d4>@@@Z 100430fe f i libucrt:per_thread_data.obj
 0001:00042162       ??$?RV<lambda_51b6e8b1eb166f2a3faf91f424b38130>@@AAV<lambda_6250bd4b2a391816dd638c3bf72b0bcb>@@V<lambda_0b5a4a3e68152e1d9b943535f5f47bed>@@@?$__crt_seh_guarded_call@X@@QAEX$$QAV<lambda_51b6e8b1eb166f2a3faf91f424b38130>@@AAV<lambda_6250bd4b2a391816dd638c3bf72b0bcb>@@$$QAV<lambda_0b5a4a3e68152e1d9b943535f5f47bed>@@@Z 10043162 f i libucrt:per_thread_data.obj
 0001:000421db       ??$?RV<lambda_5b71d36f03204c0beab531769a5b5694>@@AAV<lambda_be2b3da3f62db62e9dad5dc70221a656>@@V<lambda_8f9ce462984622f9bf76b59e2aaaf805>@@@?$__crt_seh_guarded_call@X@@QAEX$$QAV<lambda_5b71d36f03204c0beab531769a5b5694>@@AAV<lambda_be2b3da3f62db62e9dad5dc70221a656>@@$$QAV<lambda_8f9ce462984622f9bf76b59e2aaaf805>@@@Z 100431db f i libucrt:per_thread_data.obj
 0001:00042238       ??$?RV<lambda_9df27f884b057bc3edfc946cb5b7cf47>@@AAV<lambda_e69574bed617af4e071282c136b37893>@@V<lambda_cc0d902bcbbeb830f749456577db4721>@@@?$__crt_seh_guarded_call@X@@QAEX$$QAV<lambda_9df27f884b057bc3edfc946cb5b7cf47>@@AAV<lambda_e69574bed617af4e071282c136b37893>@@$$QAV<lambda_cc0d902bcbbeb830f749456577db4721>@@@Z 10043238 f i libucrt:per_thread_data.obj
 0001:00042292       ??$__acrt_lock_and_call@V<lambda_6250bd4b2a391816dd638c3bf72b0bcb>@@@@YAXW4__acrt_lock_id@@$$QAV<lambda_6250bd4b2a391816dd638c3bf72b0bcb>@@@Z 10043292 f i libucrt:per_thread_data.obj
 0001:000422c4       ??$__acrt_lock_and_call@V<lambda_b2ea41f6bbb362cd97d94c6828d90b61>@@@@YAXW4__acrt_lock_id@@$$QAV<lambda_b2ea41f6bbb362cd97d94c6828d90b61>@@@Z 100432c4 f i libucrt:per_thread_data.obj
 0001:000422f6       ??$__acrt_lock_and_call@V<lambda_be2b3da3f62db62e9dad5dc70221a656>@@@@YAXW4__acrt_lock_id@@$$QAV<lambda_be2b3da3f62db62e9dad5dc70221a656>@@@Z 100432f6 f i libucrt:per_thread_data.obj
 0001:00042328       ??$__acrt_lock_and_call@V<lambda_e69574bed617af4e071282c136b37893>@@@@YAXW4__acrt_lock_id@@$$QAV<lambda_e69574bed617af4e071282c136b37893>@@@Z 10043328 f i libucrt:per_thread_data.obj
 0001:00042461       ??0?$__crt_unique_heap_ptr@U__acrt_ptd@@U__crt_internal_free_policy@@@@QAE@QAU__acrt_ptd@@@Z 10043461 f i libucrt:per_thread_data.obj
 0001:00042475       ??0__crt_scoped_get_last_error_reset@@QAE@XZ 10043475 f i libucrt:per_thread_data.obj
 0001:0004248a       ??1?$__crt_unique_heap_ptr@U__acrt_ptd@@U__crt_internal_free_policy@@@@QAE@XZ 1004348a f i libucrt:per_thread_data.obj
 0001:000424a0       ??1__crt_scoped_get_last_error_reset@@QAE@XZ 100434a0 f i libucrt:per_thread_data.obj
 0001:000424ab       ??B?$__crt_unique_heap_ptr@U__acrt_ptd@@U__crt_internal_free_policy@@@@QBE_NXZ 100434ab f i libucrt:per_thread_data.obj
 0001:00042621       ?dangerous_get_state_array@?$dual_state_global@PAU__crt_locale_data@@@__crt_state_management@@QAEPAPAU__crt_locale_data@@XZ 10043621 f i libucrt:per_thread_data.obj
 0001:00042725       ?detach@?$__crt_unique_heap_ptr@U__acrt_ptd@@U__crt_internal_free_policy@@@@QAEPAU__acrt_ptd@@XZ 10043725 f i libucrt:per_thread_data.obj
 0001:0004272b       ?get@?$__crt_unique_heap_ptr@U__acrt_ptd@@U__crt_internal_free_policy@@@@QBEPAU__acrt_ptd@@XZ 1004372b f i libucrt:per_thread_data.obj
 0001:0004283a       ?is_valid@?$__crt_unique_heap_ptr@U__acrt_ptd@@U__crt_internal_free_policy@@@@QBE_NXZ 1004383a f i libucrt:per_thread_data.obj
 0001:00042844       ?release@?$__crt_unique_heap_ptr@U__acrt_ptd@@U__crt_internal_free_policy@@@@QAEXXZ 10043844 f i libucrt:per_thread_data.obj
 0001:000428d0       ?value@?$dual_state_global@PAU__crt_locale_data@@@__crt_state_management@@QAEAAPAU__crt_locale_data@@XZ 100438d0 f i libucrt:per_thread_data.obj
 0001:000428d3       ___acrt_freeptd            100438d3 f   libucrt:per_thread_data.obj
 0001:0004290a       ___acrt_getptd             1004390a f   libucrt:per_thread_data.obj
 0001:000429af       ___acrt_getptd_noexit      100439af f   libucrt:per_thread_data.obj
 0001:00042a55       ___acrt_initialize_ptd     10043a55 f   libucrt:per_thread_data.obj
 0001:00042a8c       ___acrt_uninitialize_ptd   10043a8c f   libucrt:per_thread_data.obj
 0001:00042aac       ___threadhandle            10043aac f   libucrt:per_thread_data.obj
 0001:00042ab2       ___threadid                10043ab2 f   libucrt:per_thread_data.obj
 0001:00042ab8       ___acrt_update_locale_info 10043ab8 f   libucrt:locale_update.obj
 0001:00042af0       ___acrt_update_multibyte_info 10043af0 f   libucrt:locale_update.obj
 0001:00042b28       ?__acrt_fp_classify@@YA?AW4__acrt_fp_class@@ABN@Z 10043b28 f i libucrt:cvt.obj
 0001:00042baf       ?__acrt_fp_is_negative@@YA_NABN@Z 10043baf f i libucrt:cvt.obj
 0001:00043622       ?strrchr@@YAPADQADH@Z      10044622 f i libucrt:cvt.obj
 0001:0004362f       ___acrt_fp_format          1004462f f   libucrt:cvt.obj
 0001:00043809       __fputwc_nolock            10044809 f   libucrt:fputwc.obj
 0001:00043978       __fputwchar                10044978 f   libucrt:fputwc.obj
 0001:00043998       __putwc_nolock             10044998 f   libucrt:fputwc.obj
 0001:000439a5       _fputwc                    100449a5 f   libucrt:fputwc.obj
 0001:00043a3e       _putwc                     10044a3e f   libucrt:fputwc.obj
 0001:00043a4b       _putwchar                  10044a4b f   libucrt:fputwc.obj
 0001:00043a58       ?lowio_handle@__crt_stdio_stream@@QBEHXZ 10044a58 f i libucrt:fileno.obj
 0001:00043a5e       __fileno                   10044a5e f   libucrt:fileno.obj
 0001:00043a8d       __fputc_nolock             10044a8d f   libucrt:fputc.obj
 0001:00043ac0       __fputchar                 10044ac0 f   libucrt:fputc.obj
 0001:00043ae0       __putc_nolock              10044ae0 f   libucrt:fputc.obj
 0001:00043aed       _fputc                     10044aed f   libucrt:fputc.obj
 0001:00043c32       _putc                      10044c32 f   libucrt:fputc.obj
 0001:00043c3f       _putchar                   10044c3f f   libucrt:fputc.obj
 0001:00043c4c       __get_printf_count_output  10044c4c f   libucrt:printf_count_output.obj
 0001:00043c66       __set_printf_count_output  10044c66 f   libucrt:printf_count_output.obj
 0001:00043c9a       ?has_temporary_buffer@__crt_stdio_stream@@QBE_NXZ 10044c9a f i libucrt:_sftbuf.obj
 0001:00043ca9       ___acrt_stdio_begin_temporary_buffering_nolock 10044ca9 f   libucrt:_sftbuf.obj
 0001:00043d8b       ___acrt_stdio_end_temporary_buffering_nolock 10044d8b f   libucrt:_sftbuf.obj
 0001:00043dd5       ??$?RU__crt_locale_data@@@__crt_internal_free_policy@@QBEXQBU__crt_locale_data@@@Z 10044dd5 f i libucrt:wsetlocale.obj
 0001:00043deb       ??$?RU__crt_locale_pointers@@@__crt_internal_free_policy@@QBEXQBU__crt_locale_pointers@@@Z 10044deb f i libucrt:wsetlocale.obj
 0001:00043e01       ??$?RU__crt_multibyte_data@@@__crt_internal_free_policy@@QBEXQBU__crt_multibyte_data@@@Z 10044e01 f i libucrt:wsetlocale.obj
 0001:00043e17       ??$?RV<lambda_70818de7b02deff9841e8b0962a60ed9>@@AAV<lambda_2af78c5f5901b1372d98f9ab3177dfa6>@@AAV<lambda_f51fe5fd7c79a33db34fc9310f277369>@@@?$__crt_seh_guarded_call@X@@QAEX$$QAV<lambda_70818de7b02deff9841e8b0962a60ed9>@@AAV<lambda_2af78c5f5901b1372d98f9ab3177dfa6>@@AAV<lambda_f51fe5fd7c79a33db34fc9310f277369>@@@Z 10044e17 f i libucrt:wsetlocale.obj
 0001:00043e60       ??$?RV<lambda_76aaead6e312921abc834cb00a638bdd>@@AAV<lambda_176e34f99554166dd2fac165c457248c>@@V<lambda_998ee1c9f4290b119b936bcd6215875a>@@@?$__crt_seh_guarded_call@X@@QAEX$$QAV<lambda_76aaead6e312921abc834cb00a638bdd>@@AAV<lambda_176e34f99554166dd2fac165c457248c>@@$$QAV<lambda_998ee1c9f4290b119b936bcd6215875a>@@@Z 10044e60 f i libucrt:wsetlocale.obj
 0001:00043ebc       ??$?RV<lambda_c76fdea48760d5f9368b465f31df4405>@@AAV<lambda_e378711a6f6581bf7f0efd7cdf97f5d9>@@V<lambda_e927a58b2a85c081d733e8c6192ae2d2>@@@?$__crt_seh_guarded_call@X@@QAEX$$QAV<lambda_c76fdea48760d5f9368b465f31df4405>@@AAV<lambda_e378711a6f6581bf7f0efd7cdf97f5d9>@@$$QAV<lambda_e927a58b2a85c081d733e8c6192ae2d2>@@@Z 10044ebc f i libucrt:wsetlocale.obj
 0001:00043f0f       ??$?RV<lambda_c9469061b39d205f0f236529d4a41659>@@AAV<lambda_b7fb1a997d3ebc0cc0186c5835178808>@@V<lambda_14b92c79d699846b5cc916cd4cf280e4>@@@?$__crt_seh_guarded_call@X@@QAEX$$QAV<lambda_c9469061b39d205f0f236529d4a41659>@@AAV<lambda_b7fb1a997d3ebc0cc0186c5835178808>@@$$QAV<lambda_14b92c79d699846b5cc916cd4cf280e4>@@@Z 10044f0f f i libucrt:wsetlocale.obj
 0001:00043f69       ??$__acrt_lock_and_call@V<lambda_176e34f99554166dd2fac165c457248c>@@@@YAXW4__acrt_lock_id@@$$QAV<lambda_176e34f99554166dd2fac165c457248c>@@@Z 10044f69 f i libucrt:wsetlocale.obj
 0001:00043f9b       ??$__acrt_lock_and_call@V<lambda_b7fb1a997d3ebc0cc0186c5835178808>@@@@YAXW4__acrt_lock_id@@$$QAV<lambda_b7fb1a997d3ebc0cc0186c5835178808>@@@Z 10044f9b f i libucrt:wsetlocale.obj
 0001:00043fcd       ??$__acrt_lock_and_call@V<lambda_e378711a6f6581bf7f0efd7cdf97f5d9>@@@@YAXW4__acrt_lock_id@@$$QAV<lambda_e378711a6f6581bf7f0efd7cdf97f5d9>@@@Z 10044fcd f i libucrt:wsetlocale.obj
 0001:00043fff       ??$__crt_call_and_cleanup@V<lambda_2af78c5f5901b1372d98f9ab3177dfa6>@@V<lambda_f51fe5fd7c79a33db34fc9310f277369>@@@@YAX$$QAV<lambda_2af78c5f5901b1372d98f9ab3177dfa6>@@$$QAV<lambda_f51fe5fd7c79a33db34fc9310f277369>@@@Z 10044fff f i libucrt:wsetlocale.obj
 0001:00044022       ??$__vcrt_va_start_verify_argument_type@H@@YAXXZ 10045022 f i libucrt:wsetlocale.obj
 0001:00044147       ??0?$__crt_unique_heap_ptr@U__crt_locale_data@@U__crt_internal_free_policy@@@@QAE@QAU__crt_locale_data@@@Z 10045147 f i libucrt:wsetlocale.obj
 0001:0004415b       ??0?$__crt_unique_heap_ptr@U__crt_locale_pointers@@U__crt_internal_free_policy@@@@QAE@QAU__crt_locale_pointers@@@Z 1004515b f i libucrt:wsetlocale.obj
 0001:0004416f       ??0?$__crt_unique_heap_ptr@U__crt_multibyte_data@@U__crt_internal_free_policy@@@@QAE@QAU__crt_multibyte_data@@@Z 1004516f f i libucrt:wsetlocale.obj
 0001:00044183       ??1?$__crt_unique_heap_ptr@U__crt_locale_data@@U__crt_internal_free_policy@@@@QAE@XZ 10045183 f i libucrt:wsetlocale.obj
 0001:00044199       ??1?$__crt_unique_heap_ptr@U__crt_locale_pointers@@U__crt_internal_free_policy@@@@QAE@XZ 10045199 f i libucrt:wsetlocale.obj
 0001:000441af       ??1?$__crt_unique_heap_ptr@U__crt_multibyte_data@@U__crt_internal_free_policy@@@@QAE@XZ 100451af f i libucrt:wsetlocale.obj
 0001:000441c5       ??B?$__crt_unique_heap_ptr@U__crt_locale_data@@U__crt_internal_free_policy@@@@QBE_NXZ 100451c5 f i libucrt:wsetlocale.obj
 0001:000441cf       ??B?$__crt_unique_heap_ptr@U__crt_locale_pointers@@U__crt_internal_free_policy@@@@QBE_NXZ 100451cf f i libucrt:wsetlocale.obj
 0001:000441d9       ??B?$__crt_unique_heap_ptr@U__crt_multibyte_data@@U__crt_internal_free_policy@@@@QBE_NXZ 100451d9 f i libucrt:wsetlocale.obj
 0001:00044402       ?detach@?$__crt_unique_heap_ptr@U__crt_locale_data@@U__crt_internal_free_policy@@@@QAEPAU__crt_locale_data@@XZ 10045402 f i libucrt:wsetlocale.obj
 0001:00044408       ?detach@?$__crt_unique_heap_ptr@U__crt_locale_pointers@@U__crt_internal_free_policy@@@@QAEPAU__crt_locale_pointers@@XZ 10045408 f i libucrt:wsetlocale.obj
 0001:0004440e       ?detach@?$__crt_unique_heap_ptr@U__crt_multibyte_data@@U__crt_internal_free_policy@@@@QAEPAU__crt_multibyte_data@@XZ 1004540e f i libucrt:wsetlocale.obj
 0001:00044414       ?get@?$__crt_unique_heap_ptr@U__crt_locale_data@@U__crt_internal_free_policy@@@@QBEPAU__crt_locale_data@@XZ 10045414 f i libucrt:wsetlocale.obj
 0001:00044417       ?get@?$__crt_unique_heap_ptr@U__crt_locale_pointers@@U__crt_internal_free_policy@@@@QBEPAU__crt_locale_pointers@@XZ 10045417 f i libucrt:wsetlocale.obj
 0001:0004441a       ?get@?$__crt_unique_heap_ptr@U__crt_multibyte_data@@U__crt_internal_free_policy@@@@QBEPAU__crt_multibyte_data@@XZ 1004541a f i libucrt:wsetlocale.obj
 0001:0004441d       ?is_valid@?$__crt_unique_heap_ptr@U__crt_locale_data@@U__crt_internal_free_policy@@@@QBE_NXZ 1004541d f i libucrt:wsetlocale.obj
 0001:00044427       ?is_valid@?$__crt_unique_heap_ptr@U__crt_locale_pointers@@U__crt_internal_free_policy@@@@QBE_NXZ 10045427 f i libucrt:wsetlocale.obj
 0001:00044431       ?is_valid@?$__crt_unique_heap_ptr@U__crt_multibyte_data@@U__crt_internal_free_policy@@@@QBE_NXZ 10045431 f i libucrt:wsetlocale.obj
 0001:0004443b       ?release@?$__crt_unique_heap_ptr@U__crt_locale_data@@U__crt_internal_free_policy@@@@QAEXXZ 1004543b f i libucrt:wsetlocale.obj
 0001:00044451       ?release@?$__crt_unique_heap_ptr@U__crt_locale_pointers@@U__crt_internal_free_policy@@@@QAEXXZ 10045451 f i libucrt:wsetlocale.obj
 0001:00044467       ?release@?$__crt_unique_heap_ptr@U__crt_multibyte_data@@U__crt_internal_free_policy@@@@QAEXXZ 10045467 f i libucrt:wsetlocale.obj
 0001:0004447d       ___acrt_copy_locale_name   1004547d f   libucrt:wsetlocale.obj
 0001:000444fc       ___acrt_set_locale_changed 100454fc f   libucrt:wsetlocale.obj
 0001:00044509       ___acrt_uninitialize_locale 10045509 f   libucrt:wsetlocale.obj
 0001:0004456f       ___lc_lctowcs              1004556f f   libucrt:wsetlocale.obj
 0001:000445fb       ___lc_wcstolc              100455fb f   libucrt:wsetlocale.obj
 0001:00044775       __configthreadlocale       10045775 f   libucrt:wsetlocale.obj
 0001:00044829       __create_locale            10045829 f   libucrt:wsetlocale.obj
 0001:000448a6       __expandlocale             100458a6 f   libucrt:wsetlocale.obj
 0001:00044cfa       __free_locale              10045cfa f   libucrt:wsetlocale.obj
 0001:00044de0       __get_current_locale       10045de0 f   libucrt:wsetlocale.obj
 0001:00044e79       __wcreate_locale           10045e79 f   libucrt:wsetlocale.obj
 0001:00044fc4       __wcscats                  10045fc4 f   libucrt:wsetlocale.obj
 0001:00045015       __wsetlocale               10046015 f   libucrt:wsetlocale.obj
 0001:00045b3b       ___p___mb_cur_max          10046b3b f   libucrt:nlsdata.obj
 0001:00045b6b       __realloc_base             10046b6b f   libucrt:realloc_base.obj
 0001:00045bee       ___acrt_initialize_locks   10046bee f   libucrt:locks.obj
 0001:00045c3f       ___acrt_lock               10046c3f f   libucrt:locks.obj
 0001:00045c5b       ___acrt_uninitialize_locks 10046c5b f   libucrt:locks.obj
 0001:00045c98       ___acrt_unlock             10046c98 f   libucrt:locks.obj
 0001:00045cb4       __lock_locales             10046cb4 f   libucrt:locks.obj
 0001:00045cbf       __unlock_locales           10046cbf f   libucrt:locks.obj
 0001:00045cca       ??$?RV<lambda_123407a5e2ac06da108355a851863b7a>@@AAV<lambda_2fe9b910cf3cbf4a0ab98a02ba45b3ec>@@V<lambda_ae55bdf541ad94d75914d381c370e64d>@@@?$__crt_seh_guarded_call@H@@QAEH$$QAV<lambda_123407a5e2ac06da108355a851863b7a>@@AAV<lambda_2fe9b910cf3cbf4a0ab98a02ba45b3ec>@@$$QAV<lambda_ae55bdf541ad94d75914d381c370e64d>@@@Z 10046cca f i libucrt:close.obj
 0001:00045d6c       ??$__acrt_lowio_lock_fh_and_call@V<lambda_2fe9b910cf3cbf4a0ab98a02ba45b3ec>@@@@YAHH$$QAV<lambda_2fe9b910cf3cbf4a0ab98a02ba45b3ec>@@@Z 10046d6c f i libucrt:close.obj
 0001:00045ebf       __close                    10046ebf f   libucrt:close.obj
 0001:00045f5d       __close_nolock             10046f5d f   libucrt:close.obj
 0001:00046020       ??$?RU__crt_stdio_stream_data@@@__crt_internal_free_policy@@QBEXQBU__crt_stdio_stream_data@@@Z 10047020 f i libucrt:stream.obj
 0001:00046036       ??0?$__crt_unique_heap_ptr@U__crt_stdio_stream_data@@U__crt_internal_free_policy@@@@QAE@QAU__crt_stdio_stream_data@@@Z 10047036 f i libucrt:stream.obj
 0001:0004604a       ??0__crt_stdio_stream@@QAE@XZ 1004704a f i libucrt:stream.obj
 0001:00046050       ??1?$__crt_unique_heap_ptr@U__crt_stdio_stream_data@@U__crt_internal_free_policy@@@@QAE@XZ 10047050 f i libucrt:stream.obj
 0001:00046066       ?__acrt_stdio_allocate_stream@@YA?AV__crt_stdio_stream@@XZ 10047066 f   libucrt:stream.obj
 0001:000460dc       ?__acrt_stdio_free_stream@@YAXV__crt_stdio_stream@@@Z 100470dc f   libucrt:stream.obj
 0001:00046125       ?deallocate@__crt_stdio_stream@@QAEXXZ 10047125 f i libucrt:stream.obj
 0001:00046131       ?detach@?$__crt_unique_heap_ptr@U__crt_stdio_stream_data@@U__crt_internal_free_policy@@@@QAEPAU__crt_stdio_stream_data@@XZ 10047131 f i libucrt:stream.obj
 0001:0004622a       ?lock@__crt_stdio_stream@@QBEXXZ 1004722a f i libucrt:stream.obj
 0001:00046235       ?release@?$__crt_unique_heap_ptr@U__crt_stdio_stream_data@@U__crt_internal_free_policy@@@@QAEXXZ 10047235 f i libucrt:stream.obj
 0001:0004624b       ?try_allocate@__crt_stdio_stream@@QAE_NXZ 1004724b f i libucrt:stream.obj
 0001:00046274       ??$__acrt_stdio_parse_mode@D@@YA?AU__acrt_stdio_stream_mode@@QBD@Z 10047274 f i libucrt:openfile.obj
 0001:00046532       ??$__acrt_stdio_parse_mode@_W@@YA?AU__acrt_stdio_stream_mode@@QB_W@Z 10047532 f i libucrt:openfile.obj
 0001:00046953       ??$tcsncmp@AAPBDAAY02$$CBDI@?$__crt_char_traits@D@@SAHAAPBDAAY02$$CBD$$QAI@Z 10047953 f i libucrt:openfile.obj
 0001:00046976       ??$tcsncmp@AAPB_WAAY02$$CB_WI@?$__crt_char_traits@_W@@SAHAAPB_WAAY02$$CB_W$$QAI@Z 10047976 f i libucrt:openfile.obj
 0001:00046999       ??$tcsnicmp@AAPBDAAY04$$CBDI@?$__crt_char_traits@D@@SAHAAPBDAAY04$$CBD$$QAI@Z 10047999 f i libucrt:openfile.obj
 0001:000469bc       ??$tcsnicmp@AAPBDAAY06$$CBDI@?$__crt_char_traits@D@@SAHAAPBDAAY06$$CBD$$QAI@Z 100479bc f i libucrt:openfile.obj
 0001:000469df       ??$tcsnicmp@AAPBDAAY07$$CBDI@?$__crt_char_traits@D@@SAHAAPBDAAY07$$CBD$$QAI@Z 100479df f i libucrt:openfile.obj
 0001:00046a02       ??$tcsnicmp@AAPB_WAAY04$$CB_WI@?$__crt_char_traits@_W@@SAHAAPB_WAAY04$$CB_W$$QAI@Z 10047a02 f i libucrt:openfile.obj
 0001:00046a25       ??$tcsnicmp@AAPB_WAAY06$$CB_WI@?$__crt_char_traits@_W@@SAHAAPB_WAAY06$$CB_W$$QAI@Z 10047a25 f i libucrt:openfile.obj
 0001:00046a48       ??$tcsnicmp@AAPB_WAAY07$$CB_WI@?$__crt_char_traits@_W@@SAHAAPB_WAAY07$$CB_W$$QAI@Z 10047a48 f i libucrt:openfile.obj
 0001:00046a6b       ??$tsopen_s@PAHABQBDABHABHH@?$__crt_char_traits@D@@SAH$$QAPAHABQBDABH2$$QAH@Z 10047a6b f i libucrt:openfile.obj
 0001:00046a9d       ??$tsopen_s@PAHABQB_WABHABHH@?$__crt_char_traits@_W@@SAH$$QAPAHABQB_WABH2$$QAH@Z 10047a9d f i libucrt:openfile.obj
 0001:00046acf       ?__acrt_stdio_parse_mode_D@@YA_NAAU__acrt_stdio_stream_mode@@@Z 10047acf f i libucrt:openfile.obj
 0001:00046af0       ?__acrt_stdio_parse_mode_N@@YA_NAAU__acrt_stdio_stream_mode@@@Z 10047af0 f i libucrt:openfile.obj
 0001:00046b06       ?__acrt_stdio_parse_mode_R@@YA_NAAU__acrt_stdio_stream_mode@@AA_N@Z 10047b06 f i libucrt:openfile.obj
 0001:00046b2b       ?__acrt_stdio_parse_mode_S@@YA_NAAU__acrt_stdio_stream_mode@@AA_N@Z 10047b2b f i libucrt:openfile.obj
 0001:00046b50       ?__acrt_stdio_parse_mode_T@@YA_NAAU__acrt_stdio_stream_mode@@@Z 10047b50 f i libucrt:openfile.obj
 0001:00046b76       ?__acrt_stdio_parse_mode_b@@YA_NAAU__acrt_stdio_stream_mode@@@Z 10047b76 f i libucrt:openfile.obj
 0001:00046b9e       ?__acrt_stdio_parse_mode_c@@YA_NAAU__acrt_stdio_stream_mode@@AA_N@Z 10047b9e f i libucrt:openfile.obj
 0001:00046bc8       ?__acrt_stdio_parse_mode_n@@YA_NAAU__acrt_stdio_stream_mode@@AA_N@Z 10047bc8 f i libucrt:openfile.obj
 0001:00046bf2       ?__acrt_stdio_parse_mode_plus@@YA_NAAU__acrt_stdio_stream_mode@@AA_N@Z 10047bf2 f i libucrt:openfile.obj
 0001:00046c34       ?__acrt_stdio_parse_mode_t@@YA_NAAU__acrt_stdio_stream_mode@@@Z 10047c34 f i libucrt:openfile.obj
 0001:00046c5c       __openfile                 10047c5c f   libucrt:openfile.obj
 0001:00046c69       __wopenfile                10047c69 f   libucrt:openfile.obj
 0001:0004730e       __read                     1004830e f   libucrt:read.obj
 0001:00047465       __read_nolock              10048465 f   libucrt:read.obj
 0001:00047dfd       ___acrt_stdio_refill_and_read_narrow_nolock 10048dfd f   libucrt:_filbuf.obj
 0001:00047e0a       ___acrt_stdio_refill_and_read_wide_nolock 10048e0a f   libucrt:_filbuf.obj
 0001:00048569       __write                    10049569 f   libucrt:write.obj
 0001:0004868e       __write_nolock             1004968e f   libucrt:write.obj
 0001:00048dd4       ___acrt_stdio_flush_and_write_narrow_nolock 10049dd4 f   libucrt:_flsbuf.obj
 0001:00048de1       ___acrt_stdio_flush_and_write_wide_nolock 10049de1 f   libucrt:_flsbuf.obj
 0001:00048dee       ___acrt_copy_path_to_wide_string 10049dee f   libucrt:string_utilities.obj
 0001:00048ee6       ___acrt_copy_to_char       10049ee6 f   libucrt:string_utilities.obj
 0001:00048fd1       __wremove                  10049fd1 f   libucrt:wunlink.obj
 0001:00049003       __wunlink                  1004a003 f   libucrt:wunlink.obj
 0001:00049477       __lseek                    1004a477 f   libucrt:lseek.obj
 0001:00049484       __lseek_nolock             1004a484 f   libucrt:lseek.obj
 0001:00049491       __lseeki64                 1004a491 f   libucrt:lseek.obj
 0001:000494b2       __lseeki64_nolock          1004a4b2 f   libucrt:lseek.obj
 0001:000494d3       __chgsign                  1004a4d3 f   libucrt:ieeemisc.obj
 0001:0004950d       __chgsignf                 1004a50d f   libucrt:ieeemisc.obj
 0001:00049538       __copysign                 1004a538 f   libucrt:ieeemisc.obj
 0001:0004956c       __copysignf                1004a56c f   libucrt:ieeemisc.obj
 0001:00049591       __finite                   1004a591 f   libucrt:ieeemisc.obj
 0001:000495b1       __fpclass                  1004a5b1 f   libucrt:ieeemisc.obj
 0001:0004967e       __isnan                    1004a67e f   libucrt:ieeemisc.obj
 0001:000496c1       __logb                     1004a6c1 f   libucrt:ieeemisc.obj
 0001:000497c6       __nextafter                1004a7c6 f   libucrt:ieeemisc.obj
 0001:000497ec       __scalb                    1004a7ec f   libucrt:ieeemisc.obj
 0001:0004980c       __add_exp                  1004a80c f   libucrt:util.obj
 0001:00049846       __decomp                   1004a846 f   libucrt:util.obj
 0001:0004994f       __get_exp                  1004a94f f   libucrt:util.obj
 0001:0004996e       __set_bexp                 1004a96e f   libucrt:util.obj
 0001:000499a1       __set_exp                  1004a9a1 f   libucrt:util.obj
 0001:000499db       __sptype                   1004a9db f   libucrt:util.obj
 0001:00049a50       ___clrfp_sse2              1004aa50 f   libucrt:fpctrl.obj
 0001:00049a79       ___ctrlfp_sse2             1004aa79 f   libucrt:fpctrl.obj
 0001:00049ac2       ___fclrf_sse2              1004aac2 f   libucrt:fpctrl.obj
 0001:00049ae8       ___get_fpsr_sse2           1004aae8 f   libucrt:fpctrl.obj
 0001:00049b0d       ___set_fpsr_sse2           1004ab0d f   libucrt:fpctrl.obj
 0001:00049ba0       ___set_statfp_sse2         1004aba0 f   libucrt:fpctrl.obj
 0001:00049bc1       ___statfp_sse2             1004abc1 f   libucrt:fpctrl.obj
 0001:00049bdb       __clrfp                    1004abdb f   libucrt:fpctrl.obj
 0001:00049bf2       __ctrlfp                   1004abf2 f   libucrt:fpctrl.obj
 0001:00049c29       __set_statfp               1004ac29 f   libucrt:fpctrl.obj
 0001:00049c9a       __statfp                   1004ac9a f   libucrt:fpctrl.obj
 0001:00049d77       ___acrt_report_runtime_error 1004ad77 f   libucrt:report_runtime_error.obj
 0001:00049edd       __query_app_type           1004aedd f   libucrt:report_runtime_error.obj
 0001:00049ee3       __set_app_type             1004aee3 f   libucrt:report_runtime_error.obj
 0001:0004a3cf       __i64toa                   1004b3cf f   libucrt:xtoa.obj
 0001:0004a422       __i64toa_s                 1004b422 f   libucrt:xtoa.obj
 0001:0004a473       __i64tow                   1004b473 f   libucrt:xtoa.obj
 0001:0004a4c6       __i64tow_s                 1004b4c6 f   libucrt:xtoa.obj
 0001:0004a517       __itoa                     1004b517 f   libucrt:xtoa.obj
 0001:0004a55b       __itoa_s                   1004b55b f   libucrt:xtoa.obj
 0001:0004a59d       __itow                     1004b59d f   libucrt:xtoa.obj
 0001:0004a5e1       __itow_s                   1004b5e1 f   libucrt:xtoa.obj
 0001:0004a623       __ltoa                     1004b623 f   libucrt:xtoa.obj
 0001:0004a667       __ltoa_s                   1004b667 f   libucrt:xtoa.obj
 0001:0004a6a9       __ltow                     1004b6a9 f   libucrt:xtoa.obj
 0001:0004a6ed       __ltow_s                   1004b6ed f   libucrt:xtoa.obj
 0001:0004a72f       __ui64toa                  1004b72f f   libucrt:xtoa.obj
 0001:0004a759       __ui64toa_s                1004b759 f   libucrt:xtoa.obj
 0001:0004a781       __ui64tow                  1004b781 f   libucrt:xtoa.obj
 0001:0004a7ab       __ui64tow_s                1004b7ab f   libucrt:xtoa.obj
 0001:0004a7d3       __ultoa                    1004b7d3 f   libucrt:xtoa.obj
 0001:0004a7f9       __ultoa_s                  1004b7f9 f   libucrt:xtoa.obj
 0001:0004a81d       __ultow                    1004b81d f   libucrt:xtoa.obj
 0001:0004a843       __ultow_s                  1004b843 f   libucrt:xtoa.obj
 0001:0004a867       __set_error_mode           1004b867 f   libucrt:set_error_mode.obj
 0001:0004a943       _wcscat_s                  1004b943 f   libucrt:wcscat_s.obj
 0001:0004aa4d       _wcscpy_s                  1004ba4d f   libucrt:wcscpy_s.obj
 0001:0004abed       _wcsncat_s                 1004bbed f   libucrt:wcsncat_s.obj
 0001:0004ac7d       _strcat_s                  1004bc7d f   libucrt:strcat_s.obj
 0001:0004ae04       _strncat_s                 1004be04 f   libucrt:strncat_s.obj
 0001:0004b02f       ??$message_box@$$TAAPBDAAPBDAAI@?$__crt_char_traits@D@@SAH$$QA$$TAAPBD1AAI@Z 1004c02f f i libucrt:crtmbox.obj
 0001:0004b057       ??$message_box@$$TAAPB_WAAPB_WAAI@?$__crt_char_traits@_W@@SAH$$QA$$TAAPB_W1AAI@Z 1004c057 f i libucrt:crtmbox.obj
 0001:0004b07f       ??$message_box@$$TABQBDABQBDK@?$__crt_char_traits@D@@SAH$$QA$$TABQBD1$$QAK@Z 1004c07f f i libucrt:crtmbox.obj
 0001:0004b0a7       ??$message_box@$$TABQB_WABQB_WK@?$__crt_char_traits@_W@@SAH$$QA$$TABQB_W1$$QAK@Z 1004c0a7 f i libucrt:crtmbox.obj
 0001:0004b0cf       ??$message_box@PAUHWND__@@ABQBDABQBDABI@?$__crt_char_traits@D@@SAH$$QAPAUHWND__@@ABQBD1ABI@Z 1004c0cf f i libucrt:crtmbox.obj
 0001:0004b0f7       ??$message_box@PAUHWND__@@ABQB_WABQB_WABI@?$__crt_char_traits@_W@@SAH$$QAPAUHWND__@@ABQB_W1ABI@Z 1004c0f7 f i libucrt:crtmbox.obj
 0001:0004b173       ??$output_debug_string@ABQBD@?$__crt_char_traits@D@@SAXABQBD@Z 1004c173 f i libucrt:crtmbox.obj
 0001:0004b189       ??$output_debug_string@ABQB_W@?$__crt_char_traits@_W@@SAXABQB_W@Z 1004c189 f i libucrt:crtmbox.obj
 0001:0004b19f       ??0?$__crt_unique_handle_t@U__crt_handle_traits@@@@QAE@QAX@Z 1004c19f f i libucrt:crtmbox.obj
 0001:0004b1b3       ??1?$__crt_unique_handle_t@U__crt_handle_traits@@@@QAE@XZ 1004c1b3 f i libucrt:crtmbox.obj
 0001:0004b1cf       ??B?$__crt_unique_handle_t@U__crt_handle_traits@@@@QBE_NXZ 1004c1cf f i libucrt:crtmbox.obj
 0001:0004b1da       ?close@?$__crt_unique_handle_t@U__crt_handle_traits@@@@QAEXXZ 1004c1da f i libucrt:crtmbox.obj
 0001:0004b1f6       ?close@__crt_handle_traits@@SA_NPAX@Z 1004c1f6 f i libucrt:crtmbox.obj
 0001:0004b211       ?get@?$__crt_unique_handle_t@U__crt_handle_traits@@@@QBEPAXXZ 1004c211 f i libucrt:crtmbox.obj
 0001:0004b214       ?get_invalid_value@__crt_handle_traits@@SAPAXXZ 1004c214 f i libucrt:crtmbox.obj
 0001:0004b218       ?is_valid@?$__crt_unique_handle_t@U__crt_handle_traits@@@@QBE_NXZ 1004c218 f i libucrt:crtmbox.obj
 0001:0004b223       ___acrt_show_narrow_message_box 1004c223 f   libucrt:crtmbox.obj
 0001:0004b230       ___acrt_show_wide_message_box 1004c230 f   libucrt:crtmbox.obj
 0001:0004b23d       ??$?RV<lambda_d92cfe8357b99225085016881b624cb0>@@AAV<lambda_b721fa326cdb32351d23dfa67958c160>@@V<lambda_42d75b0848218ec137fa420c8ba9fdf9>@@@?$__crt_seh_guarded_call@H@@QAEH$$QAV<lambda_d92cfe8357b99225085016881b624cb0>@@AAV<lambda_b721fa326cdb32351d23dfa67958c160>@@$$QAV<lambda_42d75b0848218ec137fa420c8ba9fdf9>@@@Z 1004c23d f i libucrt:setvbuf.obj
 0001:0004b2a2       ??$__acrt_lock_stream_and_call@V<lambda_b721fa326cdb32351d23dfa67958c160>@@@@YAHQAU_iobuf@@$$QAV<lambda_b721fa326cdb32351d23dfa67958c160>@@@Z 1004c2a2 f i libucrt:setvbuf.obj
 0001:0004b43f       _setvbuf                   1004c43f f   libucrt:setvbuf.obj
 0001:0004b4d2       ??$?B$$A6AXH@Z@__crt_fast_encoded_nullptr_t@@QBEP6AXH@ZXZ 1004c4d2 f i libucrt:signal.obj
 0001:0004b4f0       ??$?RV<lambda_a048d3beccc847880fc8490e18b82769>@@AAV<lambda_ec61778202f4f5fc7e7711acc23c3bca>@@V<lambda_f7496a158712204296dd6628a163878e>@@@?$__crt_seh_guarded_call@P6AXH@Z@@QAEP6AXH@Z$$QAV<lambda_a048d3beccc847880fc8490e18b82769>@@AAV<lambda_ec61778202f4f5fc7e7711acc23c3bca>@@$$QAV<lambda_f7496a158712204296dd6628a163878e>@@@Z 1004c4f0 f i libucrt:signal.obj
 0001:0004b560       ??$__acrt_lock_and_call@V<lambda_ec61778202f4f5fc7e7711acc23c3bca>@@@@YAP6AXH@ZW4__acrt_lock_id@@$$QAV<lambda_ec61778202f4f5fc7e7711acc23c3bca>@@@Z 1004c560 f i libucrt:signal.obj
 0001:0004b592       ??$__crt_fast_decode_pointer@P6AXH@Z@@YAP6AXH@ZQ6AXH@Z@Z 1004c592 f i libucrt:signal.obj
 0001:0004b5ad       ??$__crt_fast_encode_pointer@P6AXH@Z@@YAP6AXH@ZQ6AXH@Z@Z 1004c5ad f i libucrt:signal.obj
 0001:0004b757       ?initialize@?$dual_state_global@P6AXH@Z@__crt_state_management@@QAEXQ6AXH@Z@Z 1004c757 f i libucrt:signal.obj
 0001:0004b803       ?value@?$dual_state_global@P6AXH@Z@__crt_state_management@@QAEAAP6AXH@ZXZ 1004c803 f i libucrt:signal.obj
 0001:0004b806       ___acrt_get_sigabrt_handler 1004c806 f   libucrt:signal.obj
 0001:0004b822       ___acrt_initialize_signal_handlers 1004c822 f   libucrt:signal.obj
 0001:0004b86b       ___fpecode                 1004c86b f   libucrt:signal.obj
 0001:0004b876       ___pxcptinfoptrs           1004c876 f   libucrt:signal.obj
 0001:0004b881       _raise                     1004c881 f   libucrt:signal.obj
 0001:0004bb0b       _signal                    1004cb0b f   libucrt:signal.obj
 0001:0004bd29       ??$__crt_fast_decode_pointer@P6AHPAU_exception@@@Z@@YAP6AHPAU_exception@@@ZQ6AH0@Z@Z 1004cd29 f i libucrt:matherr.obj
 0001:0004bd44       ??$__crt_fast_encode_pointer@P6AHPAU_exception@@@Z@@YAP6AHPAU_exception@@@ZQ6AH0@Z@Z 1004cd44 f i libucrt:matherr.obj
 0001:0004bd6a       ?initialize@?$dual_state_global@P6AHPAU_exception@@@Z@__crt_state_management@@QAEXQ6AHPAU_exception@@@Z@Z 1004cd6a f i libucrt:matherr.obj
 0001:0004bda7       ?value@?$dual_state_global@P6AHPAU_exception@@@Z@__crt_state_management@@QAEAAP6AHPAU_exception@@@ZXZ 1004cda7 f i libucrt:matherr.obj
 0001:0004bdaa       ___acrt_has_user_matherr   1004cdaa f   libucrt:matherr.obj
 0001:0004bdc9       ___acrt_initialize_user_matherr 1004cdc9 f   libucrt:matherr.obj
 0001:0004bde2       ___acrt_invoke_user_matherr 1004cde2 f   libucrt:matherr.obj
 0001:0004be3d       ___setusermatherr          1004ce3d f   libucrt:matherr.obj
 0001:0004c84f       ??$find_first_file_ex@ABQADW4_FINDEX_INFO_LEVELS@@PAU_WIN32_FIND_DATAA@@W4_FINDEX_SEARCH_OPS@@$$TH@?$__crt_char_traits@D@@SAPAXABQAD$$QAW4_FINDEX_INFO_LEVELS@@$$QAPAU_WIN32_FIND_DATAA@@$$QAW4_FINDEX_SEARCH_OPS@@$$QA$$T$$QAH@Z 1004d84f f i libucrt:argv_wildcards.obj
 0001:0004c884       ??$find_first_file_ex@ABQA_WW4_FINDEX_INFO_LEVELS@@PAU_WIN32_FIND_DATAW@@W4_FINDEX_SEARCH_OPS@@$$TH@?$__crt_char_traits@_W@@SAPAXABQA_W$$QAW4_FINDEX_INFO_LEVELS@@$$QAPAU_WIN32_FIND_DATAW@@$$QAW4_FINDEX_SEARCH_OPS@@$$QA$$T$$QAH@Z 1004d884 f i libucrt:argv_wildcards.obj
 0001:0004c8b9       ??$find_next_file@PAXPAU_WIN32_FIND_DATAA@@@?$__crt_char_traits@D@@SAH$$QAPAX$$QAPAU_WIN32_FIND_DATAA@@@Z 1004d8b9 f i libucrt:argv_wildcards.obj
 0001:0004c8d5       ??$find_next_file@PAXPAU_WIN32_FIND_DATAW@@@?$__crt_char_traits@_W@@SAH$$QAPAX$$QAPAU_WIN32_FIND_DATAW@@@Z 1004d8d5 f i libucrt:argv_wildcards.obj
 0001:0004c8f1       ??$tcsncpy_s@AAPADIAAPADABI@?$__crt_char_traits@D@@SAHAAPAD$$QAI0ABI@Z 1004d8f1 f i libucrt:argv_wildcards.obj
 0001:0004c91c       ??$tcsncpy_s@AAPA_WIAAPA_WABI@?$__crt_char_traits@_W@@SAHAAPA_W$$QAI0ABI@Z 1004d91c f i libucrt:argv_wildcards.obj
 0001:0004c947       ??$tcsncpy_s@PAD$$CBIABQBDABI@?$__crt_char_traits@D@@SAH$$QAPAD$$QBIABQBDABI@Z 1004d947 f i libucrt:argv_wildcards.obj
 0001:0004c972       ??$tcsncpy_s@PADABIABQBDABI@?$__crt_char_traits@D@@SAH$$QAPADABIABQBD1@Z 1004d972 f i libucrt:argv_wildcards.obj
 0001:0004c99d       ??$tcsncpy_s@PA_W$$CBIABQB_WABI@?$__crt_char_traits@_W@@SAH$$QAPA_W$$QBIABQB_WABI@Z 1004d99d f i libucrt:argv_wildcards.obj
 0001:0004c9c8       ??$tcsncpy_s@PA_WABIABQB_WABI@?$__crt_char_traits@_W@@SAH$$QAPA_WABIABQB_W1@Z 1004d9c8 f i libucrt:argv_wildcards.obj
 0001:0004c9f3       ??$tcspbrk@AAPADAAY02$$CBD@?$__crt_char_traits@D@@SAPADAAPADAAY02$$CBD@Z 1004d9f3 f i libucrt:argv_wildcards.obj
 0001:0004ca0e       ??$tcspbrk@AAPA_WAAY02$$CB_W@?$__crt_char_traits@_W@@SAPA_WAAPA_WAAY02$$CB_W@Z 1004da0e f i libucrt:argv_wildcards.obj
 0001:0004ca29       ??0?$__crt_unique_handle_t@U__crt_findfile_traits@@@@QAE@QAX@Z 1004da29 f i libucrt:argv_wildcards.obj
 0001:0004ca3d       ??0?$argument_list@D@?A0xb0e4b824@@QAE@XZ 1004da3d f i libucrt:argv_wildcards.obj
 0001:0004ca4d       ??0?$argument_list@_W@?A0xb0e4b824@@QAE@XZ 1004da4d f i libucrt:argv_wildcards.obj
 0001:0004ca5d       ??1?$__crt_unique_handle_t@U__crt_findfile_traits@@@@QAE@XZ 1004da5d f i libucrt:argv_wildcards.obj
 0001:0004ca79       ??1?$argument_list@D@?A0xb0e4b824@@QAE@XZ 1004da79 f i libucrt:argv_wildcards.obj
 0001:0004caa7       ??1?$argument_list@_W@?A0xb0e4b824@@QAE@XZ 1004daa7 f i libucrt:argv_wildcards.obj
 0001:0004cb35       ?append@?$argument_list@D@?A0xb0e4b824@@QAEHQAD@Z 1004db35 f i libucrt:argv_wildcards.obj
 0001:0004cb77       ?append@?$argument_list@_W@?A0xb0e4b824@@QAEHQA_W@Z 1004db77 f i libucrt:argv_wildcards.obj
 0001:0004cbb9       ?begin@?$argument_list@D@?A0xb0e4b824@@QBEPAPADXZ 1004dbb9 f i libucrt:argv_wildcards.obj
 0001:0004cbbc       ?begin@?$argument_list@_W@?A0xb0e4b824@@QBEPAPA_WXZ 1004dbbc f i libucrt:argv_wildcards.obj
 0001:0004cbbf       ?close@?$__crt_unique_handle_t@U__crt_findfile_traits@@@@QAEXXZ 1004dbbf f i libucrt:argv_wildcards.obj
 0001:0004cbdb       ?close@__crt_findfile_traits@@SA_NPAX@Z 1004dbdb f i libucrt:argv_wildcards.obj
 0001:0004cbf6       ?end@?$argument_list@D@?A0xb0e4b824@@QBEPAPADXZ 1004dbf6 f i libucrt:argv_wildcards.obj
 0001:0004cbfa       ?end@?$argument_list@_W@?A0xb0e4b824@@QBEPAPA_WXZ 1004dbfa f i libucrt:argv_wildcards.obj
 0001:0004cbfe       ?expand_if_necessary@?$argument_list@D@?A0xb0e4b824@@AAEHXZ 1004dbfe f i libucrt:argv_wildcards.obj
 0001:0004cca6       ?expand_if_necessary@?$argument_list@_W@?A0xb0e4b824@@AAEHXZ 1004dca6 f i libucrt:argv_wildcards.obj
 0001:0004cd4e       ?get@?$__crt_unique_handle_t@U__crt_findfile_traits@@@@QBEPAXXZ 1004dd4e f i libucrt:argv_wildcards.obj
 0001:0004cd51       ?get_invalid_value@__crt_findfile_traits@@SAPAXXZ 1004dd51 f i libucrt:argv_wildcards.obj
 0001:0004cd72       ?size@?$argument_list@D@?A0xb0e4b824@@QBEIXZ 1004dd72 f i libucrt:argv_wildcards.obj
 0001:0004cd7d       ?size@?$argument_list@_W@?A0xb0e4b824@@QBEIXZ 1004dd7d f i libucrt:argv_wildcards.obj
 0001:0004cd88       ?strpbrk@@YAPADQADQBD@Z    1004dd88 f i libucrt:argv_wildcards.obj
 0001:0004cd95       ?wcspbrk@@YAPA_WPA_WPB_W@Z 1004dd95 f i libucrt:argv_wildcards.obj
 0001:0004cda2       ___acrt_expand_narrow_argv_wildcards 1004dda2 f   libucrt:argv_wildcards.obj
 0001:0004cdaf       ___acrt_expand_wide_argv_wildcards 1004ddaf f   libucrt:argv_wildcards.obj
 0001:0004cdbc       ??$?RV<lambda_978dc153c237d78434369da87b74ff60>@@AAV<lambda_ad1ced32f4ac17aa236e5ef05d6b3b7c>@@V<lambda_4a8533e2866a575feecb8298ce776b0d>@@@?$__crt_seh_guarded_call@X@@QAEX$$QAV<lambda_978dc153c237d78434369da87b74ff60>@@AAV<lambda_ad1ced32f4ac17aa236e5ef05d6b3b7c>@@$$QAV<lambda_4a8533e2866a575feecb8298ce776b0d>@@@Z 1004ddbc f i libucrt:mbctype.obj
 0001:0004ce0f       ??$__acrt_lock_and_call@V<lambda_ad1ced32f4ac17aa236e5ef05d6b3b7c>@@@@YAXW4__acrt_lock_id@@$$QAV<lambda_ad1ced32f4ac17aa236e5ef05d6b3b7c>@@@Z 1004de0f f i libucrt:mbctype.obj
 0001:0004d420       ___acrt_initialize_multibyte 1004e420 f   libucrt:mbctype.obj
 0001:0004d445       ___acrt_update_thread_multibyte_data 1004e445 f   libucrt:mbctype.obj
 0001:0004d50f       ___p__mbcasemap            1004e50f f   libucrt:mbctype.obj
 0001:0004d515       ___p__mbctype              1004e515 f   libucrt:mbctype.obj
 0001:0004d51b       __getmbcp                  1004e51b f   libucrt:mbctype.obj
 0001:0004d55e       __setmbcp                  1004e55e f   libucrt:mbctype.obj
 0001:0004d575       __setmbcp_nolock           1004e575 f   libucrt:mbctype.obj
 0001:0004d8f2       __ismbbalnum               1004e8f2 f   libucrt:ismbbyte.obj
 0001:0004d913       __ismbbalnum_l             1004e913 f   libucrt:ismbbyte.obj
 0001:0004d936       __ismbbalpha               1004e936 f   libucrt:ismbbyte.obj
 0001:0004d957       __ismbbalpha_l             1004e957 f   libucrt:ismbbyte.obj
 0001:0004d97a       __ismbbblank               1004e97a f   libucrt:ismbbyte.obj
 0001:0004d9a5       __ismbbblank_l             1004e9a5 f   libucrt:ismbbyte.obj
 0001:0004d9d2       __ismbbgraph               1004e9d2 f   libucrt:ismbbyte.obj
 0001:0004d9f3       __ismbbgraph_l             1004e9f3 f   libucrt:ismbbyte.obj
 0001:0004da16       __ismbbkalnum              1004ea16 f   libucrt:ismbbyte.obj
 0001:0004da34       __ismbbkalnum_l            1004ea34 f   libucrt:ismbbyte.obj
 0001:0004da53       __ismbbkana                1004ea53 f   libucrt:ismbbyte.obj
 0001:0004da6a       __ismbbkana_l              1004ea6a f   libucrt:ismbbyte.obj
 0001:0004dacf       __ismbbkprint              1004eacf f   libucrt:ismbbyte.obj
 0001:0004daed       __ismbbkprint_l            1004eaed f   libucrt:ismbbyte.obj
 0001:0004db0c       __ismbbkpunct              1004eb0c f   libucrt:ismbbyte.obj
 0001:0004db2a       __ismbbkpunct_l            1004eb2a f   libucrt:ismbbyte.obj
 0001:0004db49       __ismbblead                1004eb49 f   libucrt:ismbbyte.obj
 0001:0004db67       __ismbblead_l              1004eb67 f   libucrt:ismbbyte.obj
 0001:0004db86       __ismbbprint               1004eb86 f   libucrt:ismbbyte.obj
 0001:0004dba7       __ismbbprint_l             1004eba7 f   libucrt:ismbbyte.obj
 0001:0004dbca       __ismbbpunct               1004ebca f   libucrt:ismbbyte.obj
 0001:0004dbe8       __ismbbpunct_l             1004ebe8 f   libucrt:ismbbyte.obj
 0001:0004dc07       __ismbbtrail               1004ec07 f   libucrt:ismbbyte.obj
 0001:0004dc25       __ismbbtrail_l             1004ec25 f   libucrt:ismbbyte.obj
 0001:0004dc44       ___acrt_initialize_command_line 1004ec44 f   libucrt:argv_data.obj
 0001:0004dc63       ___acrt_uninitialize_command_line 1004ec63 f   libucrt:argv_data.obj
 0001:0004dc66       ___p___argc                1004ec66 f   libucrt:argv_data.obj
 0001:0004dc6c       ___p___argv                1004ec6c f   libucrt:argv_data.obj
 0001:0004dc72       ___p___wargv               1004ec72 f   libucrt:argv_data.obj
 0001:0004dc78       ___p__acmdln               1004ec78 f   libucrt:argv_data.obj
 0001:0004dc7e       ___p__pgmptr               1004ec7e f   libucrt:argv_data.obj
 0001:0004dc84       ___p__wcmdln               1004ec84 f   libucrt:argv_data.obj
 0001:0004dc8a       ___p__wpgmptr              1004ec8a f   libucrt:argv_data.obj
 0001:0004dc90       __get_pgmptr               1004ec90 f   libucrt:argv_data.obj
 0001:0004dccd       __get_wpgmptr              1004eccd f   libucrt:argv_data.obj
 0001:0004dd0a       ??0?$__crt_unique_handle_t@Uenvironment_strings_traits@?A0x588e5281@@@@QAE@QA_W@Z 1004ed0a f i libucrt:get_environment_from_os.obj
 0001:0004dd1e       ??1?$__crt_unique_handle_t@Uenvironment_strings_traits@?A0x588e5281@@@@QAE@XZ 1004ed1e f i libucrt:get_environment_from_os.obj
 0001:0004dd3a       ??B?$__crt_unique_handle_t@Uenvironment_strings_traits@?A0x588e5281@@@@QBE_NXZ 1004ed3a f i libucrt:get_environment_from_os.obj
 0001:0004dd44       ?close@?$__crt_unique_handle_t@Uenvironment_strings_traits@?A0x588e5281@@@@QAEXXZ 1004ed44 f i libucrt:get_environment_from_os.obj
 0001:0004dd60       ?close@environment_strings_traits@?A0x588e5281@@SA_NPA_W@Z 1004ed60 f i libucrt:get_environment_from_os.obj
 0001:0004ddba       ?get@?$__crt_unique_handle_t@Uenvironment_strings_traits@?A0x588e5281@@@@QBEPA_WXZ 1004edba f i libucrt:get_environment_from_os.obj
 0001:0004ddbd       ?get_invalid_value@environment_strings_traits@?A0x588e5281@@SAPA_WXZ 1004edbd f i libucrt:get_environment_from_os.obj
 0001:0004ddc0       ?is_valid@?$__crt_unique_handle_t@Uenvironment_strings_traits@?A0x588e5281@@@@QBE_NXZ 1004edc0 f i libucrt:get_environment_from_os.obj
 0001:0004ddca       ___dcrt_get_narrow_environment_from_os 1004edca f   libucrt:get_environment_from_os.obj
 0001:0004de6d       ___dcrt_get_wide_environment_from_os 1004ee6d f   libucrt:get_environment_from_os.obj
 0001:0004e705       ??$get_or_create_environment_nolock@$$$V@?$__crt_char_traits@D@@SAPAPADXZ 1004f705 f i libucrt:setenv.obj
 0001:0004e70a       ??$get_or_create_environment_nolock@$$$V@?$__crt_char_traits@_W@@SAPAPA_WXZ 1004f70a f i libucrt:setenv.obj
 0001:0004e70f       ??$set_environment_variable@ABQADQAD@?$__crt_char_traits@D@@SAHABQAD$$QBQAD@Z 1004f70f f i libucrt:setenv.obj
 0001:0004e72b       ??$set_environment_variable@ABQA_WQA_W@?$__crt_char_traits@_W@@SAHABQA_W$$QBQA_W@Z 1004f72b f i libucrt:setenv.obj
 0001:0004e747       ??$tcschr@ABQADD@?$__crt_char_traits@D@@SAPADABQAD$$QAD@Z 1004f747 f i libucrt:setenv.obj
 0001:0004e767       ??$tcschr@ABQA_WD@?$__crt_char_traits@_W@@SAPA_WABQA_W$$QAD@Z 1004f767 f i libucrt:setenv.obj
 0001:0004e78c       ??$tcscpy_s@AAPADABIAAPAD@?$__crt_char_traits@D@@SAHAAPADABI0@Z 1004f78c f i libucrt:setenv.obj
 0001:0004e7b1       ??$tcscpy_s@AAPA_WABIAAPA_W@?$__crt_char_traits@_W@@SAHAAPA_WABI0@Z 1004f7b1 f i libucrt:setenv.obj
 0001:0004e7d6       ??$tcscpy_s@ABQADABIABQAD@?$__crt_char_traits@D@@SAHABQADABI0@Z 1004f7d6 f i libucrt:setenv.obj
 0001:0004e7fb       ??$tcscpy_s@ABQA_WABIABQA_W@?$__crt_char_traits@_W@@SAHABQA_WABI0@Z 1004f7fb f i libucrt:setenv.obj
 0001:0004e820       ??$tcsnicoll@ABQBDAAPADABI@?$__crt_char_traits@D@@SAHABQBDAAPADABI@Z 1004f820 f i libucrt:setenv.obj
 0001:0004e845       ??$tcsnicoll@ABQB_WAAPA_WABI@?$__crt_char_traits@_W@@SAHABQB_WAAPA_WABI@Z 1004f845 f i libucrt:setenv.obj
 0001:0004e88e       ?strchr@@YAPADQADH@Z       1004f88e f i libucrt:setenv.obj
 0001:0004e89b       ?wcschr@@YAPA_WPA_W_W@Z    1004f89b f i libucrt:setenv.obj
 0001:0004e8a8       ___dcrt_set_variable_in_narrow_environment_nolock 1004f8a8 f   libucrt:setenv.obj
 0001:0004e8b5       ___dcrt_set_variable_in_wide_environment_nolock 1004f8b5 f   libucrt:setenv.obj
 0001:0004e8c2       __recalloc                 1004f8c2 f   libucrt:recalloc.obj
 0001:0004e8cf       __recalloc_base            1004f8cf f   libucrt:recalloc.obj
 0001:0004e957       ___acrt_getheap            1004f957 f   libucrt:heap_handle.obj
 0001:0004e95d       ___acrt_initialize_heap    1004f95d f   libucrt:heap_handle.obj
 0001:0004e972       ___acrt_uninitialize_heap  1004f972 f   libucrt:heap_handle.obj
 0001:0004e97e       __get_heap_handle          1004f97e f   libucrt:heap_handle.obj
 0001:0004e984       ___acrt_execute_initializers 1004f984 f   libucrt:shared_initialization.obj
 0001:0004ea27       ___acrt_execute_uninitializers 1004fa27 f   libucrt:shared_initialization.obj
 0001:0004ea87       ??$?B$$A6AHI@Z@__crt_fast_encoded_nullptr_t@@QBEP6AHI@ZXZ 1004fa87 f i libucrt:new_handler.obj
 0001:0004eaa5       ??$__crt_fast_decode_pointer@P6AHI@Z@@YAP6AHI@ZQ6AHI@Z@Z 1004faa5 f i libucrt:new_handler.obj
 0001:0004eac0       ??$__crt_fast_encode_pointer@P6AHI@Z@@YAP6AHI@ZQ6AHI@Z@Z 1004fac0 f i libucrt:new_handler.obj
 0001:0004eae6       ?_set_new_handler@@YAP6AHI@ZH@Z 1004fae6 f   libucrt:new_handler.obj
 0001:0004eb0c       ?initialize@?$dual_state_global@P6AHI@Z@__crt_state_management@@QAEXQ6AHI@Z@Z 1004fb0c f i libucrt:new_handler.obj
 0001:0004eb49       ?value@?$dual_state_global@P6AHI@Z@__crt_state_management@@QAEAAP6AHI@ZXZ 1004fb49 f i libucrt:new_handler.obj
 0001:0004eb4c       ___acrt_initialize_new_handler 1004fb4c f   libucrt:new_handler.obj
 0001:0004eb65       __callnewh                 1004fb65 f   libucrt:new_handler.obj
 0001:0004ebba       __query_new_handler        1004fbba f   libucrt:new_handler.obj
 0001:0004ec20       __set_new_handler          1004fc20 f   libucrt:new_handler.obj
 0001:0004ec98       ?value@?$dual_state_global@J@__crt_state_management@@QAEAAJXZ 1004fc98 f i libucrt:new_mode.obj
 0001:0004ec9b       __query_new_mode           1004fc9b f   libucrt:new_mode.obj
 0001:0004eca1       __set_new_mode             1004fca1 f   libucrt:new_mode.obj
 0001:0004ecdb       ___pctype_func             1004fcdb f   libucrt:ctype.obj
 0001:0004ed0a       ___pwctype_func            1004fd0a f   libucrt:ctype.obj
 0001:0004ed10       __iswctype_l               1004fd10 f   libucrt:iswctype.obj
 0001:0004ed29       _iswctype                  1004fd29 f   libucrt:iswctype.obj
 0001:0004ed9f       __isctype                  1004fd9f f   libucrt:isctype.obj
 0001:0004eddc       __isctype_l                1004fddc f   libucrt:isctype.obj
 0001:0004f0a3       ___acrt_DownlevelLCIDToLocaleName 100500a3 f   libucrt:lcidtoname_downlevel.obj
 0001:0004f177       ___acrt_DownlevelLocaleNameToLCID 10050177 f   libucrt:lcidtoname_downlevel.obj
 0001:0004f1ae       ??$?RV<lambda_61cee617f5178ae960314fd4d05640a0>@@AAV<lambda_6978c1fb23f02e42e1d9e99668cc68aa>@@V<lambda_9cd88cf8ad10232537feb2133f08c833>@@@?$__crt_seh_guarded_call@H@@QAEH$$QAV<lambda_61cee617f5178ae960314fd4d05640a0>@@AAV<lambda_6978c1fb23f02e42e1d9e99668cc68aa>@@$$QAV<lambda_9cd88cf8ad10232537feb2133f08c833>@@@Z 100501ae f i libucrt:commit.obj
 0001:0004f26c       ??$__acrt_lowio_lock_fh_and_call@V<lambda_6978c1fb23f02e42e1d9e99668cc68aa>@@@@YAHH$$QAV<lambda_6978c1fb23f02e42e1d9e99668cc68aa>@@@Z 1005026c f i libucrt:commit.obj
 0001:0004f35e       __commit                   1005035e f   libucrt:commit.obj
 0001:0004f3e8       ??$?RU__crt_lowio_handle_data@@@__crt_internal_free_policy@@QBEXQBU__crt_lowio_handle_data@@@Z 100503e8 f i libucrt:osfinfo.obj
 0001:0004f3fe       ??0?$__crt_unique_heap_ptr@U__crt_lowio_handle_data@@U__crt_internal_free_policy@@@@QAE@QAU__crt_lowio_handle_data@@@Z 100503fe f i libucrt:osfinfo.obj
 0001:0004f412       ??1?$__crt_unique_heap_ptr@U__crt_lowio_handle_data@@U__crt_internal_free_policy@@@@QAE@XZ 10050412 f i libucrt:osfinfo.obj
 0001:0004f428       ??B?$__crt_unique_heap_ptr@U__crt_lowio_handle_data@@U__crt_internal_free_policy@@@@QBE_NXZ 10050428 f i libucrt:osfinfo.obj
 0001:0004f432       ?detach@?$__crt_unique_heap_ptr@U__crt_lowio_handle_data@@U__crt_internal_free_policy@@@@QAEPAU__crt_lowio_handle_data@@XZ 10050432 f i libucrt:osfinfo.obj
 0001:0004f438       ?get@?$__crt_unique_heap_ptr@U__crt_lowio_handle_data@@U__crt_internal_free_policy@@@@QBEPAU__crt_lowio_handle_data@@XZ 10050438 f i libucrt:osfinfo.obj
 0001:0004f43b       ?is_valid@?$__crt_unique_heap_ptr@U__crt_lowio_handle_data@@U__crt_internal_free_policy@@@@QBE_NXZ 1005043b f i libucrt:osfinfo.obj
 0001:0004f445       ?release@?$__crt_unique_heap_ptr@U__crt_lowio_handle_data@@U__crt_internal_free_policy@@@@QAEXXZ 10050445 f i libucrt:osfinfo.obj
 0001:0004f45b       ___acrt_lowio_create_handle_array 1005045b f   libucrt:osfinfo.obj
 0001:0004f4f3       ___acrt_lowio_destroy_handle_array 100504f3 f   libucrt:osfinfo.obj
 0001:0004f535       ___acrt_lowio_ensure_fh_exists 10050535 f   libucrt:osfinfo.obj
 0001:0004f5f3       ___acrt_lowio_lock_fh      100505f3 f   libucrt:osfinfo.obj
 0001:0004f61e       ___acrt_lowio_set_os_handle 1005061e f   libucrt:osfinfo.obj
 0001:0004f6d7       ___acrt_lowio_unlock_fh    100506d7 f   libucrt:osfinfo.obj
 0001:0004f702       __alloc_osfhnd             10050702 f   libucrt:osfinfo.obj
 0001:0004f858       __free_osfhnd              10050858 f   libucrt:osfinfo.obj
 0001:0004f90d       __get_osfhandle            1005090d f   libucrt:osfinfo.obj
 0001:0004f991       __open_osfhandle           10050991 f   libucrt:osfinfo.obj
 0001:0004fae2       ___iswcsym                 10050ae2 f i libucrt:_wctype.obj
 0001:0004fb11       ___iswcsymf                10050b11 f i libucrt:_wctype.obj
 0001:0004fb40       __isleadbyte_l             10050b40 f i libucrt:_wctype.obj
 0001:0004fb87       __iswalnum_l               10050b87 f i libucrt:_wctype.obj
 0001:0004fba2       __iswalpha_l               10050ba2 f i libucrt:_wctype.obj
 0001:0004fbbd       __iswblank_l               10050bbd f i libucrt:_wctype.obj
 0001:0004fbe1       __iswcntrl_l               10050be1 f i libucrt:_wctype.obj
 0001:0004fbf8       __iswcsym_l                10050bf8 f i libucrt:_wctype.obj
 0001:0004fc27       __iswcsymf_l               10050c27 f i libucrt:_wctype.obj
 0001:0004fc56       __iswdigit_l               10050c56 f i libucrt:_wctype.obj
 0001:0004fc6d       __iswgraph_l               10050c6d f i libucrt:_wctype.obj
 0001:0004fc88       __iswlower_l               10050c88 f i libucrt:_wctype.obj
 0001:0004fc9f       __iswprint_l               10050c9f f i libucrt:_wctype.obj
 0001:0004fcba       __iswpunct_l               10050cba f i libucrt:_wctype.obj
 0001:0004fcd1       __iswspace_l               10050cd1 f i libucrt:_wctype.obj
 0001:0004fce8       __iswupper_l               10050ce8 f i libucrt:_wctype.obj
 0001:0004fcff       __iswxdigit_l              10050cff f i libucrt:_wctype.obj
 0001:0004fd1a       _isleadbyte                10050d1a f i libucrt:_wctype.obj
 0001:0004fd31       _iswalnum                  10050d31 f i libucrt:_wctype.obj
 0001:0004fd4c       _iswalpha                  10050d4c f i libucrt:_wctype.obj
 0001:0004fd67       _iswascii                  10050d67 f i libucrt:_wctype.obj
 0001:0004fd80       _iswblank                  10050d80 f i libucrt:_wctype.obj
 0001:0004fda4       _iswcntrl                  10050da4 f i libucrt:_wctype.obj
 0001:0004fdbb       _iswdigit                  10050dbb f i libucrt:_wctype.obj
 0001:0004fdd2       _iswgraph                  10050dd2 f i libucrt:_wctype.obj
 0001:0004fded       _iswlower                  10050ded f i libucrt:_wctype.obj
 0001:0004fe04       _iswprint                  10050e04 f i libucrt:_wctype.obj
 0001:0004fe1f       _iswpunct                  10050e1f f i libucrt:_wctype.obj
 0001:0004fe36       _iswspace                  10050e36 f i libucrt:_wctype.obj
 0001:0004fe4d       _iswupper                  10050e4d f i libucrt:_wctype.obj
 0001:0004fe64       _iswxdigit                 10050e64 f i libucrt:_wctype.obj
 0001:0004fe7f       ??0?$__crt_scoped_stack_ptr@_W@@QAE@U?$__crt_scoped_stack_ptr_tag@_W@@@Z 10050e7f f i libucrt:lcmapstringa.obj
 0001:0004fe93       ??0?$__crt_scoped_stack_ptr_tag@_W@@QAE@QA_W@Z 10050e93 f i libucrt:lcmapstringa.obj
 0001:0004fea7       ??1?$__crt_scoped_stack_ptr@_W@@QAE@XZ 10050ea7 f i libucrt:lcmapstringa.obj
 0001:0004feb2       ??B?$__crt_scoped_stack_ptr@_W@@QBE_NXZ 10050eb2 f i libucrt:lcmapstringa.obj
 0001:00050160       ?get@?$__crt_scoped_stack_ptr@_W@@QBEPA_WXZ 10051160 f i libucrt:lcmapstringa.obj
 0001:00050163       __MallocaComputeSize       10051163 f i libucrt:lcmapstringa.obj
 0001:0005017a       __MarkAllocaS              1005117a f i libucrt:lcmapstringa.obj
 0001:00050195       ___acrt_LCMapStringA       10051195 f   libucrt:lcmapstringa.obj
 0001:000501f2       __freea_crt                100511f2 f i libucrt:lcmapstringa.obj
 0001:0005021a       ??$?RG@__crt_internal_free_policy@@QBEXQBG@Z 1005121a f i libucrt:initctype.obj
 0001:00050230       ??$?RJ@__crt_internal_free_policy@@QBEXQBJ@Z 10051230 f i libucrt:initctype.obj
 0001:00050246       ??0?$__crt_unique_heap_ptr@GU__crt_internal_free_policy@@@@QAE@QAG@Z 10051246 f i libucrt:initctype.obj
 0001:0005025a       ??0?$__crt_unique_heap_ptr@JU__crt_internal_free_policy@@@@QAE@QAJ@Z 1005125a f i libucrt:initctype.obj
 0001:0005026e       ??1?$__crt_unique_heap_ptr@GU__crt_internal_free_policy@@@@QAE@XZ 1005126e f i libucrt:initctype.obj
 0001:00050284       ??1?$__crt_unique_heap_ptr@JU__crt_internal_free_policy@@@@QAE@XZ 10051284 f i libucrt:initctype.obj
 0001:0005029a       ?detach@?$__crt_unique_heap_ptr@GU__crt_internal_free_policy@@@@QAEPAGXZ 1005129a f i libucrt:initctype.obj
 0001:000502a0       ?detach@?$__crt_unique_heap_ptr@JU__crt_internal_free_policy@@@@QAEPAJXZ 100512a0 f i libucrt:initctype.obj
 0001:000502a6       ?release@?$__crt_unique_heap_ptr@GU__crt_internal_free_policy@@@@QAEXXZ 100512a6 f i libucrt:initctype.obj
 0001:000502bc       ?release@?$__crt_unique_heap_ptr@JU__crt_internal_free_policy@@@@QAEXXZ 100512bc f i libucrt:initctype.obj
 0001:000502d2       ____lc_codepage_func       100512d2 f   libucrt:initctype.obj
 0001:00050302       ____lc_collate_cp_func     10051302 f   libucrt:initctype.obj
 0001:00050332       ____lc_locale_name_func    10051332 f   libucrt:initctype.obj
 0001:00050365       ____mb_cur_max_func        10051365 f   libucrt:initctype.obj
 0001:00050395       ____mb_cur_max_l_func      10051395 f   libucrt:initctype.obj
 0001:000503b4       ___acrt_locale_initialize_ctype 100513b4 f   libucrt:initctype.obj
 0001:00050839       ___acrt_add_locale_ref     10051839 f   libucrt:locale_refcounting.obj
 0001:000508d5       ___acrt_free_locale        100518d5 f   libucrt:locale_refcounting.obj
 0001:00050a71       ___acrt_locale_add_lc_time_reference 10051a71 f   libucrt:locale_refcounting.obj
 0001:00050aa4       ___acrt_locale_free_lc_time_if_unreferenced 10051aa4 f   libucrt:locale_refcounting.obj
 0001:00050ae0       ___acrt_locale_release_lc_time_reference 10051ae0 f   libucrt:locale_refcounting.obj
 0001:00050b13       ___acrt_release_locale_ref 10051b13 f   libucrt:locale_refcounting.obj
 0001:00050bb4       ___acrt_update_thread_locale_data 10051bb4 f   libucrt:locale_refcounting.obj
 0001:00050c48       __updatetlocinfoEx_nolock  10051c48 f   libucrt:locale_refcounting.obj
 0001:00050cac       ___acrt_fp_strflt_to_string 10051cac f   libucrt:_fptostr.obj
 0001:000524e0       ??0big_integer@__crt_strtox@@QAE@ABU01@@Z 100534e0 f i libucrt:cfout.obj
 0001:00052520       ??0big_integer@__crt_strtox@@QAE@XZ 10053520 f i libucrt:cfout.obj
 0001:0005252b       ??0scoped_fp_state_reset@?A0x48fbfdd4@@QAE@XZ 1005352b f i libucrt:cfout.obj
 0001:0005255f       ??1scoped_fp_state_reset@?A0x48fbfdd4@@QAE@XZ 1005355f f i libucrt:cfout.obj
 0001:00052570       ??4big_integer@__crt_strtox@@QAEAAU01@ABU01@@Z 10053570 f i libucrt:cfout.obj
 0001:000525b0       ??8__crt_strtox@@YA_NABUbig_integer@0@0@Z 100535b0 f i libucrt:cfout.obj
 0001:00052600       ??9__crt_strtox@@YA_NABUbig_integer@0@0@Z 10053600 f i libucrt:cfout.obj
 0001:00052660       ?add_carry@__crt_strtox@@YAIAAIII@Z 10053660 f i libucrt:cfout.obj
 0001:00052690       ?add_multiply_carry@__crt_strtox@@YAIAAIIII@Z 10053690 f i libucrt:cfout.obj
 0001:000526c0       ?bit_scan_reverse@__crt_strtox@@YAII@Z 100536c0 f i libucrt:cfout.obj
 0001:000526f0       ?count_sequential_high_zeroes@__crt_strtox@@YAII@Z 100536f0 f i libucrt:cfout.obj
 0001:00052720       ?divide@__crt_strtox@@YA_KAAUbig_integer@1@ABU21@@Z 10053720 f i libucrt:cfout.obj
 0001:00052d00       ?is_zero@__crt_strtox@@YA_NABUbig_integer@1@@Z 10053d00 f i libucrt:cfout.obj
 0001:00052d20       ?make_big_integer@__crt_strtox@@YA?AUbig_integer@1@_K@Z 10053d20 f i libucrt:cfout.obj
 0001:00052d50       ?make_big_integer_power_of_two@__crt_strtox@@YA?AUbig_integer@1@I@Z 10053d50 f i libucrt:cfout.obj
 0001:00052db0       ?multiply@__crt_strtox@@YA_NAAUbig_integer@1@ABU21@@Z 10053db0 f i libucrt:cfout.obj
 0001:00053260       ?multiply@__crt_strtox@@YA_NAAUbig_integer@1@I@Z 10054260 f i libucrt:cfout.obj
 0001:00053360       ?multiply_64_32@__crt_strtox@@YA_K_KI@Z 10054360 f i libucrt:cfout.obj
 0001:00053380       ?multiply_by_power_of_ten@__crt_strtox@@YA_NAAUbig_integer@1@I@Z 10054380 f i libucrt:cfout.obj
 0001:00053a80       ?multiply_core@__crt_strtox@@YAIQAIII@Z 10054a80 f i libucrt:cfout.obj
 0001:00053ad0       ?shift_left@__crt_strtox@@YA_NAAUbig_integer@1@I@Z 10054ad0 f i libucrt:cfout.obj
 0001:00053c72       ___acrt_fltout             10054c72 f   libucrt:cfout.obj
 0001:00055596       __isatty                   10056596 f   libucrt:isatty.obj
 0001:00055601       ??$?RUlconv@@@__crt_internal_free_policy@@QBEXQBUlconv@@@Z 10056601 f i libucrt:initmon.obj
 0001:00055617       ??0?$__crt_unique_heap_ptr@Ulconv@@U__crt_internal_free_policy@@@@QAE@QAUlconv@@@Z 10056617 f i libucrt:initmon.obj
 0001:0005562b       ??1?$__crt_unique_heap_ptr@Ulconv@@U__crt_internal_free_policy@@@@QAE@XZ 1005662b f i libucrt:initmon.obj
 0001:00055641       ?detach@?$__crt_unique_heap_ptr@Ulconv@@U__crt_internal_free_policy@@@@QAEPAUlconv@@XZ 10056641 f i libucrt:initmon.obj
 0001:00055647       ?release@?$__crt_unique_heap_ptr@Ulconv@@U__crt_internal_free_policy@@@@QAEXXZ 10056647 f i libucrt:initmon.obj
 0001:0005565d       ___acrt_locale_free_monetary 1005665d f   libucrt:initmon.obj
 0001:0005579a       ___acrt_locale_initialize_monetary 1005679a f   libucrt:initmon.obj
 0001:00055c8d       ___acrt_locale_free_numeric 10056c8d f   libucrt:initnum.obj
 0001:00055d10       ___acrt_locale_initialize_numeric 10056d10 f   libucrt:initnum.obj
 0001:00055ffb       ??$?RU__crt_lc_time_data@@@__crt_internal_free_policy@@QBEXQBU__crt_lc_time_data@@@Z 10056ffb f i libucrt:inittime.obj
 0001:0005609b       ??0?$__crt_unique_heap_ptr@U__crt_lc_time_data@@U__crt_internal_free_policy@@@@QAE@QAU__crt_lc_time_data@@@Z 1005709b f i libucrt:inittime.obj
 0001:000560af       ??1?$__crt_unique_heap_ptr@U__crt_lc_time_data@@U__crt_internal_free_policy@@@@QAE@XZ 100570af f i libucrt:inittime.obj
 0001:000560c5       ??B?$__crt_unique_heap_ptr@U__crt_lc_time_data@@U__crt_internal_free_policy@@@@QBE_NXZ 100570c5 f i libucrt:inittime.obj
 0001:000560cf       ?detach@?$__crt_unique_heap_ptr@U__crt_lc_time_data@@U__crt_internal_free_policy@@@@QAEPAU__crt_lc_time_data@@XZ 100570cf f i libucrt:inittime.obj
 0001:00056120       ?get@?$__crt_unique_heap_ptr@U__crt_lc_time_data@@U__crt_internal_free_policy@@@@QBEPAU__crt_lc_time_data@@XZ 10057120 f i libucrt:inittime.obj
 0001:000564b8       ?is_valid@?$__crt_unique_heap_ptr@U__crt_lc_time_data@@U__crt_internal_free_policy@@@@QBE_NXZ 100574b8 f i libucrt:inittime.obj
 0001:000564c2       ?release@?$__crt_unique_heap_ptr@U__crt_lc_time_data@@U__crt_internal_free_policy@@@@QAEXXZ 100574c2 f i libucrt:inittime.obj
 0001:000564d8       ___acrt_locale_free_time   100574d8 f   libucrt:inittime.obj
 0001:000565f5       ___acrt_locale_initialize_time 100575f5 f   libucrt:inittime.obj
 0001:00056793       _wcsncpy_s                 10057793 f   libucrt:wcsncpy_s.obj
 0001:000567a0       _wcscspn                   100577a0 f   libucrt:wcscspn.obj
 0001:00056804       _wcsncmp                   10057804 f   libucrt:wcsncmp.obj
 0001:0005684c       _wcspbrk                   1005784c f   libucrt:wcspbrk.obj
 0001:000568a2       ___acrt_GetStringTypeA     100578a2 f   libucrt:getstringtypea.obj
 0001:00057316       ___acrt_get_qualified_locale 10058316 f   libucrt:get_qualified_locale.obj
 0001:00057ebd       ___acrt_get_qualified_locale_downlevel 10058ebd f   libucrt:getqloc_downlevel.obj
 0001:00058145       _localeconv                10059145 f   libucrt:localeconv.obj
 0001:00058179       __wcsnicmp                 10059179 f   libucrt:wcsnicmp.obj
 0001:0005825f       __wcsnicmp_l               1005925f f   libucrt:wcsnicmp.obj
 0001:000583a0       _strncmp                   100593a0 f   libucrt:strncmp.obj
 0001:00058436       __strnicmp                 10059436 f   libucrt:strnicmp.obj
 0001:000584bd       __strnicmp_l               100594bd f   libucrt:strnicmp.obj
 0001:000585a1       ??$__vcrt_va_start_verify_argument_type@$$CBH@@YAXXZ 100595a1 f i libucrt:open.obj
 0001:00058958       ??$tsopen_nolock@PAHABQAHABQBDABHABHABHABH@?$__crt_char_traits@D@@SAH$$QAPAHABQAHABQBDABH333@Z 10059958 f i libucrt:open.obj
 0001:00058996       ??$tsopen_nolock@PAHABQAHABQB_WABHABHABHABH@?$__crt_char_traits@_W@@SAH$$QAPAHABQAHABQB_WABH333@Z 10059996 f i libucrt:open.obj
 0001:000589d4       ??$tsopen_nolock@PAHPAHABQBDABHHABHH@?$__crt_char_traits@D@@SAH$$QAPAH0ABQBDABH$$QAH23@Z 100599d4 f i libucrt:open.obj
 0001:00058a12       ??$tsopen_nolock@PAHPAHABQB_WABHHABHH@?$__crt_char_traits@_W@@SAH$$QAPAH0ABQB_WABH$$QAH23@Z 10059a12 f i libucrt:open.obj
 0001:000591e0       __open                     1005a1e0 f   libucrt:open.obj
 0001:000591fe       __sopen                    1005a1fe f   libucrt:open.obj
 0001:00059240       __sopen_dispatch           1005a240 f   libucrt:open.obj
 0001:0005924d       __sopen_nolock             1005a24d f   libucrt:open.obj
 0001:000592b2       __sopen_s                  1005a2b2 f   libucrt:open.obj
 0001:000592da       __wopen                    1005a2da f   libucrt:open.obj
 0001:000592f8       __wsopen                   1005a2f8 f   libucrt:open.obj
 0001:0005933a       __wsopen_dispatch          1005a33a f   libucrt:open.obj
 0001:00059347       __wsopen_nolock            1005a347 f   libucrt:open.obj
 0001:0005973a       __wsopen_s                 1005a73a f   libucrt:open.obj
 0001:00059762       ___p__commode              1005a762 f   libucrt:ncommode.obj
 0001:00059768       ___acrt_stdio_allocate_buffer_nolock 1005a768 f   libucrt:_getbuf.obj
 0001:000597dc       ??$?RV<lambda_4980db0136e49a56f91ef52c46ca659a>@@AAV<lambda_6e3e78bb6855d1e4040e022c1b427e22>@@V<lambda_9c074eaf62197b4fd0274ed9e7824161>@@@?$__crt_seh_guarded_call@G@@QAEG$$QAV<lambda_4980db0136e49a56f91ef52c46ca659a>@@AAV<lambda_6e3e78bb6855d1e4040e022c1b427e22>@@$$QAV<lambda_9c074eaf62197b4fd0274ed9e7824161>@@@Z 1005a7dc f i libucrt:putwch.obj
 0001:00059851       ??$__acrt_lock_and_call@V<lambda_6e3e78bb6855d1e4040e022c1b427e22>@@@@YAGW4__acrt_lock_id@@$$QAV<lambda_6e3e78bb6855d1e4040e022c1b427e22>@@@Z 1005a851 f i libucrt:putwch.obj
 0001:000598e9       __putwch                   1005a8e9 f   libucrt:putwch.obj
 0001:0005990d       __putwch_nolock            1005a90d f   libucrt:putwch.obj
 0001:00059963       _nextafter                 1005a963 f   libucrt:nextafter.obj
 0001:00059989       ??1scoped_global_state_reset@__crt_state_management@@QAE@XZ 1005a989 f i libucrt:qsort.obj
 0001:00059aa0       _qsort                     1005aaa0 f   libucrt:qsort.obj
 0001:00059ffd       _strncpy_s                 1005affd f   libucrt:strncpy_s.obj
 0001:0005a010       _strpbrk                   1005b010 f   libucrt:strpbrk.obj
 0001:0005a060       __mbsdec                   1005b060 f   libucrt:mbsdec.obj
 0001:0005a07c       __mbsdec_l                 1005b07c f   libucrt:mbsdec.obj
 0001:0005a13e       __wcsnicoll                1005b13e f   libucrt:wcsnicol.obj
 0001:0005a242       __wcsnicoll_l              1005b242 f   libucrt:wcsnicol.obj
 0001:0005a3ba       __strnicoll                1005b3ba f   libucrt:strnicol.obj
 0001:0005a3ed       __strnicoll_l              1005b3ed f   libucrt:strnicol.obj
 0001:0005a528       __msize                    1005b528 f   libucrt:msize.obj
 0001:0005a567       ___strncnt                 1005b567 f   libucrt:strncnt.obj
 0001:0005a6c3       ___acrt_GetLocaleInfoA     1005b6c3 f   libucrt:getlocaleinfoa.obj
 0001:0005a8e1       _fegetenv                  1005b8e1 f   libucrt:fegetenv.obj
 0001:0005a905       _fesetenv                  1005b905 f   libucrt:fesetenv.obj
 0001:0005a960       _feholdexcept              1005b960 f   libucrt:feholdexcept.obj
 0001:0005a9d0       _log10                     1005b9d0 f   libucrt:log10.obj
 0001:0005aa10       __CIlog10                  1005ba10 f   libucrt:log10.obj
 0001:0005aa4b       __CIlog10_default          1005ba4b f   libucrt:log10.obj
 0001:0005aa5f       __log10_default            1005ba5f     libucrt:log10.obj
 0001:0005ab80       _ceil                      1005bb80 f   libucrt:ceil_pentium4.obj
 0001:0005abc0       __ceil_pentium4            1005bbc0 f   libucrt:ceil_pentium4.obj
 0001:0005ace4       __wcsicmp                  1005bce4 f   libucrt:wcsicmp.obj
 0001:0005ad9e       __wcsicmp_l                1005bd9e f   libucrt:wcsicmp.obj
 0001:0005aeb6       __towlower_l               1005beb6 f   libucrt:towlower.obj
 0001:0005afb1       _towlower                  1005bfb1 f   libucrt:towlower.obj
 0001:0005afd0       ___ascii_strnicmp          1005bfd0 f   libucrt:_strnicm.obj
 0001:0005b049       ??$__crt_interlocked_read@H@@YAHPDH@Z 1005c049 f i libucrt:setmode.obj
 0001:0005b058       __get_fmode                1005c058 f   libucrt:setmode.obj
 0001:0005b08f       __set_fmode                1005c08f f   libucrt:setmode.obj
 0001:0005b0db       __setmode                  1005c0db f   libucrt:setmode.obj
 0001:0005b22c       __setmode_nolock           1005c22c f   libucrt:setmode.obj
 0001:0005b331       ??$?RV<lambda_4cfda81533ccf5a03113a1ca40a30445>@@AAV<lambda_1cffa78e445b1da5fba1a2e0e533226f>@@V<lambda_68c952aa1b860373b2109ef12d0bba9d>@@@?$__crt_seh_guarded_call@H@@QAEH$$QAV<lambda_4cfda81533ccf5a03113a1ca40a30445>@@AAV<lambda_1cffa78e445b1da5fba1a2e0e533226f>@@$$QAV<lambda_68c952aa1b860373b2109ef12d0bba9d>@@@Z 1005c331 f i libucrt:chsize.obj
 0001:0005b3db       ??$__acrt_lowio_lock_fh_and_call@V<lambda_1cffa78e445b1da5fba1a2e0e533226f>@@@@YAHH$$QAV<lambda_1cffa78e445b1da5fba1a2e0e533226f>@@@Z 1005c3db f i libucrt:chsize.obj
 0001:0005b4bd       __chsize                   1005c4bd f   libucrt:chsize.obj
 0001:0005b4e0       __chsize_nolock            1005c4e0 f   libucrt:chsize.obj
 0001:0005b6d5       __chsize_s                 1005c6d5 f   libucrt:chsize.obj
 0001:0005b796       __umask                    1005c796 f   libucrt:umask.obj
 0001:0005b7c4       __umask_s                  1005c7c4 f   libucrt:umask.obj
 0001:0005b80d       ___dcrt_lowio_initialize_console_output 1005c80d f   libucrt:initcon.obj
 0001:0005b833       ___dcrt_terminate_console_output 1005c833 f   libucrt:initcon.obj
 0001:0005b84f       _nexttoward                1005c84f f   libucrt:nexttoward.obj
 0001:0005ba00       ___acrt_CompareStringW     1005ca00 f   libucrt:comparestringw.obj
 0001:0005bdd4       ___acrt_CompareStringA     1005cdd4 f   libucrt:comparestringa.obj
 0001:0005be2e       ___acrt_fenv_get_fp_status_word_from_exception_mask 1005ce2e f   libucrt:_fenvutils.obj
 0001:0005c271       __getfpcontrolword         1005d271 f   libucrt:_fenvutils.obj
 0001:0005c2c4       __getfpstatusword          1005d2c4 f   libucrt:_fenvutils.obj
 0001:0005c396       __setfpcontrolword         1005d396 f   libucrt:_fenvutils.obj
 0001:0005c436       __setfpstatusword          1005d436 f   libucrt:_fenvutils.obj
 0001:0005c66c       ___control87_2             1005d66c f   libucrt:ieee87.obj
 0001:0005cc40       ___fpreset_sse2            1005dc40 f   libucrt:ieee87.obj
 0001:0005ce93       __clearfp                  1005de93 f   libucrt:ieee87.obj
 0001:0005cfa8       __control87                1005dfa8 f   libucrt:ieee87.obj
 0001:0005d36a       __controlfp                1005e36a f   libucrt:ieee87.obj
 0001:0005d38a       __fpreset                  1005e38a f   libucrt:ieee87.obj
 0001:0005d487       __set_controlfp            1005e487 f   libucrt:ieee87.obj
 0001:0005d51d       __statusfp                 1005e51d f   libucrt:ieee87.obj
 0001:0005d5e0       __statusfp2                1005e5e0 f   libucrt:ieee87.obj
 0001:0005d65d       ___acrt_initialize_sse2    1005e65d f   libucrt:mathfcns.obj
 0001:0005d66f       __set_SSE2_enable          1005e66f f   libucrt:mathfcns.obj
 0001:0005d6a0       __CIlog10_pentium4         1005e6a0 f   libucrt:log10_pentium4.obj
 0001:0005d6b8       __log10_pentium4           1005e6b8     libucrt:log10_pentium4.obj
 0001:0005d9f1       __fFEXP                    1005e9f1     libucrt:87tran.obj
 0001:0005da48       __rtinfpopse               1005ea48     libucrt:87tran.obj
 0001:0005da4a       __rtinfnpopse              1005ea4a     libucrt:87tran.obj
 0001:0005da5a       __fFLN                     1005ea5a     libucrt:87tran.obj
 0001:0005db0f       __rtinfpop                 1005eb0f     libucrt:87tran.obj
 0001:0005db11       __rtinfnpop                1005eb11     libucrt:87tran.obj
 0001:0005db2e       __ffexpm1                  1005eb2e     libucrt:87tran.obj
 0001:0005dc60       __trandisp1                1005ec60 f   libucrt:87disp.obj
 0001:0005dcc7       __trandisp2                1005ecc7 f   libucrt:87disp.obj
 0001:0005dd53       __rttospopde               1005ed53     libucrt:87disp.obj
 0001:0005dd58       __rttospop                 1005ed58     libucrt:87disp.obj
 0001:0005dd5a       __rtnospop                 1005ed5a     libucrt:87disp.obj
 0001:0005dd5c       __rttosnpop                1005ed5c     libucrt:87disp.obj
 0001:0005dd5d       __rtnospopde               1005ed5d     libucrt:87disp.obj
 0001:0005dd64       __rtzeropop                1005ed64     libucrt:87disp.obj
 0001:0005dd66       __rtzeronpop               1005ed66     libucrt:87disp.obj
 0001:0005dd6b       __rtzerospop               1005ed6b     libucrt:87disp.obj
 0001:0005dd78       __rtonepop                 1005ed78     libucrt:87disp.obj
 0001:0005dd7a       __rtonenpop                1005ed7a     libucrt:87disp.obj
 0001:0005dd7f       __tosnan1                  1005ed7f     libucrt:87disp.obj
 0001:0005ddaa       __nosnan2                  1005edaa     libucrt:87disp.obj
 0001:0005ddac       __tosnan2                  1005edac     libucrt:87disp.obj
 0001:0005ddd4       __nan2                     1005edd4     libucrt:87disp.obj
 0001:0005de13       __rtindfpop                1005ee13     libucrt:87disp.obj
 0001:0005de15       __rtindfnpop               1005ee15     libucrt:87disp.obj
 0001:0005de26       __rttosnpopde              1005ee26     libucrt:87disp.obj
 0001:0005de30       __rtatan2inf               1005ee30     libucrt:87disp.obj
 0001:0005de4d       __rtchsifneg               1005ee4d     libucrt:87disp.obj
 0001:0005ded1       ___setfflag                1005eed1 f   libucrt:fp_flags.obj
 0001:0005def0       __twoToTOS                 1005eef0 f   libucrt:common.obj
 0001:0005df05       __load_CW                  1005ef05 f   libucrt:common.obj
 0001:0005df1c       __convertTOStoQNaN         1005ef1c f   libucrt:common.obj
 0001:0005df35       __fload_withFB             1005ef35 f   libucrt:common.obj
 0001:0005df78       __checkTOS_withFB          1005ef78 f   libucrt:common.obj
 0001:0005df8e       __fast_exit                1005ef8e f   libucrt:common.obj
 0001:0005df9b       __math_exit                1005ef9b f   libucrt:common.obj
 0001:0005dfc5       __check_overflow_exit      1005efc5 f   libucrt:common.obj
 0001:0005dfd9       __check_range_exit         1005efd9 f   libucrt:common.obj
 0001:0005e0e0       __startTwoArgErrorHandling 1005f0e0 f   libucrt:genexcep.obj
 0001:0005e0f7       __startOneArgErrorHandling 1005f0f7 f   libucrt:genexcep.obj
 0001:0005e147       ___libm_error_support      1005f147 f   libucrt:libm_error.obj
 0001:0005e3e5       ___libm_setusermatherr     1005f3e5 f   libucrt:libm_error.obj
 0001:0005e41e       __ceil_default             1005f41e f   libucrt:ceil.obj
 0001:0005e505       ___acrt_LCMapStringW       1005f505 f   libucrt:lcmapstringw.obj
 0001:0005e552       ___p__fmode                1005f552 f   libucrt:txtmode.obj
 0001:0005e558       __d_int                    1005f558 f   libucrt:_test.obj
 0001:0005e6a0       __dtest                    1005f6a0 f   libucrt:_test.obj
 0001:0005e71d       __fd_int                   1005f71d f   libucrt:_test.obj
 0001:0005e81f       __fdtest                   1005f81f f   libucrt:_test.obj
 0001:0005e880       __fperrraise               1005f880 f   libucrt:_test.obj
 0001:0005e8ab       __ld_int                   1005f8ab f   libucrt:_test.obj
 0001:0005e8b8       __ldtest                   1005f8b8 f   libucrt:_test.obj
 0001:0005e95d       __controlfp_s              1005f95d f   libucrt:contrlfp.obj
 0001:0005e9d3       __d_inttype                1005f9d3 f   libucrt:powhlp.obj
 0001:0005ea57       __powhlp                   1005fa57 f   libucrt:powhlp.obj
 0001:0005ebcc       __87except                 1005fbcc f   libucrt:87except.obj
 0001:0005ed19       __frnd                     1005fd19 f   libucrt:frnd.obj
 0001:0005ed34       _fegetexceptflag           1005fd34 f   libucrt:fegetexceptflag.obj
 0001:0005ed71       _fesetexceptflag           1005fd71 f   libucrt:fesetexceptflag.obj
 0001:0005edd2       _fetestexcept              1005fdd2 f   libucrt:fetestexcept.obj
 0001:0005ee00       __FindPESection            1005fe00 f   LIBCMT:pesect.obj
 0001:0005ee60       __IsNonwritableInCurrentImage 1005fe60 f   LIBCMT:pesect.obj
 0001:0005ef50       __ValidateImageBase        1005ff50 f   LIBCMT:pesect.obj
 0001:0005ef90       __aulldvrm                 1005ff90 f   LIBCMT:ulldvrm.obj
 0001:0005f04a       ??1type_info@@UAE@XZ       1006004a f   LIBCMT:std_type_info_static.obj
 0001:0005f051       ??_Etype_info@@UAEPAXI@Z   10060051 f i LIBCMT:std_type_info_static.obj
 0001:0005f051       ??_Gtype_info@@UAEPAXI@Z   10060051 f i LIBCMT:std_type_info_static.obj
 0001:0005f080       __SEH_prolog4_GS           10060080 f   LIBCMT:_sehprolg4gs_.obj
 0001:0005f0c9       __SEH_epilog4_GS           100600c9 f   LIBCMT:_sehprolg4gs_.obj
 0001:0005f0f0       __allmul                   100600f0 f   LIBCMT:llmul.obj
 0001:0005f140       __alldvrm                  10060140 f   LIBCMT:lldvrm.obj
 0001:0005f260       __aullshr                  10060260 f   LIBCMT:ullshr.obj
 0001:0005f290       __alloca_probe             10060290 f   LIBCMT:chkstk.obj
 0001:0005f290       __chkstk                   10060290 f   LIBCMT:chkstk.obj
 0001:0005f2d0       __alloca_probe_16          100602d0 f   LIBCMT:alloca16.obj
 0001:0005f2e6       __alloca_probe_8           100602e6     LIBCMT:alloca16.obj
 0001:0005f310       __allshl                   10060310 f   LIBCMT:llshl.obj
 0001:0005f340       __ftol2_sse                10060340 f   LIBCMT:_ftol2_.obj
 0001:0005f349       __ftol2_pentium4           10060349 f   LIBCMT:_ftol2_.obj
 0001:0005f35c       __ftol2_sse_excpt          1006035c f   LIBCMT:_ftol2_.obj
 0001:0005f380       __ftol2                    10060380 f   LIBCMT:_ftol2_.obj
 0001:0005f422       __initialize_default_precision 10060422 f   LIBCMT:default_precision.obj
 0001:0005f44b       ??3@YAXPAXI@Z              1006044b f   LIBCMT:delete_scalar_size.obj
 0001:0005f45c       ??3@YAXPAX@Z               1006045c f   LIBCMT:delete_scalar.obj
 0001:0005f462       _InterlockedPushEntrySList@8 10060462 f   kernel32:KERNEL32.dll
 0001:0005f468       _InterlockedFlushSList@4   10060468 f   kernel32:KERNEL32.dll
 0001:0005f46e       _RtlUnwind@16              1006046e f   kernel32:KERNEL32.dll
 0001:0005f474       _GetLastError@0            10060474 f   kernel32:KERNEL32.dll
 0001:0005f47a       _SetLastError@4            1006047a f   kernel32:KERNEL32.dll
 0001:0005f480       _EnterCriticalSection@4    10060480 f   kernel32:KERNEL32.dll
 0001:0005f486       _LeaveCriticalSection@4    10060486 f   kernel32:KERNEL32.dll
 0001:0005f48c       _DeleteCriticalSection@4   1006048c f   kernel32:KERNEL32.dll
 0001:0005f492       _InitializeCriticalSectionAndSpinCount@8 10060492 f   kernel32:KERNEL32.dll
 0001:0005f498       _TlsAlloc@0                10060498 f   kernel32:KERNEL32.dll
 0001:0005f49e       _TlsGetValue@4             1006049e f   kernel32:KERNEL32.dll
 0001:0005f4a4       _TlsSetValue@8             100604a4 f   kernel32:KERNEL32.dll
 0001:0005f4aa       _TlsFree@4                 100604aa f   kernel32:KERNEL32.dll
 0001:0005f4b0       _FreeLibrary@4             100604b0 f   kernel32:KERNEL32.dll
 0001:0005f4b6       _LoadLibraryExW@12         100604b6 f   kernel32:KERNEL32.dll
 0001:0005f4bc       _ExitProcess@4             100604bc f   kernel32:KERNEL32.dll
 0001:0005f4c2       _GetModuleHandleExW@12     100604c2 f   kernel32:KERNEL32.dll
 0001:0005f4c8       _GetStdHandle@4            100604c8 f   kernel32:KERNEL32.dll
 0001:0005f4ce       _GetFileType@4             100604ce f   kernel32:KERNEL32.dll
 0001:0005f4d4       _GetModuleFileNameA@12     100604d4 f   kernel32:KERNEL32.dll
 0001:0005f4da       _GetModuleFileNameW@12     100604da f   kernel32:KERNEL32.dll
 0001:0005f4e0       _WriteConsoleW@20          100604e0 f   kernel32:KERNEL32.dll
 0001:0005f4e6       _RaiseException@16         100604e6 f   kernel32:KERNEL32.dll
 0001:0005f4ec       _MultiByteToWideChar@24    100604ec f   kernel32:KERNEL32.dll
 0001:0005f4f2       _WideCharToMultiByte@32    100604f2 f   kernel32:KERNEL32.dll
 0001:0005f4f8       _HeapFree@12               100604f8 f   kernel32:KERNEL32.dll
 0001:0005f4fe       _HeapAlloc@12              100604fe f   kernel32:KERNEL32.dll
 0001:0005f504       _GetDateFormatW@24         10060504 f   kernel32:KERNEL32.dll
 0001:0005f50a       _GetTimeFormatW@24         1006050a f   kernel32:KERNEL32.dll
 0001:0005f510       _CompareStringW@24         10060510 f   kernel32:KERNEL32.dll
 0001:0005f516       _LCMapStringW@24           10060516 f   kernel32:KERNEL32.dll
 0001:0005f51c       _GetLocaleInfoW@16         1006051c f   kernel32:KERNEL32.dll
 0001:0005f522       _IsValidLocale@8           10060522 f   kernel32:KERNEL32.dll
 0001:0005f528       _GetUserDefaultLCID@0      10060528 f   kernel32:KERNEL32.dll
 0001:0005f52e       _EnumSystemLocalesW@8      1006052e f   kernel32:KERNEL32.dll
 0001:0005f534       _GetCurrentThread@0        10060534 f   kernel32:KERNEL32.dll
 0001:0005f53a       _GetACP@0                  1006053a f   kernel32:KERNEL32.dll
 0001:0005f540       _HeapReAlloc@16            10060540 f   kernel32:KERNEL32.dll
 0001:0005f546       _CloseHandle@4             10060546 f   kernel32:KERNEL32.dll
 0001:0005f54c       _ReadFile@20               1006054c f   kernel32:KERNEL32.dll
 0001:0005f552       _GetConsoleMode@8          10060552 f   kernel32:KERNEL32.dll
 0001:0005f558       _ReadConsoleW@20           10060558 f   kernel32:KERNEL32.dll
 0001:0005f55e       _WriteFile@20              1006055e f   kernel32:KERNEL32.dll
 0001:0005f564       _GetConsoleCP@0            10060564 f   kernel32:KERNEL32.dll
 0001:0005f56a       _DeleteFileW@4             1006056a f   kernel32:KERNEL32.dll
 0001:0005f570       _SetFilePointerEx@20       10060570 f   kernel32:KERNEL32.dll
 0001:0005f576       _OutputDebugStringA@4      10060576 f   kernel32:KERNEL32.dll
 0001:0005f57c       _OutputDebugStringW@4      1006057c f   kernel32:KERNEL32.dll
 0001:0005f582       _WaitForSingleObjectEx@12  10060582 f   kernel32:KERNEL32.dll
 0001:0005f588       _CreateThread@24           10060588 f   kernel32:KERNEL32.dll
 0001:0005f58e       _SetConsoleCtrlHandler@8   1006058e f   kernel32:KERNEL32.dll
 0001:0005f594       _FindClose@4               10060594 f   kernel32:KERNEL32.dll
 0001:0005f59a       _FindFirstFileExA@24       1006059a f   kernel32:KERNEL32.dll
 0001:0005f5a0       _FindFirstFileExW@24       100605a0 f   kernel32:KERNEL32.dll
 0001:0005f5a6       _FindNextFileA@8           100605a6 f   kernel32:KERNEL32.dll
 0001:0005f5ac       _FindNextFileW@8           100605ac f   kernel32:KERNEL32.dll
 0001:0005f5b2       _IsValidCodePage@4         100605b2 f   kernel32:KERNEL32.dll
 0001:0005f5b8       _GetOEMCP@0                100605b8 f   kernel32:KERNEL32.dll
 0001:0005f5be       _GetCPInfo@8               100605be f   kernel32:KERNEL32.dll
 0001:0005f5c4       _GetCommandLineA@0         100605c4 f   kernel32:KERNEL32.dll
 0001:0005f5ca       _GetCommandLineW@0         100605ca f   kernel32:KERNEL32.dll
 0001:0005f5d0       _GetEnvironmentStringsW@0  100605d0 f   kernel32:KERNEL32.dll
 0001:0005f5d6       _FreeEnvironmentStringsW@4 100605d6 f   kernel32:KERNEL32.dll
 0001:0005f5dc       _SetEnvironmentVariableA@8 100605dc f   kernel32:KERNEL32.dll
 0001:0005f5e2       _SetEnvironmentVariableW@8 100605e2 f   kernel32:KERNEL32.dll
 0001:0005f5e8       _GetProcessHeap@0          100605e8 f   kernel32:KERNEL32.dll
 0001:0005f5ee       _GetStringTypeW@16         100605ee f   kernel32:KERNEL32.dll
 0001:0005f5f4       _FlushFileBuffers@4        100605f4 f   kernel32:KERNEL32.dll
 0001:0005f5fa       _SetStdHandle@8            100605fa f   kernel32:KERNEL32.dll
 0001:0005f600       _CreateFileW@28            10060600 f   kernel32:KERNEL32.dll
 0001:0005f606       _HeapSize@12               10060606 f   kernel32:KERNEL32.dll
 0001:0005f60c       _SetEndOfFile@4            1006060c f   kernel32:KERNEL32.dll
 0001:0005f612       _EncodePointer@4           10060612 f   kernel32:KERNEL32.dll
 0001:0005f618       _DecodePointer@4           10060618 f   kernel32:KERNEL32.dll
 0001:0005f620       _strrchr                   10060620 f   libvcruntime:strrchr.obj
 0001:0005f907       _memcmp                    10060907 f   libvcruntime:_memcmp_.obj
 0001:000633ef       _wcschr                    100643ef f   libvcruntime:wcschr.obj
 0002:00000000       ___xc_a                    10065000     LIBCMT:initializers.obj
 0002:00000104       ___xc_z                    10065104     LIBCMT:initializers.obj
 0002:00000208       ___xi_a                    10065208     LIBCMT:initializers.obj
 0002:0000030c       ___acrt_stdio_initializer  1006530c     libucrt:stdio_initializer.obj
 0002:00000310       ___acrt_multibyte_initializer 10065310     libucrt:multibyte_initializer.obj
 0002:00000314       ___acrt_tran_sse2_initializer 10065314     libucrt:sse2_initializer.obj
 0002:0000041c       ___xi_z                    1006541c     LIBCMT:initializers.obj
 0002:00000520       ___xp_a                    10065520     LIBCMT:initializers.obj
 0002:00000624       ___acrt_locale_terminator  10065624     libucrt:locale_initializer.obj
 0002:00000628       ___dcrt_console_output_terminator 10065628     libucrt:console_output_initializer.obj
 0002:00000730       ___acrt_stdio_terminator   10065730     libucrt:stdio_initializer.obj
 0002:00000834       ___xp_z                    10065834     LIBCMT:initializers.obj
 0002:00000938       ___xt_a                    10065938     LIBCMT:initializers.obj
 0002:00000a3c       ___xt_z                    10065a3c     LIBCMT:initializers.obj
 0002:00000b40       ??_C@_08INHBMDAJ@Setpoint?$AA@ 10065b40     proj3.obj
 0002:00000b4c       ??_C@_0N@HEKJLKAN@Error?5Signal?$AA@ 10065b4c     proj3.obj
 0002:00000b5c       ??_C@_0P@HGGDJAMI@Motor?5Position?$AA@ 10065b5c     proj3.obj
 0002:00000b70       ??_C@_0BD@MHFOBIJC@proj3?1setpoint_Out?$AA@ 10065b70     proj3.obj
 0002:00000b88       ??_C@_0BG@EAOPOPIE@proj3?1errorSignal_Out?$AA@ 10065b88     proj3.obj
 0002:00000ba4       ??_C@_0BD@MJFCFGIA@proj3?1motorPos_Out?$AA@ 10065ba4     proj3.obj
 0002:00000bc0       _proj3_M                   10065bc0     proj3.obj
 0002:00000c3c       ??_C@_0BI@PEBACBDB@Error?5creating?5scope?53?6?$AA@ 10065c3c     proj3.obj
 0002:00000c58       ??_C@_07PFAGFFFO@Gain?1s1?$AA@ 10065c58     proj3.obj
 0002:00000c64       ??_C@_07NOCLAGJN@Gain?1s2?$AA@ 10065c64     proj3.obj
 0002:00000c70       ??_C@_07MHDADHNM@Gain?1s3?$AA@ 10065c70     proj3.obj
 0002:00000c7c       ??_C@_0BG@HCGNMBDA@Setpoint?5?5?5?5?5?5?5?5?$CF3?42f?$AA@ 10065c7c     proj3.obj
 0002:00000c98       ??_C@_0BG@KBNMBNLJ@Motor?5Position?5?5?$CF3?42f?$AA@ 10065c98     proj3.obj
 0002:00000cb4       ??_C@_0BG@OKNLFNOK@Error?5Signal?5?5?5?5?$CF3?42f?$AA@ 10065cb4     proj3.obj
 0002:00000cd0       ??_C@_0BI@PFNCELAG@Error?5creating?5scope?52?6?$AA@ 10065cd0     proj3.obj
 0002:00000cec       ??_C@_04JMNNLCJG@Sum1?$AA@ 10065cec     proj3.obj
 0002:00000cf4       ??_C@_0BI@PDBJIJON@Error?5creating?5scope?57?6?$AA@ 10065cf4     proj3.obj
 0002:00000d10       ??_C@_0BF@IJDKOOBM@switching?5logic?1Sum2?$AA@ 10065d10     proj3.obj
 0002:00000d2c       ??_C@_0BI@PHJEPFFP@Error?5creating?5scope?51?6?$AA@ 10065d2c     proj3.obj
 0002:00000d48       ??_C@_04CNCNIFFP@gain?$AA@ 10065d48     proj3.obj
 0002:00000d50       ??_C@_04CMIMOENB@ode3?$AA@ 10065d50     proj3.obj
 0002:00000d58       ??_C@_04EPKDLPPB@tout?$AA@ 10065d58     proj3.obj
 0002:00000d5e       ??_C@_00CNPNBAHC@?$AA@     10065d5e     proj3.obj
 0002:00000d60       ??_C@_03HBFGMJOD@rt_?$AA@  10065d60     proj3.obj
 0002:00000d64       ??_C@_04LHDDHLEA@yout?$AA@ 10065d64     proj3.obj
 0002:00000d6c       ??_C@_0BO@FGDALDHL@Channel?50?5of?5?6Encoder?5Inputs?5?$AA@ 10065d6c     proj3.obj
 0002:00000d90       ??_C@_0CP@OFBFDMEM@proj3?1Real?5motor?1Channel?50?5of?5?5E@ 10065d90     proj3.obj
 0002:00000dc8       ??_C@_0DH@LFMGCAGH@Channel?50?5?9Control?5signal?5to?5?6mo@ 10065dc8     proj3.obj
 0002:00000e10       ??_C@_0EI@IKHHAHJI@proj3?1Real?5motor?1Channel?50?5?9Cont@ 10065e10     proj3.obj
 0002:00000e68       __real@3f50624dd2f1a9fc    10065e68     proj3.obj
 0002:00000e78       __real@3fcc71c71c71c71c    10065e78     proj3.obj
 0002:00000e88       __real@3fd5555555555555    10065e88     proj3.obj
 0002:00000e98       __real@3fdc71c71c71c71c    10065e98     proj3.obj
 0002:00000ea8       __real@3fe0000000000000    10065ea8     proj3.obj
 0002:00000eb8       __real@3fe8000000000000    10065eb8     proj3.obj
 0002:00000ec8       __real@4008000000000000    10065ec8     proj3.obj
 0002:00000ed8       __real@4024000000000000    10065ed8     proj3.obj
 0002:00000ee8       __real@4065400000000000    10065ee8     proj3.obj
 0002:00000ef8       __real@4066800000000000    10065ef8     proj3.obj
 0002:00000f08       __real@4069000000000000    10065f08     proj3.obj
 0002:00000f18       __real@407f400000000000    10065f18     proj3.obj
 0002:00000f28       __real@41f0000000000000    10065f28     proj3.obj
 0002:00000f38       __real@bff0000000000000    10065f38     proj3.obj
 0002:00000f48       __real@c066800000000000    10065f48     proj3.obj
 0002:00000f60       __xmm@000000530000001f0000002800000002 10065f60     proj3.obj
 0002:00000f80       __xmm@3f50624dd2f1a9fc0000000000000000 10065f80     proj3.obj
 0002:00000fa0       __xmm@41f00000000000000000000000000000 10065fa0     proj3.obj
 0002:00000fb8       __real@3cb0000000000000    10065fb8     rt_matrx.obj
 0002:00000fc8       __real@3ff0000000000000    10065fc8     rt_matrx.obj
 0002:00001838       ??_C@_0DJ@FHKINPLE@Unexpected?5itemKind?5?$DN?5DATA_ITEM?5@ 10066838     rt_logging.obj
 0002:0000187c       ??_C@_0DA@IEHFPFCJ@Unexpected?5itemKind?$DN?$CFd?5in?5rt_Pro@ 1006687c     rt_logging.obj
 0002:000018b8       ??_C@_0DA@IFLHJPBO@Unexpected?5itemKind?$DN?$CFd?5in?5rt_Pro@ 100668b8     rt_logging.obj
 0002:000018f4       ??_C@_0DA@IAPIIJJL@Unexpected?5itemKind?$DN?$CFd?5in?5rt_Pro@ 100668f4     rt_logging.obj
 0002:00001930       ??_C@_0BE@LCIGPJIG@MATLAB?55?40?5MAT?9file?$AA@ 10066930     rt_logging.obj
 0002:00001948       ??_C@_0FB@PCJEAJIB@?$CK?$CK?$CK?5Log?5variable?5?$CFs?5has?5wrapped?5@ 10066948     rt_logging.obj
 0002:000019b0       ??_C@_0MG@NKMLMOGF@?$CK?$CK?$CK?5To?5avoid?5wrapping?0?5explicitl@ 100669b0     rt_logging.obj
 0002:00001aa0       ??_C@_0N@IPAEOLLP@_rtw_tmw?4tmw?$AA@ 10066aa0     rt_logging.obj
 0002:00001ab0       ??_C@_04HDOCAJNK@?$CFs?$CFs?$AA@ 10066ab0     rt_logging.obj
 0002:00001ab8       ??_C@_03ELIABIOC@w?$CLb?$AA@ 10066ab8     rt_logging.obj
 0002:00001abc       ??_C@_0BF@JPILDDFA@?$CK?$CK?$CK?5Error?5opening?5?$CFs?$AA@ 10066abc     rt_logging.obj
 0002:00001ad8       ??_C@_0BK@EEMDELA@unable?5to?5open?5data?5file?6?$AA@ 10066ad8     rt_logging.obj
 0002:00001af8       ??_C@_04CGFJFPFD@none?$AA@ 10066af8     rt_logging.obj
 0002:00001b00       ??_C@_0EE@LCGFPNON@?$CK?$CK?$CK?5Error?5creating?5signals?5struc@ 10066b00     rt_logging.obj
 0002:00001b54       ??_C@_0CE@NHECEDMK@?$CK?$CK?$CK?5Error?5creating?5log?5variable?5@ 10066b54     rt_logging.obj
 0002:00001b80       ??_C@_0DB@IOCGKAGH@?$CK?$CK?$CK?5Errors?5occurred?5when?5startin@ 10066b80     rt_logging.obj
 0002:00001bbc       ??_C@_0BO@BBLOGEBK@?$CK?$CK?$CK?5Memory?5allocation?5error?4?6?$AA@ 10066bbc     rt_logging.obj
 0002:00001be0       ??_C@_0N@LGFBAGEL@?5?$CIreal?5part?$CJ?$AA@ 10066be0     rt_logging.obj
 0002:00001bf0       ??_C@_0KH@CGNMHNFE@?5?5?5?5varName?5?5?5?5?5?5?5?5?5?5?$DN?5?$CFs?$CFs?6?5?5?5?5@ 10066bf0     rt_logging.obj
 0002:00001cb8       ??_C@_0LE@OALKKEFM@?5?5?5?5varName?5?5?5?5?5?5?5?5?5?5?$DN?5?$CFs?5?$CIcompl@ 10066cb8     rt_logging.obj
 0002:00001d90       ??_C@_0KF@JDDLEOKO@?5?5?5?5varName?5?5?5?5?5?5?5?5?5?5?$DN?5?$CFs?6?5?5?5?5nR@ 10066d90     rt_logging.obj
 0002:00001e58       ??_C@_0DP@HPDMIOFM@?$CK?$CK?$CK?5Using?5a?5default?5buffer?5of?5si@ 10066e58     rt_logging.obj
 0002:00001ea8       ??_C@_0KE@JEFOLKNF@?6?$CK?$CK?$CK?5Memory?5required?5to?5log?5vari@ 10066ea8     rt_logging.obj
 0002:00001f70       ??_C@_0JP@DKLMHCBI@?$CK?$CK?$CK?5Details?3?6?5?5?5?5?5?5?5varName?5?5?5?5?5@ 10066f70     rt_logging.obj
 0002:00002030       ??_C@_0CM@CAMILBED@?$CK?$CK?$CK?5Error?5allocating?5memory?5for?5@ 10067030     rt_logging.obj
 0002:00002064       ??_C@_0DF@BBCNMOPM@?$CK?$CK?$CK?5Error?5allocating?5memory?5for?5@ 10067064     rt_logging.obj
 0002:000020a8       ??_C@_0JP@DBCLPCCI@?$CK?$CK?$CK?5Details?3?6?5?5?5?5?5?5?5varName?5?5?5?5?5@ 100670a8     rt_logging.obj
 0002:00002168       ??_C@_0FK@DPGAOBGA@?$CK?$CK?$CK?5Error?5allocating?5memory?5for?5@ 10067168     rt_logging.obj
 0002:000021d4       ??_C@_0BI@GGDNPHLJ@?$CK?$CK?$CK?5Error?5writing?5to?5?$CFs?$AA@ 100671d4     rt_logging.obj
 0002:000021f0       ??_C@_0CB@IBGJGELG@?$CK?$CK?$CK?5Error?5writing?5?$CFs?5due?5to?3?5?$CFs?6@ 100671f0     rt_logging.obj
 0002:00002218       ??_C@_0CN@FLMCHCPB@?$CK?$CK?$CK?5Error?5writing?5log?5variable?5?$CF@ 10067218     rt_logging.obj
 0002:00002250       ??_C@_0DH@GAJCNOJP@?$CK?$CK?$CK?5Error?5writing?5structure?5log?5@ 10067250     rt_logging.obj
 0002:00002294       ??_C@_0BD@POEALECL@?$CK?$CK?5created?5?$CFs?5?$CK?$CK?6?6?$AA@ 10067294     rt_logging.obj
 0002:000022b0       __real@0000000000000000    100672b0     rt_logging.obj
 0002:000022c0       __real@4020000000000000    100672c0     rt_logging.obj
 0002:000022d0       __real@41dfffffffc00000    100672d0     rt_logging.obj
 0002:000022e0       __real@41efffffffe00000    100672e0     rt_logging.obj
 0002:000022f0       __real@4330000000000000    100672f0     rt_logging.obj
 0002:00002300       __real@8000000000000000    10067300     rt_logging.obj
 0002:00002310       __real@bfbf9add3afd2773    10067310     rt_logging.obj
 0002:00002320       __real@c000000000000000    10067320     rt_logging.obj
 0002:00002330       __xmm@20202020202020202020202020202020 10067330     rt_logging.obj
 0002:00002c40       ??_C@_0CL@DBFIMAMP@1?5?9?5Use?5simulated?5motor?50?5?9?5Use?5@ 10067c40     proj3_capi.obj
 0002:00002c74       ??_C@_0M@BBMKJJKL@Derivative1?$AA@ 10067c74     proj3_capi.obj
 0002:00002c84       ??_C@_04OMOMKKFL@Gain?$AA@ 10067c84     proj3_capi.obj
 0002:00002c8c       ??_C@_02HNOAOKGP@Kd?$AA@   10067c8c     proj3_capi.obj
 0002:00002c90       ??_C@_02MIEOJECC@Ki?$AA@   10067c90     proj3_capi.obj
 0002:00002c94       ??_C@_02FDEODNDK@Kp?$AA@   10067c94     proj3_capi.obj
 0002:00002c98       ??_C@_0M@FOFKEGEP@Integrator1?$AA@ 10067c98     proj3_capi.obj
 0002:00002ca8       ??_C@_04OBKKEGND@Sum4?$AA@ 10067ca8     proj3_capi.obj
 0002:00002cb0       ??_C@_0EN@BAAEGADN@Real?5motor?1angular_position?5?$DN?5?5?$FL@ 10067cb0     proj3_capi.obj
 0002:00002d0c       ??_C@_0BG@IEJBBPNL@Real?5motor?1Saturation?$AA@ 10067d0c     proj3_capi.obj
 0002:00002d28       ??_C@_0CJ@GBFCCONM@Real?5motor?1Channel?50?5of?5?5Encoder@ 10067d28     proj3_capi.obj
 0002:00002d5c       ??_C@_0BN@JFKEALAE@Simulated?5motor?1Back?5emf?5Ke1?$AA@ 10067d5c     proj3_capi.obj
 0002:00002d80       ??_C@_0BL@JFAIANOE@Simulated?5motor?1Damping?5b1?$AA@ 10067d80     proj3_capi.obj
 0002:00002da0       ??_C@_0BJ@JADIAMI@Simulated?5motor?1Gain?5Kt2?$AA@ 10067da0     proj3_capi.obj
 0002:00002dc0       ??_C@_0BJ@BABILBIJ@Simulated?5motor?1Gain?5Kt3?$AA@ 10067dc0     proj3_capi.obj
 0002:00002de0       ??_C@_0BL@GGHHPFCL@Simulated?5motor?1Inductance?$AA@ 10067de0     proj3_capi.obj
 0002:00002e00       ??_C@_0BO@KPGEGBOH@Simulated?5motor?1Resistance?5R1?$AA@ 10067e00     proj3_capi.obj
 0002:00002e24       ??_C@_0BM@HPJMPEDA@Simulated?5motor?1Integrator1?$AA@ 10067e24     proj3_capi.obj
 0002:00002e48       ??_C@_0BM@BLPADBDE@Simulated?5motor?1Integrator5?$AA@ 10067e48     proj3_capi.obj
 0002:00002e6c       ??_C@_0BM@DANNGCPH@Simulated?5motor?1Integrator6?$AA@ 10067e6c     proj3_capi.obj
 0002:00002e90       ??_C@_0BF@MILJHLKE@Simulated?5motor?1Sum1?$AA@ 10067e90     proj3_capi.obj
 0002:00002eac       ??_C@_0BF@ODJECIGH@Simulated?5motor?1Sum2?$AA@ 10067eac     proj3_capi.obj
 0002:00002ec8       ??_C@_0DA@JPBADGKG@input?5side?5switching?5logic?1compl@ 10067ec8     proj3_capi.obj
 0002:00002f04       ??_C@_0CD@MBHAIBOH@input?5side?5switching?5logic?1Produ@ 10067f04     proj3_capi.obj
 0002:00002f30       ??_C@_0CE@PIPCAAOI@input?5side?5switching?5logic?1Produ@ 10067f30     proj3_capi.obj
 0002:00002f5c       ??_C@_0CG@LEACHJAL@switching?5logic?1complement?5the?5i@ 10067f5c     proj3_capi.obj
 0002:00002f8c       ??_C@_0BJ@NAFHJMMA@switching?5logic?1Product2?$AA@ 10067f8c     proj3_capi.obj
 0002:00002fac       ??_C@_0BJ@MJEMKNIB@switching?5logic?1Product3?$AA@ 10067fac     proj3_capi.obj
 0002:00002fcc       ??_C@_05LPIJGKJ@Value?$AA@ 10067fcc     proj3_capi.obj
 0002:00002fd4       ??_C@_05LEOPCKHL@myVar?$AA@ 10067fd4     proj3_capi.obj
 0002:00002fdc       ??_C@_0BB@CFEOEMDC@InitialCondition?$AA@ 10067fdc     proj3_capi.obj
 0002:00002ff0       ??_C@_0L@FBCGKKEN@UpperLimit?$AA@ 10067ff0     proj3_capi.obj
 0002:00003000       ??_C@_0L@DGFJOHKP@LowerLimit?$AA@ 10068000     proj3_capi.obj
 0002:00003010       ??_C@_0EC@LJCFPBCG@Real?5motor?1Channel?50?5?9Control?5si@ 10068010     proj3_capi.obj
 0002:00003060       ??_C@_02KKFPAPOP@P1?$AA@   10068060     proj3_capi.obj
 0002:00003064       ??_C@_02IBHCFMCM@P2?$AA@   10068064     proj3_capi.obj
 0002:00003068       ??_C@_02JIGJGNGN@P3?$AA@   10068068     proj3_capi.obj
 0002:0000306c       ??_C@_02NHCIPLKK@P4?$AA@   1006806c     proj3_capi.obj
 0002:00003070       ??_C@_02MODDMKOL@P5?$AA@   10068070     proj3_capi.obj
 0002:00003074       ??_C@_02OFBOJJCI@P6?$AA@   10068074     proj3_capi.obj
 0002:00003078       ??_C@_02PMAFKIGJ@P7?$AA@   10068078     proj3_capi.obj
 0002:0000307c       ??_C@_02HLJNLEKG@P8?$AA@   1006807c     proj3_capi.obj
 0002:00003080       ??_C@_02GCIGIFOH@P9?$AA@   10068080     proj3_capi.obj
 0002:00003084       ??_C@_03OPFJJGBF@P10?$AA@  10068084     proj3_capi.obj
 0002:00003088       ??_C@_03PGECKHFE@P11?$AA@  10068088     proj3_capi.obj
 0002:0000308c       ??_C@_03NNGPPEJH@P12?$AA@  1006808c     proj3_capi.obj
 0002:00003090       ??_C@_06BNJCAIGJ@double?$AA@ 10068090     proj3_capi.obj
 0002:00003098       ??_C@_06CNMIJIPB@real_T?$AA@ 10068098     proj3_capi.obj
 0002:000030a0       ??_C@_0O@PPAIJIHF@unsigned?5char?$AA@ 100680a0     proj3_capi.obj
 0002:000030b0       ??_C@_09JBMFCIMO@boolean_T?$AA@ 100680b0     proj3_capi.obj
 0002:000030bc       ??_C@_05KNFBNCOH@float?$AA@ 100680bc     proj3_capi.obj
 0002:000030c4       ??_C@_0DL@PGGFBBLM@Error?3?5task?5ID?5?$CFd?5is?5out?5of?5rang@ 100680c4     proj3_xcp_TET.obj
 0002:00003110       __real@3e112e0be826d695    10068110     proj3_xcp_TET.obj
 0002:00003120       __real@3f847ae147ae147b    10068120     proj3_xcp_TET.obj
 0002:00003130       __real@3fefae147ae147ae    10068130     proj3_xcp_TET.obj
 0002:0000313c       _serialfifoground          1006813c     xpc_datatype_ground.obj
 0002:00003148       _bcmsg1553ground           10068148     xpc_datatype_ground.obj
 0002:00003158       _bcstatground              10068158     xpc_datatype_ground.obj
 0002:00003170       _bmmsg1553ground           10068170     xpc_datatype_ground.obj
 0002:000031ac       ??_C@_0BI@INNPNFJN@Memory?5Allocation?5Error?$AA@ 100681ac     rtw_modelmap_utils.obj
 0002:000031c8       ??_C@_1HC@FPPMHEFB@?$AAC?$AA?3?$AA?2?$AAP?$AAR?$AAO?$AAG?$AAR?$AAA?$AA?$HO?$AA1?$AA?2?$AAM?$AAA?$AAT?$AAL?$AAA?$AAB?$AA?2?$AAR?$AA2?$AA0?$AA1?$AA7?$AAb?$AA?2?$AAr?$AAt?$AAw?$AA?2?$AAc?$AA?2@ 100681c8     rtw_modelmap_utils.obj
 0002:00003250       ??_C@_1CI@OEAJCJND@?$AAj?$AA?5?$AA?$DN?$AA?$DN?$AA?5?$AAe?$AAn?$AAc?$AAo?$AAd?$AAe?$AAd?$AAP?$AAa?$AAt?$AAh?$AAL?$AAe?$AAn?$AA?$AA@ 10068250     rtw_modelmap_utils.obj
 0002:00003280       ??_C@_1DC@NFAOIFKB@?$AAe?$AAn?$AAc?$AAo?$AAd?$AAe?$AAd?$AAP?$AAa?$AAt?$AAh?$AA?$FL?$AAj?$AA?9?$AA1?$AA?$FN?$AA?5?$AA?$DN?$AA?$DN?$AA?5?$AA?8?$AA?2?$AA0?$AA?8?$AA?$AA@ 10068280     rtw_modelmap_utils.obj
 0002:000032bc       ??_C@_1DI@FLNJGPEE@?$AAs?$AAi?$AAg?$AAC?$AAo?$AAm?$AAp?$AAl?$AAe?$AAx?$AAi?$AAt?$AAy?$AA?$FL?$AA?$CK?$AAs?$AAi?$AAg?$AAI?$AAd?$AAx?$AA?$FN?$AA?5?$AA?$CB?$AA?$DN?$AA?5?$AA1?$AA?$AA@ 100682bc     rtw_modelmap_utils.obj
 0002:00003300       ??_C@_1KI@OFELMGBG@?$AA?$CI?$AA?$CI?$AA?$CI?$AAd?$AAa?$AAt?$AAa?$AAT?$AAy?$AAp?$AAe?$AAM?$AAa?$AAp?$AA?$CJ?$AA?$FL?$AA?$CI?$AA?$CI?$AA?$CI?$AAs?$AAt?$AAa?$AAt?$AAe?$AAs?$AA?$CJ?$AA?$FL?$AA?$CI?$AAi?$AA?$CJ?$AA?$FN?$AA?4@ 10068300     rtw_modelmap_utils.obj
 0002:000033cc       ??_C@_1DA@ILCMPHNE@?$AAf?$AAu?$AAl?$AAl?$AAP?$AAa?$AAt?$AAh?$AA?5?$AA?$CB?$AA?$DN?$AA?5?$AA?$CI?$AA?$CI?$AAv?$AAo?$AAi?$AAd?$AA?5?$AA?$CK?$AA?$CJ?$AA0?$AA?$CJ?$AA?$AA@ 100683cc     rtw_modelmap_utils.obj
 0002:00003408       ??_C@_1CI@OEPPFCCA@?$AAp?$AAa?$AAt?$AAh?$AA?5?$AA?$CB?$AA?$DN?$AA?5?$AA?$CI?$AA?$CI?$AAv?$AAo?$AAi?$AAd?$AA?5?$AA?$CK?$AA?$CJ?$AA0?$AA?$CJ?$AA?$AA@ 10068408     rtw_modelmap_utils.obj
 0002:00003438       ??_C@_1FK@GLJIMFHB@?$AA?$CI?$AA?$CI?$AAm?$AAm?$AAi?$AA?$CJ?$AA?9?$AA?$DO?$AAI?$AAn?$AAs?$AAt?$AAa?$AAn?$AAc?$AAe?$AAM?$AAa?$AAp?$AA?4?$AAf?$AAu?$AAl?$AAl?$AAP?$AAa?$AAt?$AAh?$AA?$CJ?$AA?5?$AA?$DN?$AA?$DN@ 10068438     rtw_modelmap_utils.obj
 0002:000034a4       ??_C@_1DG@HPCJGNCE@?$AAm?$AAm?$AAi?$AAP?$AAa?$AAt?$AAh?$AA?$FL?$AAp?$AAa?$AAt?$AAh?$AAL?$AAe?$AAn?$AA?9?$AA1?$AA?$FN?$AA?5?$AA?$DN?$AA?$DN?$AA?5?$AA?8?$AA?2?$AA0?$AA?8?$AA?$AA@ 100684a4     rtw_modelmap_utils.obj
 0002:000034e4       ??_C@_1DM@DBAOGGOO@?$AAm?$AAm?$AAi?$AAP?$AAa?$AAt?$AAh?$AA?$FL?$AAm?$AAm?$AAi?$AAP?$AAa?$AAt?$AAh?$AAL?$AAe?$AAn?$AA?9?$AA1?$AA?$FN?$AA?5?$AA?$DN?$AA?$DN?$AA?5?$AA?8?$AA?2?$AA0?$AA?8?$AA?$AA@ 100684e4     rtw_modelmap_utils.obj
 0002:0000352c       ??_C@_1DC@LHIAKAFE@?$AAb?$AAl?$AAo?$AAc?$AAk?$AAP?$AAa?$AAt?$AAh?$AA?5?$AA?$CB?$AA?$DN?$AA?5?$AA?$CI?$AA?$CI?$AAv?$AAo?$AAi?$AAd?$AA?5?$AA?$CK?$AA?$CJ?$AA0?$AA?$CJ?$AA?$AA@ 1006852c     rtw_modelmap_utils.obj
 0002:00003568       ??_C@_1GI@KIEJKPGC@?$AAf?$AAu?$AAl?$AAl?$AAS?$AAt?$AAa?$AAt?$AAe?$AAB?$AAl?$AAo?$AAc?$AAk?$AAP?$AAa?$AAt?$AAh?$AA?$FL?$AAf?$AAu?$AAl?$AAl?$AAS?$AAt?$AAa?$AAt?$AAe?$AAB?$AAl?$AAo?$AAc@ 10068568     rtw_modelmap_utils.obj
 0002:000035e8       ??_C@_1EE@DNPIBJHC@?$AA?$CI?$AA?$CI?$AAd?$AAi?$AAm?$AAM?$AAa?$AAp?$AA?$CJ?$AA?$FL?$AA?$CI?$AAm?$AAa?$AAp?$AAI?$AAd?$AAx?$AA?$CJ?$AA?$FN?$AA?4?$AAn?$AAu?$AAm?$AAD?$AAi?$AAm?$AAs?$AA?$CJ?$AA?5?$AA?$DN?$AA?$DN?$AA?5@ 100685e8     rtw_modelmap_utils.obj
 0002:0000363c       ??_C@_06JFOKFOED@CSTATE?$AA@ 1006863c     rtw_modelmap_utils.obj
 0002:00003644       ??_C@_06FAENGAMN@DSTATE?$AA@ 10068644     rtw_modelmap_utils.obj
 0002:0000364c       ??_C@_1BI@LEBJNOGG@?$AAc?$AAs?$AAv?$AAI?$AAd?$AAx?$AA?5?$AA?$DO?$AA?$DN?$AA?5?$AA0?$AA?$AA@ 1006864c     rtw_modelmap_utils.obj
 0002:00003668       ??_C@_1BA@KDMGHCHP@?$AAT?$AAI?$AAD?$AA?$DN?$AA?$DN?$AA?9?$AA1?$AA?$AA@ 10068668     rtw_modelmap_utils.obj
 0002:0000367c       ??_C@_1DM@DHGKBPCE@?$AAs?$AAi?$AAg?$AAP?$AAa?$AAt?$AAh?$AA?$FL?$AAs?$AAi?$AAg?$AAP?$AAa?$AAt?$AAh?$AAL?$AAe?$AAn?$AA?9?$AA1?$AA?$FN?$AA?5?$AA?$DN?$AA?$DN?$AA?5?$AA?8?$AA?2?$AA0?$AA?8?$AA?$AA@ 1006867c     rtw_modelmap_utils.obj
 0002:000036c4       _ptsetfilename             100686c4     xpctarget.obj
 0002:000036c8       _xmlfile                   100686c8     xpctarget.obj
 0002:000036d0       ??_C@_05BEGDCMKB@proj3?$AA@ 100686d0     xpctarget.obj
 0002:000036d8       ??_C@_03KJCPEMEA@6?47?$AA@ 100686d8     xpctarget.obj
 0002:000036e0       __real@3fb999999999999a    100686e0     xpctarget.obj
 0002:000036f0       __real@408f400000000000    100686f0     xpctarget.obj
 0002:00003700       _proj3_BIOMAP              10068700     appmappingData.obj
 0002:00003880       _proj3_LBLMAP              10068880     appmappingData.obj
 0002:00003a00       _proj3_SIDMAP              10068a00     appmappingData.obj
 0002:00003b80       _proj3_SBIO                10068b80     appmappingData.obj
 0002:00003c00       _proj3_SLBL                10068c00     appmappingData.obj
 0002:00003c80       _proj3_PTIDSMAP            10068c80     appmappingData.obj
 0002:00003dd0       _proj3_PTNAMESMAP          10068dd0     appmappingData.obj
 0002:00003f20       _proj3_SPTMAP              10068f20     appmappingData.obj
 0002:00003fc8       _proj3_dtmap               10068fc8     appmappingData.obj
 0002:00003fe0       _appInfo                   10068fe0     appmappingData.obj
 0002:00004204       ??_C@_0CC@FIFFDAB@?$CFd?5input?5args?5expected?0?5?$CFd?5passe@ 10069204     daquanserq8.obj
 0002:0000422c       ??_C@_0L@GPCJJFPH@Quanser?5Q8?$AA@ 1006922c     daquanserq8.obj
 0002:0000423c       ??_C@_0L@MDJMNKPL@Quanser?5Q4?$AA@ 1006923c     daquanserq8.obj
 0002:0000424c       ??_C@_0BI@IHCNPKCM@No?5?$CFs?5at?5bus?5?$CFd?5slot?5?$CFd?$AA@ 1006924c     daquanserq8.obj
 0002:00004268       ??_C@_0BK@DJPPGIA@Bad?5channel?5in?5?$CFs?5D?1A?3?5?$CFn?$AA@ 10069268     daquanserq8.obj
 0002:00004288       ??_C@_0BI@OLGKMIEO@Bad?5range?5in?5?$CFs?5D?1A?3?5?$CFd?$AA@ 10069288     daquanserq8.obj
 0002:000042a8       __real@4014000000000000    100692a8     daquanserq8.obj
 0002:000042b8       __real@406999999999999a    100692b8     daquanserq8.obj
 0002:000042c8       __real@407999999999999a    100692c8     daquanserq8.obj
 0002:000042d4       ??_C@_0BL@NBOIGMKP@Q8?1Q4?5encoder?5error?5?$CFx?5?$CFx?6?$AA@ 100692d4     encquanserq8.obj
 0002:000042f4       ??_C@_0BK@EBKJELMI@maxfunc?5?$DN?5?$CFd?5at?5?$FL?$CFd?0?5?$CFd?$FN?6?$AA@ 100692f4     xpcruntime:xpcimports.obj
 0002:00004314       ??_C@_0CC@DMFKNLL@VendorId?5?$DN?50x?$CFx?0?5DeviceId?5?$DN?50x?$CFx@ 10069314     xpcruntime:xpcimports.obj
 0002:0000433c       ??_C@_0DH@OHCBLNMG@Subsystem?5Device?5ID?5?$DN?50x?$CFx?6Subsy@ 1006933c     xpcruntime:xpcimports.obj
 0002:00004380       ??_C@_0BD@MMMMEFCM@Class?5Code?5?$DN?50x?$CFx?6?$AA@ 10069380     xpcruntime:xpcimports.obj
 0002:00004398       ??_C@_0BE@OLDDDNHM@InterruptLine?5?$DN?5?$CFd?6?$AA@ 10069398     xpcruntime:xpcimports.obj
 0002:000043b0       ??_C@_0CE@IBMFFAPN@bus?5?$DN?5?$CFd?0?5slot?5?$DN?5?$CFd?0?5function?5?$DN?5@ 100693b0     xpcruntime:xpcimports.obj
 0002:000043dc       ??_C@_0CE@DGLLGDFH@?5?5?5?5Phys?5?5?5Virtual?5?5?5Length?5IO?1M@ 100693dc     xpcruntime:xpcimports.obj
 0002:00004408       ??_C@_0BI@FEOPLEMG@?$CF08x?5?$CF08x?5?$CF08x?5?5?5?5?5?5?$CFc?6?$AA@ 10069408     xpcruntime:xpcimports.obj
 0002:00004424       ??_C@_0BB@BNNCEDPC@rl32eScopeExists?$AA@ 10069424     xpcruntime:xpcimports.obj
 0002:00004438       ??_C@_0BM@FJBFEGFG@rl32eScopeExists?5not?5found?6?$AA@ 10069438     xpcruntime:xpcimports.obj
 0002:0000445c       ??_C@_0O@BNNGKJEA@rl32eDefScope?$AA@ 1006945c     xpcruntime:xpcimports.obj
 0002:0000446c       ??_C@_0BJ@CDNOENKA@rl32eDefScope?5not?5found?6?$AA@ 1006946c     xpcruntime:xpcimports.obj
 0002:0000448c       ??_C@_0P@CKNKILDP@rl32eAddSignal?$AA@ 1006948c     xpcruntime:xpcimports.obj
 0002:000044a0       ??_C@_0BK@GMJAJBAI@rl32eAddSignal?5not?5found?6?$AA@ 100694a0     xpcruntime:xpcimports.obj
 0002:000044c0       ??_C@_0BB@LDMIHGCE@rl32eGetSignalNo?$AA@ 100694c0     xpcruntime:xpcimports.obj
 0002:000044d4       ??_C@_0BM@LGAMBAID@rl32eGetSignalNo?5not?5found?6?$AA@ 100694d4     xpcruntime:xpcimports.obj
 0002:000044f8       ??_C@_0O@CFDGALBP@rl32eSetScope?$AA@ 100694f8     xpcruntime:xpcimports.obj
 0002:00004508       ??_C@_0BJ@JCLHHIN@rl32eSetScope?5not?5found?6?$AA@ 10069508     xpcruntime:xpcimports.obj
 0002:00004528       ??_C@_0P@IKMCBMHH@xpceFSScopeSet?$AA@ 10069528     xpcruntime:xpcimports.obj
 0002:0000453c       ??_C@_0BK@JODJPNNH@xpceFSScopeSet?5not?5found?6?$AA@ 1006953c     xpcruntime:xpcimports.obj
 0002:0000455c       ??_C@_0BE@DLACEEJM@rl32eSetTargetScope?$AA@ 1006955c     xpcruntime:xpcimports.obj
 0002:00004574       ??_C@_0BP@JCHFMKPJ@rl32eSetTargetScope?5not?5found?6?$AA@ 10069574     xpcruntime:xpcimports.obj
 0002:0000459c       ??_C@_0BJ@LIDLNDHC@rl32eSetTargetScopeSigFt?$AA@ 1006959c     xpcruntime:xpcimports.obj
 0002:000045bc       ??_C@_0CE@JLGHCFHI@rl32eSetTargetScopeSigFt?5not?5fou@ 100695bc     xpcruntime:xpcimports.obj
 0002:000045e8       ??_C@_0BI@JAPOIDNG@rl32eRestartAcquisition?$AA@ 100695e8     xpcruntime:xpcimports.obj
 0002:00004604       ??_C@_0CD@LLBEFFBO@rl32eRestartAcquisition?5not?5foun@ 10069604     xpcruntime:xpcimports.obj
 0002:00004630       ??_C@_0P@IEIIADJB@xpceScopeAcqOK?$AA@ 10069630     xpcruntime:xpcimports.obj
 0002:00004644       ??_C@_0BK@NJCKNFPN@xpceScopeAcqOK?5not?5found?6?$AA@ 10069644     xpcruntime:xpcimports.obj
 0002:00004664       ??_C@_0BA@IJINKAHF@xpceRegisterISR?$AA@ 10069664     xpcruntime:xpcimports.obj
 0002:00004678       ??_C@_0BL@NNDLOEJE@xpceRegisterISR?5not?5found?6?$AA@ 10069678     xpcruntime:xpcimports.obj
 0002:00004698       ??_C@_0BC@NLBADGKF@xpceDeRegisterISR?$AA@ 10069698     xpcruntime:xpcimports.obj
 0002:000046b0       ??_C@_0BN@DCAIKFFD@xpceDeRegisterISR?5not?5found?6?$AA@ 100696b0     xpcruntime:xpcimports.obj
 0002:000046d4       ??_C@_07JPMEPILD@xpcInpB?$AA@ 100696d4     xpcruntime:xpcimports.obj
 0002:000046e0       ??_C@_0BD@PGABEJOL@xpcInpB?5not?5found?6?$AA@ 100696e0     xpcruntime:xpcimports.obj
 0002:000046f8       ??_C@_07KIHBBOKH@xpcInpW?$AA@ 100696f8     xpcruntime:xpcimports.obj
 0002:00004704       ??_C@_0BD@FPCJFMCC@xpcInpW?5not?5found?6?$AA@ 10069704     xpcruntime:xpcimports.obj
 0002:0000471c       ??_C@_08KDIAJBOP@xpcInpDW?$AA@ 1006971c     xpcruntime:xpcimports.obj
 0002:00004728       ??_C@_0BE@PIELDNIL@xpcInpDW?5not?5found?6?$AA@ 10069728     xpcruntime:xpcimports.obj
 0002:00004740       ??_C@_08PJFMOIGO@xpcOutpB?$AA@ 10069740     xpcruntime:xpcimports.obj
 0002:0000474c       ??_C@_0BE@HCKNCEKF@xpcOutpB?5not?5found?6?$AA@ 1006974c     xpcruntime:xpcimports.obj
 0002:00004764       ??_C@_08MOOJAOHK@xpcOutpW?$AA@ 10069764     xpcruntime:xpcimports.obj
 0002:00004770       ??_C@_0BE@NLIFDBGM@xpcOutpW?5not?5found?6?$AA@ 10069770     xpcruntime:xpcimports.obj
 0002:00004788       ??_C@_09FLIEKHJG@xpcOutpDW?$AA@ 10069788     xpcruntime:xpcimports.obj
 0002:00004794       ??_C@_0BF@GJKLPNHB@xpcOutpDW?5not?5found?6?$AA@ 10069794     xpcruntime:xpcimports.obj
 0002:000047b0       ??_C@_0BH@EHOLELHH@xpcReserveMemoryRegion?$AA@ 100697b0     xpcruntime:xpcimports.obj
 0002:000047cc       ??_C@_0CC@KAAAGPI@xpcReserveMemoryRegion?5not?5found@ 100697cc     xpcruntime:xpcimports.obj
 0002:000047f4       ??_C@_0BA@JGPMHGAF@rl32eShowPCIDev?$AA@ 100697f4     xpcruntime:xpcimports.obj
 0002:00004808       ??_C@_0BL@DDFFLNHI@rl32eShowPCIDev?5not?5found?6?$AA@ 10069808     xpcruntime:xpcimports.obj
 0002:00004828       ??_C@_0BB@KBCOJPFB@rl32eShowPCIInfo?$AA@ 10069828     xpcruntime:xpcimports.obj
 0002:0000483c       ??_C@_0BM@IFDMAGLO@rl32eShowPCIInfo?5not?5found?6?$AA@ 1006983c     xpcruntime:xpcimports.obj
 0002:00004860       ??_C@_0BA@BGPAADB@rl32eGetPCIInfo?$AA@ 10069860     xpcruntime:xpcimports.obj
 0002:00004874       ??_C@_0BL@IGOMLDCK@rl32eGetPCIInfo?5not?5found?6?$AA@ 10069874     xpcruntime:xpcimports.obj
 0002:00004894       ??_C@_0BG@NJPFKFDP@rl32eGetPCIInfoAtSlot?$AA@ 10069894     xpcruntime:xpcimports.obj
 0002:000048b0       ??_C@_0CB@BBKIPMLA@rl32eGetPCIInfoAtSlot?5not?5found?6@ 100698b0     xpcruntime:xpcimports.obj
 0002:000048d8       ??_C@_0BH@OKBOPNFG@xpceAssignPCIInterrupt?$AA@ 100698d8     xpcruntime:xpcimports.obj
 0002:000048f4       ??_C@_0CC@CDNDNJBJ@xpceAssignPCIInterrupt?5not?5found@ 100698f4     xpcruntime:xpcimports.obj
 0002:0000491c       ??_C@_0BD@PCKOKHO@xpceGetSignalValue?$AA@ 1006991c     xpcruntime:xpcimports.obj
 0002:00004934       ??_C@_0BO@GCBDJHMB@xpceGetSignalValue?5not?5found?6?$AA@ 10069934     xpcruntime:xpcimports.obj
 0002:00004958       ??_C@_0BB@BJONJAGA@xpceSetParameter?$AA@ 10069958     xpcruntime:xpcimports.obj
 0002:0000496c       ??_C@_0BM@BJIKDLHA@xpceSetParameter?5not?5found?6?$AA@ 1006996c     xpcruntime:xpcimports.obj
 0002:00004990       ??_C@_0BB@GNFDFMCM@xpceGetParameter?$AA@ 10069990     xpcruntime:xpcimports.obj
 0002:000049a4       ??_C@_0BM@POHNKBC@xpceGetParameter?5not?5found?6?$AA@ 100699a4     xpcruntime:xpcimports.obj
 0002:000049c8       ??_C@_0BB@CEIJLFCD@xpceGetParamDims?$AA@ 100699c8     xpcruntime:xpcimports.obj
 0002:000049dc       ??_C@_0BM@OABDBKAO@xpceGetParamDims?5not?5found?6?$AA@ 100699dc     xpcruntime:xpcimports.obj
 0002:00004a00       ??_C@_0L@OCBLLHBM@xpceGetTET?$AA@ 10069a00     xpcruntime:xpcimports.obj
 0002:00004a10       ??_C@_0BG@HNOFBOB@xpceGetTET?5not?5found?6?$AA@ 10069a10     xpcruntime:xpcimports.obj
 0002:00004a2c       ??_C@_0P@OKGNGAGH@xpcIsModelInit?$AA@ 10069a2c     xpcruntime:xpcimports.obj
 0002:00004a40       ??_C@_0BK@DHEMLBIM@xpcIsModelInit?5not?5found?6?$AA@ 10069a40     xpcruntime:xpcimports.obj
 0002:00004a60       ??_C@_0BH@KJJLCAOJ@xpcAllocPhysicalMemory?$AA@ 10069a60     xpcruntime:xpcimports.obj
 0002:00004a7c       ??_C@_0CC@MOJPNHKL@xpcAllocPhysicalMemory?5not?5found@ 10069a7c     xpcruntime:xpcimports.obj
 0002:00004aa4       ??_C@_0BG@CBNPGAEL@xpcFreePhysicalMemory?$AA@ 10069aa4     xpcruntime:xpcimports.obj
 0002:00004ac0       ??_C@_0CB@PKJEBPOG@xpcFreePhysicalMemory?5not?5found?6@ 10069ac0     xpcruntime:xpcimports.obj
 0002:00004ae8       ??_C@_0BC@JGKNLICL@xpcGetElapsedTime?$AA@ 10069ae8     xpcruntime:xpcimports.obj
 0002:00004b00       ??_C@_0BN@OEOAHCIO@xpcGetElapsedTime?5not?5found?6?$AA@ 10069b00     xpcruntime:xpcimports.obj
 0002:00004b24       ??_C@_0M@ICBLMODA@xpcBusyWait?$AA@ 10069b24     xpcruntime:xpcimports.obj
 0002:00004b34       ??_C@_0BH@FBOPECBI@xpcBusyWait?5not?5found?6?$AA@ 10069b34     xpcruntime:xpcimports.obj
 0002:00004b50       ??_C@_0N@LKKJEKKA@TBCreateSpin?$AA@ 10069b50     xpcruntime:xpcimports.obj
 0002:00004b60       ??_C@_0BI@FHKMLKOE@TBCreateSpin?5not?5found?6?$AA@ 10069b60     xpcruntime:xpcimports.obj
 0002:00004b7c       ??_C@_0N@HOAJHNBD@TBDeleteSpin?$AA@ 10069b7c     xpcruntime:xpcimports.obj
 0002:00004b8c       ??_C@_0BI@BKCPAAG@TBDeleteSpin?5not?5found?6?$AA@ 10069b8c     xpcruntime:xpcimports.obj
 0002:00004ba8       ??_C@_0P@DAHDDBJG@TBTakeSpinFast?$AA@ 10069ba8     xpcruntime:xpcimports.obj
 0002:00004bbc       ??_C@_0BK@NKAIBHGB@TBTakeSpinFast?5not?5found?6?$AA@ 10069bbc     xpcruntime:xpcimports.obj
 0002:00004bdc       ??_C@_0P@FKNAAELA@TBGiveSpinFast?$AA@ 10069bdc     xpcruntime:xpcimports.obj
 0002:00004bf0       ??_C@_0BK@KGPJBJND@TBGiveSpinFast?5not?5found?6?$AA@ 10069bf0     xpcruntime:xpcimports.obj
 0002:00004c10       ??_C@_0BE@IIGBFDHK@xpceCreateSemaphore?$AA@ 10069c10     xpcruntime:xpcimports.obj
 0002:00004c28       ??_C@_0BP@KFBAFFKJ@xpceCreateSemaphore?5not?5found?6?$AA@ 10069c28     xpcruntime:xpcimports.obj
 0002:00004c50       ??_C@_0BC@IFNIONKJ@xpceWaitSemaphore?$AA@ 10069c50     xpcruntime:xpcimports.obj
 0002:00004c68       ??_C@_0BN@NMFAADIO@xpceWaitSemaphore?5not?5found?6?$AA@ 10069c68     xpcruntime:xpcimports.obj
 0002:00004c8c       ??_C@_0BE@NNDIOBKE@xpceSignalSemaphore?$AA@ 10069c8c     xpcruntime:xpcimports.obj
 0002:00004ca4       ??_C@_0BP@LBANMHJP@xpceSignalSemaphore?5not?5found?6?$AA@ 10069ca4     xpcruntime:xpcimports.obj
 0002:00004ccc       ??_C@_0BE@MEBEKOIM@xpceDeleteSemaphore?$AA@ 10069ccc     xpcruntime:xpcimports.obj
 0002:00004ce4       ??_C@_0BP@OFNCKOJH@xpceDeleteSemaphore?5not?5found?6?$AA@ 10069ce4     xpcruntime:xpcimports.obj
 0002:00004d0c       ??_C@_0BD@MFNDMBOF@FindUsbVideoDevice?$AA@ 10069d0c     xpcruntime:xpcimports.obj
 0002:00004d24       ??_C@_0BO@POKLDHMI@FindUsbVideoDevice?5not?5found?6?$AA@ 10069d24     xpcruntime:xpcimports.obj
 0002:00004d48       ??_C@_0BA@PLPAPNAB@GetVideoConfigs?$AA@ 10069d48     xpcruntime:xpcimports.obj
 0002:00004d5c       ??_C@_0BL@DALDHKHC@GetVideoConfigs?5not?5found?6?$AA@ 10069d5c     xpcruntime:xpcimports.obj
 0002:00004d7c       ??_C@_0L@GBAEMHMH@StartVideo?$AA@ 10069d7c     xpcruntime:xpcimports.obj
 0002:00004d8c       ??_C@_0BG@HDCELEBP@StartVideo?5not?5found?6?$AA@ 10069d8c     xpcruntime:xpcimports.obj
 0002:00004da8       ??_C@_0BA@FDNPOCLN@ReadFrameBuffer?$AA@ 10069da8     xpcruntime:xpcimports.obj
 0002:00004dbc       ??_C@_0BL@JHGHPNBI@ReadFrameBuffer?5not?5found?6?$AA@ 10069dbc     xpcruntime:xpcimports.obj
 0002:00004ddc       ??_C@_09FAHCLKAG@StopVideo?$AA@ 10069ddc     xpcruntime:xpcimports.obj
 0002:00004de8       ??_C@_0BF@NKGKKADL@StopVideo?5not?5found?6?$AA@ 10069de8     xpcruntime:xpcimports.obj
 0002:00004e04       ??_C@_0O@MCPKDLLL@ConvertUImage?$AA@ 10069e04     xpcruntime:xpcimports.obj
 0002:00004e14       ??_C@_0BJ@PHJKOAFL@ConvertUImage?5not?5found?6?$AA@ 10069e14     xpcruntime:xpcimports.obj
 0002:00004e34       ??_C@_0BD@NKCBPBJJ@CreateVideoDisplay?$AA@ 10069e34     xpcruntime:xpcimports.obj
 0002:00004e4c       ??_C@_0BO@HPPLLNFP@CreateVideoDisplay?5not?5found?6?$AA@ 10069e4c     xpcruntime:xpcimports.obj
 0002:00004e70       ??_C@_0BE@KJCKGPHA@DestroyVideoDisplay?$AA@ 10069e70     xpcruntime:xpcimports.obj
 0002:00004e88       ??_C@_0BP@FMGLJAIJ@DestroyVideoDisplay?5not?5found?6?$AA@ 10069e88     xpcruntime:xpcimports.obj
 0002:00004eb0       ??_C@_0BC@HCMIMIDN@StartVideoDisplay?$AA@ 10069eb0     xpcruntime:xpcimports.obj
 0002:00004ec8       ??_C@_0BN@EFIEBGOO@StartVideoDisplay?5not?5found?6?$AA@ 10069ec8     xpcruntime:xpcimports.obj
 0002:00004eec       ??_C@_0BB@JBBLMILG@StopVideoDisplay?$AA@ 10069eec     xpcruntime:xpcimports.obj
 0002:00004f00       ??_C@_0BM@DBJBPLEL@StopVideoDisplay?5not?5found?6?$AA@ 10069f00     xpcruntime:xpcimports.obj
 0002:00004f24       ??_C@_0M@MFJEGMHC@StreamVideo?$AA@ 10069f24     xpcruntime:xpcimports.obj
 0002:00004f34       ??_C@_0BH@OINCDMLA@StreamVideo?5not?5found?6?$AA@ 10069f34     xpcruntime:xpcimports.obj
 0002:00004f50       ??_C@_0N@IGGLCIGE@xpceaddEvent?$AA@ 10069f50     xpcruntime:xpcimports.obj
 0002:00004f60       ??_C@_0BI@NHJNFMKH@xpceaddEvent?5not?5found?6?$AA@ 10069f60     xpcruntime:xpcimports.obj
 0002:00004f7c       ??_C@_0BC@MLJODBHJ@slrtStartProfiler?$AA@ 10069f7c     xpcruntime:xpcimports.obj
 0002:00004f94       ??_C@_0BN@HLNCOKA@slrtStartProfiler?5not?5found?6?$AA@ 10069f94     xpcruntime:xpcimports.obj
 0002:00004fb8       ??_C@_0BB@ONJONMCD@slrtStopProfiler?$AA@ 10069fb8     xpcruntime:xpcimports.obj
 0002:00004fcc       ??_C@_0BM@GAKJEGBA@slrtStopProfiler?5not?5found?6?$AA@ 10069fcc     xpcruntime:xpcimports.obj
 0002:00004ff0       ??_C@_0BF@EILBHBBF@slrtGetProfilerState?$AA@ 10069ff0     xpcruntime:xpcimports.obj
 0002:0000500c       ??_C@_0CA@EDDFOCLE@slrtGetProfilerState?5not?5found?6?$AA@ 1006a00c     xpcruntime:xpcimports.obj
 0002:00005034       ??_C@_0BB@HDPOIJAB@xpceDAQPostEvent?$AA@ 1006a034     xpcruntime:xpcimports.obj
 0002:00005048       ??_C@_0BM@IHANBKGN@xpceDAQPostEvent?5not?5found?6?$AA@ 1006a048     xpcruntime:xpcimports.obj
 0002:0000506c       ??_C@_0BH@MBACMOD@xpceDAQUpdateTimeStamp?$AA@ 1006a06c     xpcruntime:xpcimports.obj
 0002:00005088       ??_C@_0CC@DAKBBINL@xpceDAQUpdateTimeStamp?5not?5found@ 1006a088     xpcruntime:xpcimports.obj
 0002:000050b0       ??_C@_0BG@CCHICKPN@slrteSetStepSizeDelta?$AA@ 1006a0b0     xpcruntime:xpcimports.obj
 0002:000050cc       ??_C@_0CB@MKHINEIJ@slrteSetStepSizeDelta?5not?5found?6@ 1006a0cc     xpcruntime:xpcimports.obj
 0002:000050f4       ??_C@_0BI@CLNBLDKJ@slrteGetCurrentStepSize?$AA@ 1006a0f4     xpcruntime:xpcimports.obj
 0002:00005110       ??_C@_0CD@GIOJPGJA@slrteGetCurrentStepSize?5not?5foun@ 1006a110     xpcruntime:xpcimports.obj
 0002:0000513c       ??_C@_0BE@FCLCBOC@registerPTPTimeRead?$AA@ 1006a13c     xpcruntime:xpcimports.obj
 0002:00005154       ??_C@_0BP@LHPKAJIP@registerPTPTimeRead?5not?5found?6?$AA@ 1006a154     xpcruntime:xpcimports.obj
 0002:0000517c       ??_C@_0BG@KIGCDDJI@unRegisterPTPTimeRead?$AA@ 1006a17c     xpcruntime:xpcimports.obj
 0002:00005198       ??_C@_0CB@MLFFBFCM@unRegisterPTPTimeRead?5not?5found?6@ 1006a198     xpcruntime:xpcimports.obj
 0002:000051c0       ??_C@_0BB@IPMDDBHK@slTestInitialize?$AA@ 1006a1c0     xpcruntime:xpcimports.obj
 0002:000051d4       ??_C@_0BM@LAJFCCJH@slTestInitialize?5not?5found?6?$AA@ 1006a1d4     xpcruntime:xpcimports.obj
 0002:000051f8       ??_C@_0BF@OOMPMEBC@slTestLogAssessments?$AA@ 1006a1f8     xpcruntime:xpcimports.obj
 0002:00005214       ??_C@_0CA@FGJCEBAG@slTestLogAssessments?5not?5found?6?$AA@ 1006a214     xpcruntime:xpcimports.obj
 0002:0000523c       ??_C@_0BB@HJHKONHO@slTestEvalOnFail?$AA@ 1006a23c     xpcruntime:xpcimports.obj
 0002:00005250       ??_C@_0BM@JIKCFFNJ@slTestEvalOnFail?5not?5found?6?$AA@ 1006a250     xpcruntime:xpcimports.obj
 0002:00005274       ??_C@_0BA@LBHLABFP@slTestTerminate?$AA@ 1006a274     xpcruntime:xpcimports.obj
 0002:00005288       ??_C@_0BL@EMFGKAPA@slTestTerminate?5not?5found?6?$AA@ 1006a288     xpcruntime:xpcimports.obj
 0002:000052a8       ??_C@_0BE@JPNPBBEO@slTestRegAssessment?$AA@ 1006a2a8     xpcruntime:xpcimports.obj
 0002:000052c0       ??_C@_0BP@FBDEJJJH@slTestRegAssessment?5not?5found?6?$AA@ 1006a2c0     xpcruntime:xpcimports.obj
 0002:000052e8       ??_C@_0O@NCLGDNIB@slrteSetupMSI?$AA@ 1006a2e8     xpcruntime:xpcimports.obj
 0002:000052f8       ??_C@_0BJ@HEFMECLM@slrteSetupMSI?5not?5found?6?$AA@ 1006a2f8     xpcruntime:xpcimports.obj
 0002:00005318       ??_C@_0BH@BPOLALHD@slrtGetCRBScratchSpace?$AA@ 1006a318     xpcruntime:xpcimports.obj
 0002:00005334       ??_C@_0CC@KCKAJKKJ@slrtGetCRBScratchSpace?5not?5found@ 1006a334     xpcruntime:xpcimports.obj
 0002:0000535c       ??_C@_0BC@MKFDAKOL@slrtGetSgCRBSpace?$AA@ 1006a35c     xpcruntime:xpcimports.obj
 0002:00005374       ??_C@_0BN@JDPHPLHL@slrtGetSgCRBSpace?5not?5found?6?$AA@ 1006a374     xpcruntime:xpcimports.obj
 0002:00005398       ??_C@_0P@EPAPKLIF@slrtfsOpenFile?$AA@ 1006a398     xpcruntime:xpcimports.obj
 0002:000053ac       ??_C@_0BK@FIHCBOHG@slrtfsOpenFile?5not?5found?6?$AA@ 1006a3ac     xpcruntime:xpcimports.obj
 0002:000053cc       ??_C@_0BA@LILAFDDL@slrtfsCloseFile?$AA@ 1006a3cc     xpcruntime:xpcimports.obj
 0002:000053e0       ??_C@_0BL@DEGHJFIB@slrtfsCloseFile?5not?5found?6?$AA@ 1006a3e0     xpcruntime:xpcimports.obj
 0002:00005400       ??_C@_0BC@OKMJDIEH@slrtfsWriteToFile?$AA@ 1006a400     xpcruntime:xpcimports.obj
 0002:00005418       ??_C@_0BN@KCFLCLAH@slrtfsWriteToFile?5not?5found?6?$AA@ 1006a418     xpcruntime:xpcimports.obj
 0002:0000543c       ??_C@_0BK@GIPNFFFF@slrtfsGetFileErrorMessage?$AA@ 1006a43c     xpcruntime:xpcimports.obj
 0002:0000545c       ??_C@_0CF@BCBLMKLE@slrtfsGetFileErrorMessage?5not?5fo@ 1006a45c     xpcruntime:xpcimports.obj
 0002:00005488       ??_C@_0BD@ICBOKMK@slrtfsGetFileError?$AA@ 1006a488     xpcruntime:xpcimports.obj
 0002:000054a0       ??_C@_0BO@FNBANAE@slrtfsGetFileError?5not?5found?6?$AA@ 1006a4a0     xpcruntime:xpcimports.obj
 0002:000054c4       ??_C@_0BE@PPAJMHJP@slrtfsOpenFileAsync?$AA@ 1006a4c4     xpcruntime:xpcimports.obj
 0002:000054dc       ??_C@_0BP@HKBMMJOK@slrtfsOpenFileAsync?5not?5found?6?$AA@ 1006a4dc     xpcruntime:xpcimports.obj
 0002:00005504       ??_C@_0BF@IGNDIBPF@slrtfsCloseFileAsync?$AA@ 1006a504     xpcruntime:xpcimports.obj
 0002:00005520       ??_C@_0CA@GJPFDBKN@slrtfsCloseFileAsync?5not?5found?6?$AA@ 1006a520     xpcruntime:xpcimports.obj
 0002:00005548       ??_C@_0BE@IOLEBNB@slrtfsGetFileStatus?$AA@ 1006a548     xpcruntime:xpcimports.obj
 0002:00005560       ??_C@_0BP@PEFHDGHL@slrtfsGetFileStatus?5not?5found?6?$AA@ 1006a560     xpcruntime:xpcimports.obj
 0002:00005588       ??_C@_0M@HKIJIMG@slrtfsFread?$AA@ 1006a588     xpcruntime:xpcimports.obj
 0002:00005598       ??_C@_0BH@OOKBGONO@slrtfsFread?5not?5found?6?$AA@ 1006a598     xpcruntime:xpcimports.obj
 0002:000055b4       ??_C@_0BE@OGCMPLAP@slrtGetDefaultDrive?$AA@ 1006a5b4     xpcruntime:xpcimports.obj
 0002:000055cc       ??_C@_0BP@HKFGLHOE@slrtGetDefaultDrive?5not?5found?6?$AA@ 1006a5cc     xpcruntime:xpcimports.obj
 0002:000055f4       ??_C@_0N@NAJIKFFI@slrtLogEvent?$AA@ 1006a5f4     xpcruntime:xpcimports.obj
 0002:00005604       ??_C@_0BI@NKCEACND@slrtLogEvent?5not?5found?6?$AA@ 1006a604     xpcruntime:xpcimports.obj
 0002:00005620       ??_C@_0N@IDKFJOHI@getlasterror?$AA@ 1006a620     xpcruntime:xpcimports.obj
 0002:00005630       ??_C@_0BI@MIHMCHGL@getlasterror?5not?5found?6?$AA@ 1006a630     xpcruntime:xpcimports.obj
 0002:0000564c       ??_C@_0P@OKHGKJKN@geterrorstring?$AA@ 1006a64c     xpcruntime:xpcimports.obj
 0002:00005660       ??_C@_0BK@NOHFDMLP@geterrorstring?5not?5found?6?$AA@ 1006a660     xpcruntime:xpcimports.obj
 0002:00005680       ??_C@_0BD@HNFFKMGJ@slrtGetCPUTCelsius?$AA@ 1006a680     xpcruntime:xpcimports.obj
 0002:00005698       ??_C@_0BO@LHBFKLIH@slrtGetCPUTCelsius?5not?5found?6?$AA@ 1006a698     xpcruntime:xpcimports.obj
 0002:000056bc       ??_C@_0M@OONCNCLM@slrtWarning?$AA@ 1006a6bc     xpcruntime:xpcimports.obj
 0002:000056cc       ??_C@_0BH@ICKGIEMB@slrtWarning?5not?5found?6?$AA@ 1006a6cc     xpcruntime:xpcimports.obj
 0002:000056e8       ??_C@_0M@JACEPOPN@registerNIC?$AA@ 1006a6e8     xpcruntime:xpcimports.obj
 0002:000056f8       ??_C@_0BH@JMDHJIAC@registerNIC?5not?5found?6?$AA@ 1006a6f8     xpcruntime:xpcimports.obj
 0002:00005714       ??_C@_0M@KBKHECFH@NICSetIface?$AA@ 1006a714     xpcruntime:xpcimports.obj
 0002:00005724       ??_C@_0BH@NJAHOBA@NICSetIface?5not?5found?6?$AA@ 1006a724     xpcruntime:xpcimports.obj
 0002:00005740       ??_C@_0M@FAILFBCK@NICGetIface?$AA@ 1006a740     xpcruntime:xpcimports.obj
 0002:00005750       ??_C@_0BH@KDLLDOGM@NICGetIface?5not?5found?6?$AA@ 1006a750     xpcruntime:xpcimports.obj
 0002:0000576c       ??_C@_0L@JNFPDPO@releaseNIC?$AA@ 1006a76c     xpcruntime:xpcimports.obj
 0002:0000577c       ??_C@_0BG@EBGJANLA@releaseNIC?5not?5found?6?$AA@ 1006a77c     xpcruntime:xpcimports.obj
 0002:00005798       ??_C@_0BC@HLDKJAG@SetIPTASKPriority?$AA@ 1006a798     xpcruntime:xpcimports.obj
 0002:000057b0       ??_C@_0BN@OGKMHHAE@SetIPTASKPriority?5not?5found?6?$AA@ 1006a7b0     xpcruntime:xpcimports.obj
 0002:000057d4       ??_C@_0O@LHENMBDD@OpenInterface?$AA@ 1006a7d4     xpcruntime:xpcimports.obj
 0002:000057e4       ??_C@_0BJ@PFGDBKHB@OpenInterface?5not?5found?6?$AA@ 1006a7e4     xpcruntime:xpcimports.obj
 0002:00005804       ??_C@_0P@IINFELKD@CloseInterface?$AA@ 1006a804     xpcruntime:xpcimports.obj
 0002:00005818       ??_C@_0BK@PAPDNDBK@CloseInterface?5not?5found?6?$AA@ 1006a818     xpcruntime:xpcimports.obj
 0002:00005838       ??_C@_05LEFIAAOI@SetIP?$AA@ 1006a838     xpcruntime:xpcimports.obj
 0002:00005840       ??_C@_0BB@CGLIBAMM@SetIP?5not?5found?6?$AA@ 1006a840     xpcruntime:xpcimports.obj
 0002:00005854       ??_C@_0BA@HIJJHHMD@AddGatewayRoute?$AA@ 1006a854     xpcruntime:xpcimports.obj
 0002:00005868       ??_C@_0BL@BFCFMDMN@AddGatewayRoute?5not?5found?6?$AA@ 1006a868     xpcruntime:xpcimports.obj
 0002:00005888       ??_C@_0M@PHMABFPI@DeleteRoute?$AA@ 1006a888     xpcruntime:xpcimports.obj
 0002:00005898       ??_C@_0BH@JPJGLLID@DeleteRoute?5not?5found?6?$AA@ 1006a898     xpcruntime:xpcimports.obj
 0002:000058b4       ??_C@_0BA@FCDIMKIJ@GetHostTarIPAdd?$AA@ 1006a8b4     xpcruntime:xpcimports.obj
 0002:000058c8       ??_C@_0BL@MBKDGKBO@GetHostTarIPAdd?5not?5found?6?$AA@ 1006a8c8     xpcruntime:xpcimports.obj
 0002:000058e8       ??_C@_0M@HPMIPIBI@GetDCUUsage?$AA@ 1006a8e8     xpcruntime:xpcimports.obj
 0002:000058f8       ??_C@_0BH@EBLJKCJC@GetDCUUsage?5not?5found?6?$AA@ 1006a8f8     xpcruntime:xpcimports.obj
 0002:00005914       ??_C@_06MPKMECK@accept?$AA@ 1006a914     xpcruntime:xpcimports.obj
 0002:0000591c       ??_C@_0BC@GBGIEMNO@accept?5not?5found?6?$AA@ 1006a91c     xpcruntime:xpcimports.obj
 0002:00005934       ??_C@_04NPNJNMMP@bind?$AA@ 1006a934     xpcruntime:xpcimports.obj
 0002:0000593c       ??_C@_0BA@DAJNENLO@bind?5not?5found?6?$AA@ 1006a93c     xpcruntime:xpcimports.obj
 0002:00005950       ??_C@_0L@CKHNIFCM@setsockopt?$AA@ 1006a950     xpcruntime:xpcimports.obj
 0002:00005960       ??_C@_0BG@MFIIOMFE@setsockopt?5not?5found?6?$AA@ 1006a960     xpcruntime:xpcimports.obj
 0002:0000597c       ??_C@_0M@ODDJDCDK@closesocket?$AA@ 1006a97c     xpcruntime:xpcimports.obj
 0002:0000598c       ??_C@_0BH@JHGHMIL@closesocket?5not?5found?6?$AA@ 1006a98c     xpcruntime:xpcimports.obj
 0002:000059a8       ??_C@_07KAIBNCHO@connect?$AA@ 1006a9a8     xpcruntime:xpcimports.obj
 0002:000059b4       ??_C@_0BD@MKLLMBM@connect?5not?5found?6?$AA@ 1006a9b4     xpcruntime:xpcimports.obj
 0002:000059cc       ??_C@_0M@PBPOCKDG@ioctlsocket?$AA@ 1006a9cc     xpcruntime:xpcimports.obj
 0002:000059dc       ??_C@_0BH@NFCNHHIH@ioctlsocket?5not?5found?6?$AA@ 1006a9dc     xpcruntime:xpcimports.obj
 0002:000059f8       ??_C@_06OODDLKLE@listen?$AA@ 1006a9f8     xpcruntime:xpcimports.obj
 0002:00005a00       ??_C@_0BC@NHBILEKI@listen?5not?5found?6?$AA@ 1006aa00     xpcruntime:xpcimports.obj
 0002:00005a18       ??_C@_08HMBBGFHE@recvfrom?$AA@ 1006aa18     xpcruntime:xpcimports.obj
 0002:00005a24       ??_C@_0BE@BJAJFFLF@recvfrom?5not?5found?6?$AA@ 1006aa24     xpcruntime:xpcimports.obj
 0002:00005a3c       ??_C@_06MEPBGKEC@sendto?$AA@ 1006aa3c     xpcruntime:xpcimports.obj
 0002:00005a44       ??_C@_0BC@BHPIMDJO@sendto?5not?5found?6?$AA@ 1006aa44     xpcruntime:xpcimports.obj
 0002:00005a5c       ??_C@_09JKBDEEOB@inet_addr?$AA@ 1006aa5c     xpcruntime:xpcimports.obj
 0002:00005a68       ??_C@_0BF@HKJPGECN@inet_addr?5not?5found?6?$AA@ 1006aa68     xpcruntime:xpcimports.obj
 0002:00005a84       ??_C@_06HBELJPBO@socket?$AA@ 1006aa84     xpcruntime:xpcimports.obj
 0002:00005a8c       ??_C@_0BC@NAGFFJGA@socket?5not?5found?6?$AA@ 1006aa8c     xpcruntime:xpcimports.obj
 0002:00005aa4       ??_C@_09ICJIFGNC@GetSocket?$AA@ 1006aaa4     xpcruntime:xpcimports.obj
 0002:00005ab0       ??_C@_0BF@KDBCKMOJ@GetSocket?5not?5found?6?$AA@ 1006aab0     xpcruntime:xpcimports.obj
 0002:00005acc       ??_C@_0P@KJEGJMJI@GetSocketState?$AA@ 1006aacc     xpcruntime:xpcimports.obj
 0002:00005ae0       ??_C@_0BK@IALBJHEB@GetSocketState?5not?5found?6?$AA@ 1006aae0     xpcruntime:xpcimports.obj
 0002:00005b00       ??_C@_0L@MEAJHNHB@SocketSend?$AA@ 1006ab00     xpcruntime:xpcimports.obj
 0002:00005b10       ??_C@_0BG@EOCMBFJA@SocketSend?5not?5found?6?$AA@ 1006ab10     xpcruntime:xpcimports.obj
 0002:00005b2c       ??_C@_0O@PFPCLEMF@SocketReceive?$AA@ 1006ab2c     xpcruntime:xpcimports.obj
 0002:00005b3c       ??_C@_0BJ@HIBADDFO@SocketReceive?5not?5found?6?$AA@ 1006ab3c     xpcruntime:xpcimports.obj
 0002:00005b5c       ??_C@_0BD@OOGFNAIK@CreateServerSocket?$AA@ 1006ab5c     xpcruntime:xpcimports.obj
 0002:00005b74       ??_C@_0BO@GKIJHIPH@CreateServerSocket?5not?5found?6?$AA@ 1006ab74     xpcruntime:xpcimports.obj
 0002:00005b98       ??_C@_0BB@KGHJGFFO@OpenServerListen?$AA@ 1006ab98     xpcruntime:xpcimports.obj
 0002:00005bac       ??_C@_0BM@NFMMLIO@OpenServerListen?5not?5found?6?$AA@ 1006abac     xpcruntime:xpcimports.obj
 0002:00005bd0       ??_C@_0BE@BAJLDJAH@ConnectServerSocket?$AA@ 1006abd0     xpcruntime:xpcimports.obj
 0002:00005be8       ??_C@_0BP@KJNODIKE@ConnectServerSocket?5not?5found?6?$AA@ 1006abe8     xpcruntime:xpcimports.obj
 0002:00005c10       ??_C@_0BC@PLKKJDIM@CloseServerSocket?$AA@ 1006ac10     xpcruntime:xpcimports.obj
 0002:00005c28       ??_C@_0BN@KEJEPNMB@CloseServerSocket?5not?5found?6?$AA@ 1006ac28     xpcruntime:xpcimports.obj
 0002:00005c4c       ??_C@_0BC@IHMNIGFJ@ResetServerSocket?$AA@ 1006ac4c     xpcruntime:xpcimports.obj
 0002:00005c64       ??_C@_0BN@NIOGJLCG@ResetServerSocket?5not?5found?6?$AA@ 1006ac64     xpcruntime:xpcimports.obj
 0002:00005c88       ??_C@_0BD@MCLPKCPP@CreateClientSocket?$AA@ 1006ac88     xpcruntime:xpcimports.obj
 0002:00005ca0       ??_C@_0BO@DILAGPFN@CreateClientSocket?5not?5found?6?$AA@ 1006aca0     xpcruntime:xpcimports.obj
 0002:00005cc4       ??_C@_0BB@DAPKNNLG@BindClientSocket?$AA@ 1006acc4     xpcruntime:xpcimports.obj
 0002:00005cd8       ??_C@_0BM@LLLMMDFN@BindClientSocket?5not?5found?6?$AA@ 1006acd8     xpcruntime:xpcimports.obj
 0002:00005cfc       ??_C@_0BE@DMEBELHC@ConnectClientSocket?$AA@ 1006acfc     xpcruntime:xpcimports.obj
 0002:00005d14       ??_C@_0BP@PLOHCPAO@ConnectClientSocket?5not?5found?6?$AA@ 1006ad14     xpcruntime:xpcimports.obj
 0002:00005d3c       ??_C@_0BC@NHHAOBPJ@CloseClientSocket?$AA@ 1006ad3c     xpcruntime:xpcimports.obj
 0002:00005d54       ??_C@_0BN@PGKNOKGL@CloseClientSocket?5not?5found?6?$AA@ 1006ad54     xpcruntime:xpcimports.obj
 0002:00005d78       ??_C@_0BC@KLBHPECM@ResetClientSocket?$AA@ 1006ad78     xpcruntime:xpcimports.obj
 0002:00005d90       ??_C@_0BN@IKNPIMIM@ResetClientSocket?5not?5found?6?$AA@ 1006ad90     xpcruntime:xpcimports.obj
 0002:00005db4       ??_C@_0M@IJOPFCCE@UDPOpenSend?$AA@ 1006adb4     xpcruntime:xpcimports.obj
 0002:00005dc4       ??_C@_0BH@CCHBDPG@UDPOpenSend?5not?5found?6?$AA@ 1006adc4     xpcruntime:xpcimports.obj
 0002:00005de0       ??_C@_0P@MEPACHPD@UDPOpenReceive?$AA@ 1006ade0     xpcruntime:xpcimports.obj
 0002:00005df4       ??_C@_0BK@PFMCPKIO@UDPOpenReceive?5not?5found?6?$AA@ 1006adf4     xpcruntime:xpcimports.obj
 0002:00005e14       ??_C@_0N@NMMOLOEM@UDPCloseSend?$AA@ 1006ae14     xpcruntime:xpcimports.obj
 0002:00005e24       ??_C@_0BI@ENKCOCDG@UDPCloseSend?5not?5found?6?$AA@ 1006ae24     xpcruntime:xpcimports.obj
 0002:00005e40       ??_C@_0BA@DMJGBBIA@UDPCloseReceive?$AA@ 1006ae40     xpcruntime:xpcimports.obj
 0002:00005e54       ??_C@_0BL@PEBIMLNC@UDPCloseReceive?5not?5found?6?$AA@ 1006ae54     xpcruntime:xpcimports.obj
 0002:00005f28       __pRawDllMain              1006af28     LIBCMT:dll_dllmain.obj
 0002:00005f28       __pDefaultRawDllMain       1006af28     LIBCMT:dll_dllmain.obj
 0002:00005f40       ??_C@_1BC@DNHGCMLG@?$AAa?$AAd?$AAv?$AAa?$AAp?$AAi?$AA3?$AA2?$AA?$AA@ 1006af40     libvcruntime:winapi_downlevel.obj
 0002:00005f58       ??_C@_1DM@KHCHBNEB@?$AAa?$AAp?$AAi?$AA?9?$AAm?$AAs?$AA?9?$AAw?$AAi?$AAn?$AA?9?$AAc?$AAo?$AAr?$AAe?$AA?9?$AAf?$AAi?$AAb?$AAe?$AAr?$AAs?$AA?9?$AAl?$AA1?$AA?9?$AA1?$AA?9?$AA1?$AA?$AA@ 1006af58     libvcruntime:winapi_downlevel.obj
 0002:00005fa0       ??_C@_1DK@LPPGFMPP@?$AAa?$AAp?$AAi?$AA?9?$AAm?$AAs?$AA?9?$AAw?$AAi?$AAn?$AA?9?$AAc?$AAo?$AAr?$AAe?$AA?9?$AAs?$AAy?$AAn?$AAc?$AAh?$AA?9?$AAl?$AA1?$AA?9?$AA2?$AA?9?$AA0?$AA?$AA@ 1006afa0     libvcruntime:winapi_downlevel.obj
 0002:00005fe8       ??_C@_1BC@GDMECMAK@?$AAk?$AAe?$AAr?$AAn?$AAe?$AAl?$AA3?$AA2?$AA?$AA@ 1006afe8     libvcruntime:winapi_downlevel.obj
 0002:00006004       ??_C@_0O@BAMBGLIE@EventRegister?$AA@ 1006b004     libvcruntime:winapi_downlevel.obj
 0002:00006018       ??_C@_0BE@BJEEGHGK@EventSetInformation?$AA@ 1006b018     libvcruntime:winapi_downlevel.obj
 0002:00006034       ??_C@_0BA@FAKLIPIC@EventUnregister?$AA@ 1006b034     libvcruntime:winapi_downlevel.obj
 0002:0000604c       ??_C@_0BD@PKLHJPHD@EventWriteTransfer?$AA@ 1006b04c     libvcruntime:winapi_downlevel.obj
 0002:00006070       ??_C@_08KNHFBNJ@FlsAlloc?$AA@ 1006b070     libvcruntime:winapi_downlevel.obj
 0002:00006088       ??_C@_07PEJMOBNF@FlsFree?$AA@ 1006b088     libvcruntime:winapi_downlevel.obj
 0002:000060a0       ??_C@_0M@GDNOONDI@FlsGetValue?$AA@ 1006b0a0     libvcruntime:winapi_downlevel.obj
 0002:000060bc       ??_C@_0M@JCPCPOEF@FlsSetValue?$AA@ 1006b0bc     libvcruntime:winapi_downlevel.obj
 0002:000060d8       ??_C@_0BM@HCFOFFN@InitializeCriticalSectionEx?$AA@ 1006b0d8     libvcruntime:winapi_downlevel.obj
 0002:000062e0       ??_C@_08EHJDFFNH@__based?$CI?$AA@ 1006b2e0     libvcruntime:undname.obj
 0002:000062ec       ??_C@_07KOLFKCDI@__cdecl?$AA@ 1006b2ec     libvcruntime:undname.obj
 0002:000062f8       ??_C@_08GHMPAG@__pascal?$AA@ 1006b2f8     libvcruntime:undname.obj
 0002:00006304       ??_C@_09IFJBGAPI@__stdcall?$AA@ 1006b304     libvcruntime:undname.obj
 0002:00006310       ??_C@_0L@NPHFGOKO@__thiscall?$AA@ 1006b310     libvcruntime:undname.obj
 0002:00006320       ??_C@_0L@JMKHOMEK@__fastcall?$AA@ 1006b320     libvcruntime:undname.obj
 0002:00006330       ??_C@_0N@BCKKPABJ@__vectorcall?$AA@ 1006b330     libvcruntime:undname.obj
 0002:00006340       ??_C@_09HIJEGCPM@__clrcall?$AA@ 1006b340     libvcruntime:undname.obj
 0002:0000634c       ??_C@_06GHPCKEAG@__eabi?$AA@ 1006b34c     libvcruntime:undname.obj
 0002:00006354       ??_C@_07JOMMBBKO@__ptr64?$AA@ 1006b354     libvcruntime:undname.obj
 0002:00006360       ??_C@_0L@PILCLIHE@__restrict?$AA@ 1006b360     libvcruntime:undname.obj
 0002:00006370       ??_C@_0M@GFIIJFMG@__unaligned?$AA@ 1006b370     libvcruntime:undname.obj
 0002:00006380       ??_C@_09DHDLOLLB@restrict?$CI?$AA@ 1006b380     libvcruntime:undname.obj
 0002:0000638c       ??_C@_04NIHEBCM@?5new?$AA@ 1006b38c     libvcruntime:undname.obj
 0002:00006394       ??_C@_07FPCDHGMM@?5delete?$AA@ 1006b394     libvcruntime:undname.obj
 0002:000063a0       ??_C@_01NEMOKFLO@?$DN?$AA@ 1006b3a0     libvcruntime:undname.obj
 0002:000063a4       ??_C@_02GPIOPFAK@?$DO?$DO?$AA@ 1006b3a4     libvcruntime:undname.obj
 0002:000063a8       ??_C@_02FODMEDOG@?$DM?$DM?$AA@ 1006b3a8     libvcruntime:undname.obj
 0002:000063ac       ??_C@_01DCLJPIOD@?$CB?$AA@ 1006b3ac     libvcruntime:undname.obj
 0002:000063b0       ??_C@_02EGOFBIJA@?$DN?$DN?$AA@ 1006b3b0     libvcruntime:undname.obj
 0002:000063b4       ??_C@_02FDNJECIE@?$CB?$DN?$AA@ 1006b3b4     libvcruntime:undname.obj
 0002:000063b8       ??_C@_02GPECMEKF@?$FL?$FN?$AA@ 1006b3b8     libvcruntime:undname.obj
 0002:000063bc       ??_C@_08LHJFAFGD@operator?$AA@ 1006b3bc     libvcruntime:undname.obj
 0002:000063c8       ??_C@_02HBOOOICD@?9?$DO?$AA@ 1006b3c8     libvcruntime:undname.obj
 0002:000063cc       ??_C@_01NBENCBCI@?$CK?$AA@ 1006b3cc     libvcruntime:undname.obj
 0002:000063d0       ??_C@_02ECNGHCIF@?$CL?$CL?$AA@ 1006b3d0     libvcruntime:undname.obj
 0002:000063d4       ??_C@_02BAABKJLB@?9?9?$AA@ 1006b3d4     libvcruntime:undname.obj
 0002:000063d8       ??_C@_01JOAMLHOP@?9?$AA@   1006b3d8     libvcruntime:undname.obj
 0002:000063dc       ??_C@_01MIFGBAGJ@?$CL?$AA@ 1006b3dc     libvcruntime:undname.obj
 0002:000063e0       ??_C@_01HNPIGOCE@?$CG?$AA@ 1006b3e0     libvcruntime:undname.obj
 0002:000063e4       ??_C@_03MNHNFDLC@?9?$DO?$CK?$AA@ 1006b3e4     libvcruntime:undname.obj
 0002:000063e8       ??_C@_01KMDKNFGN@?1?$AA@   1006b3e8     libvcruntime:undname.obj
 0002:000063ec       ??_C@_01FGNFDNOH@?$CF?$AA@ 1006b3ec     libvcruntime:undname.obj
 0002:000063f0       ??_C@_01MNNFJEPP@?$DM?$AA@ 1006b3f0     libvcruntime:undname.obj
 0002:000063f4       ??_C@_02EHCHHCKH@?$DM?$DN?$AA@ 1006b3f4     libvcruntime:undname.obj
 0002:000063f8       ??_C@_01PPODPGHN@?$DO?$AA@ 1006b3f8     libvcruntime:undname.obj
 0002:000063fc       ??_C@_02EEKDKGMJ@?$DO?$DN?$AA@ 1006b3fc     libvcruntime:undname.obj
 0002:00006400       ??_C@_01IHBHIGKO@?0?$AA@   1006b400     libvcruntime:undname.obj
 0002:00006404       ??_C@_02HCKGKOFO@?$CI?$CJ?$AA@ 1006b404     libvcruntime:undname.obj
 0002:00006408       ??_C@_01PJKLJHI@?$HO?$AA@  1006b408     libvcruntime:undname.obj
 0002:0000640c       ??_C@_01JKBOJNNK@?$FO?$AA@ 1006b40c     libvcruntime:undname.obj
 0002:00006410       ??_C@_01DNKMNLPK@?$HM?$AA@ 1006b410     libvcruntime:undname.obj
 0002:00006414       ??_C@_02PPKAJPJL@?$CG?$CG?$AA@ 1006b414     libvcruntime:undname.obj
 0002:00006418       ??_C@_02NONPIBCD@?$HM?$HM?$AA@ 1006b418     libvcruntime:undname.obj
 0002:0000641c       ??_C@_02FPIMKNGF@?$CK?$DN?$AA@ 1006b41c     libvcruntime:undname.obj
 0002:00006420       ??_C@_02FOEOMHFC@?$CL?$DN?$AA@ 1006b420     libvcruntime:undname.obj
 0002:00006424       ??_C@_02FKMDLLOA@?9?$DN?$AA@ 1006b424     libvcruntime:undname.obj
 0002:00006428       ??_C@_02FJEHGPIO@?1?$DN?$AA@ 1006b428     libvcruntime:undname.obj
 0002:0000642c       ??_C@_02FENAOKFI@?$CF?$DN?$AA@ 1006b42c     libvcruntime:undname.obj
 0002:00006430       ??_C@_03IKFCCPFF@?$DO?$DO?$DN?$AA@ 1006b430     libvcruntime:undname.obj
 0002:00006434       ??_C@_03CDNPDDLA@?$DM?$DM?$DN?$AA@ 1006b434     libvcruntime:undname.obj
 0002:00006438       ??_C@_02FGJGFEAB@?$CG?$DN?$AA@ 1006b438     libvcruntime:undname.obj
 0002:0000643c       ??_C@_02DHLNPPGH@?$HM?$DN?$AA@ 1006b43c     libvcruntime:undname.obj
 0002:00006440       ??_C@_02MHEGNOJ@?$FO?$DN?$AA@ 1006b440     libvcruntime:undname.obj
 0002:00006444       ??_C@_09IFPLHPGF@?$GAvftable?8?$AA@ 1006b444     libvcruntime:undname.obj
 0002:00006450       ??_C@_09BLBHBJP@?$GAvbtable?8?$AA@ 1006b450     libvcruntime:undname.obj
 0002:0000645c       ??_C@_07FEEIOKP@?$GAvcall?8?$AA@ 1006b45c     libvcruntime:undname.obj
 0002:00006468       ??_C@_08LLFFHHDJ@?$GAtypeof?8?$AA@ 1006b468     libvcruntime:undname.obj
 0002:00006474       ??_C@_0BF@KDPPACIK@?$GAlocal?5static?5guard?8?$AA@ 1006b474     libvcruntime:undname.obj
 0002:00006490       ??_C@_08OBABFOLI@?$GAstring?8?$AA@ 1006b490     libvcruntime:undname.obj
 0002:0000649c       ??_C@_0BD@JDLKDPAB@?$GAvbase?5destructor?8?$AA@ 1006b49c     libvcruntime:undname.obj
 0002:000064b4       ??_C@_0BN@DEGPLNFK@?$GAvector?5deleting?5destructor?8?$AA@ 1006b4b4     libvcruntime:undname.obj
 0002:000064d8       ??_C@_0BO@OBMKPJIG@?$GAdefault?5constructor?5closure?8?$AA@ 1006b4d8     libvcruntime:undname.obj
 0002:000064fc       ??_C@_0BN@IMDCHIKM@?$GAscalar?5deleting?5destructor?8?$AA@ 1006b4fc     libvcruntime:undname.obj
 0002:00006520       ??_C@_0BO@PFGOCPJJ@?$GAvector?5constructor?5iterator?8?$AA@ 1006b520     libvcruntime:undname.obj
 0002:00006544       ??_C@_0BN@LFPFMEDL@?$GAvector?5destructor?5iterator?8?$AA@ 1006b544     libvcruntime:undname.obj
 0002:00006568       ??_C@_0CE@IKBNEHA@?$GAvector?5vbase?5constructor?5iterat@ 1006b568     libvcruntime:undname.obj
 0002:00006594       ??_C@_0BL@NILFHHPC@?$GAvirtual?5displacement?5map?8?$AA@ 1006b594     libvcruntime:undname.obj
 0002:000065b4       ??_C@_0CB@JONCMFFK@?$GAeh?5vector?5constructor?5iterator?8@ 1006b5b4     libvcruntime:undname.obj
 0002:000065dc       ??_C@_0CA@GCEOPDGL@?$GAeh?5vector?5destructor?5iterator?8?$AA@ 1006b5dc     libvcruntime:undname.obj
 0002:00006604       ??_C@_0CH@OOJPLCPH@?$GAeh?5vector?5vbase?5constructor?5ite@ 1006b604     libvcruntime:undname.obj
 0002:00006634       ??_C@_0BL@LLKPOHJI@?$GAcopy?5constructor?5closure?8?$AA@ 1006b634     libvcruntime:undname.obj
 0002:00006654       ??_C@_0BA@KBCDOMBN@?$GAudt?5returning?8?$AA@ 1006b654     libvcruntime:undname.obj
 0002:00006668       ??_C@_03KLGMFNMG@?$GAEH?$AA@ 1006b668     libvcruntime:undname.obj
 0002:0000666c       ??_C@_05KHLCHHI@?$GARTTI?$AA@ 1006b66c     libvcruntime:undname.obj
 0002:00006674       ??_C@_0BA@KKLDJDLB@?$GAlocal?5vftable?8?$AA@ 1006b674     libvcruntime:undname.obj
 0002:00006688       ??_C@_0CE@IIHCMGGL@?$GAlocal?5vftable?5constructor?5closu@ 1006b688     libvcruntime:undname.obj
 0002:000066b4       ??_C@_06FHBGPFGH@?5new?$FL?$FN?$AA@ 1006b6b4     libvcruntime:undname.obj
 0002:000066bc       ??_C@_09LBNFPBCA@?5delete?$FL?$FN?$AA@ 1006b6bc     libvcruntime:undname.obj
 0002:000066c8       ??_C@_0P@HJKNJFNN@?$GAomni?5callsig?8?$AA@ 1006b6c8     libvcruntime:undname.obj
 0002:000066dc       ??_C@_0BL@CNOONJFP@?$GAplacement?5delete?5closure?8?$AA@ 1006b6dc     libvcruntime:undname.obj
 0002:000066fc       ??_C@_0BN@CKNJLHMB@?$GAplacement?5delete?$FL?$FN?5closure?8?$AA@ 1006b6fc     libvcruntime:undname.obj
 0002:00006720       ??_C@_0CG@CFDHKGGD@?$GAmanaged?5vector?5constructor?5iter@ 1006b720     libvcruntime:undname.obj
 0002:00006750       ??_C@_0CF@IMGKMJNO@?$GAmanaged?5vector?5destructor?5itera@ 1006b750     libvcruntime:undname.obj
 0002:0000677c       ??_C@_0CG@HLDDJMAG@?$GAeh?5vector?5copy?5constructor?5iter@ 1006b77c     libvcruntime:undname.obj
 0002:000067ac       ??_C@_0CM@FCBBDIGB@?$GAeh?5vector?5vbase?5copy?5constructo@ 1006b7ac     libvcruntime:undname.obj
 0002:000067e0       ??_C@_0BL@CLIPGLGB@?$GAdynamic?5initializer?5for?5?8?$AA@ 1006b7e0     libvcruntime:undname.obj
 0002:00006800       ??_C@_0CB@PDBIFEP@?$GAdynamic?5atexit?5destructor?5for?5?8@ 1006b800     libvcruntime:undname.obj
 0002:00006828       ??_C@_0CD@CGAJBKEJ@?$GAvector?5copy?5constructor?5iterato@ 1006b828     libvcruntime:undname.obj
 0002:00006854       ??_C@_0CJ@GJELGAMM@?$GAvector?5vbase?5copy?5constructor?5i@ 1006b854     libvcruntime:undname.obj
 0002:00006888       ??_C@_0CL@FGIJHLCE@?$GAmanaged?5vector?5copy?5constructor@ 1006b888     libvcruntime:undname.obj
 0002:000068bc       ??_C@_0BM@PMGGMLDN@?$GAlocal?5static?5thread?5guard?8?$AA@ 1006b8bc     libvcruntime:undname.obj
 0002:000068e0       ??_C@_0N@BDNMDMOL@operator?5?$CC?$CC?5?$AA@ 1006b8e0     libvcruntime:undname.obj
 0002:000068f0       ??_C@_0BC@DAFEJGAK@?5Type?5Descriptor?8?$AA@ 1006b8f0     libvcruntime:undname.obj
 0002:00006908       ??_C@_0BM@LDKODKLH@?5Base?5Class?5Descriptor?5at?5?$CI?$AA@ 1006b908     libvcruntime:undname.obj
 0002:0000692c       ??_C@_0BD@LGICGFMM@?5Base?5Class?5Array?8?$AA@ 1006b92c     libvcruntime:undname.obj
 0002:00006944       ??_C@_0BN@MECKDCOJ@?5Class?5Hierarchy?5Descriptor?8?$AA@ 1006b944     libvcruntime:undname.obj
 0002:00006968       ??_C@_0BK@CFCOFLF@?5Complete?5Object?5Locator?8?$AA@ 1006b968     libvcruntime:undname.obj
 0002:00006988       ??_C@_04HEJADOOB@CV?3?5?$AA@ 1006b988     libvcruntime:undname.obj
 0002:00006990       ??_C@_02MOLJINC@?3?3?$AA@  1006b990     libvcruntime:undname.obj
 0002:00006994       ??_C@_0BE@JAEOCHPE@template?9parameter?9?$AA@ 1006b994     libvcruntime:undname.obj
 0002:000069ac       ??_C@_0O@KHGCOMHP@generic?9type?9?$AA@ 1006b9ac     libvcruntime:undname.obj
 0002:000069bc       ??_C@_01NLNLIGKH@?$GA?$AA@ 1006b9bc     libvcruntime:undname.obj
 0002:000069c0       ??_C@_01GEODFPGF@?8?$AA@   1006b9c0     libvcruntime:undname.obj
 0002:000069c4       ??_C@_0BG@JNJLAMPM@?$GAanonymous?5namespace?8?$AA@ 1006b9c4     libvcruntime:undname.obj
 0002:000069e0       ??_C@_02OHHJMEON@?8?8?$AA@ 1006b9e0     libvcruntime:undname.obj
 0002:000069e4       ??_C@_0BN@IBLMMFAP@?$GAnon?9type?9template?9parameter?$AA@ 1006b9e4     libvcruntime:undname.obj
 0002:00006a08       ??_C@_04GKJNKENE@void?$AA@ 1006ba08     libvcruntime:undname.obj
 0002:00006a10       ??_C@_0BE@EODMJLIF@?$GAtemplate?9parameter?$AA@ 1006ba10     libvcruntime:undname.obj
 0002:00006a28       ??_C@_03KHICJKCI@?4?4?4?$AA@ 1006ba28     libvcruntime:undname.obj
 0002:00006a2c       ??_C@_04HIBGFPH@NULL?$AA@  1006ba2c     libvcruntime:undname.obj
 0002:00006a34       ??_C@_02DPKJAMEF@?$CFd?$AA@ 1006ba34     libvcruntime:undname.obj
 0002:00006a38       ??_C@_0BK@IHCCFNEL@?$GAtemplate?9type?9parameter?9?$AA@ 1006ba38     libvcruntime:undname.obj
 0002:00006a58       ??_C@_0BK@OFCNNNKO@?$GAgeneric?9class?9parameter?9?$AA@ 1006ba58     libvcruntime:undname.obj
 0002:00006a78       ??_C@_0BL@NGJBLFIL@?$GAgeneric?9method?9parameter?9?$AA@ 1006ba78     libvcruntime:undname.obj
 0002:00006a98       ??_C@_03OPGICMGF@?$HN?8?5?$AA@ 1006ba98     libvcruntime:undname.obj
 0002:00006a9c       ??_C@_02IGFCGPIL@?$HN?8?$AA@ 1006ba9c     libvcruntime:undname.obj
 0002:00006aa0       ??_C@_01CLKCMJKC@?5?$AA@   1006baa0     libvcruntime:undname.obj
 0002:00006aa4       ??_C@_0N@CBHHHENL@?$GAvtordispex?$HL?$AA@ 1006baa4     libvcruntime:undname.obj
 0002:00006ab4       ??_C@_0L@GHPFDFH@?$GAvtordisp?$HL?$AA@ 1006bab4     libvcruntime:undname.obj
 0002:00006ac4       ??_C@_0L@HNGCOGAE@?$GAadjustor?$HL?$AA@ 1006bac4     libvcruntime:undname.obj
 0002:00006ad4       ??_C@_0CB@KJDOOODE@?$GAlocal?5static?5destructor?5helper?8@ 1006bad4     libvcruntime:undname.obj
 0002:00006afc       ??_C@_0DB@ILEFOCIJ@?$GAtemplate?5static?5data?5member?5con@ 1006bafc     libvcruntime:undname.obj
 0002:00006b38       ??_C@_0DA@HGFJFBBE@?$GAtemplate?5static?5data?5member?5des@ 1006bb38     libvcruntime:undname.obj
 0002:00006b74       ??_C@_07PGOEDBHP@static?5?$AA@ 1006bb74     libvcruntime:undname.obj
 0002:00006b80       ??_C@_08NIEOINHE@virtual?5?$AA@ 1006bb80     libvcruntime:undname.obj
 0002:00006b8c       ??_C@_09LAPHOOG@private?3?5?$AA@ 1006bb8c     libvcruntime:undname.obj
 0002:00006b98       ??_C@_0M@GAIFPFIP@protected?3?5?$AA@ 1006bb98     libvcruntime:undname.obj
 0002:00006ba8       ??_C@_08GPDDCMKI@public?3?5?$AA@ 1006bba8     libvcruntime:undname.obj
 0002:00006bb4       ??_C@_08KJLFOPNE@?$FLthunk?$FN?3?$AA@ 1006bbb4     libvcruntime:undname.obj
 0002:00006bc0       ??_C@_0M@DHNBOJMP@extern?5?$CCC?$CC?5?$AA@ 1006bbc0     libvcruntime:undname.obj
 0002:00006bd0       ??_C@_02KCKGHPCA@?$CJ?5?$AA@ 1006bbd0     libvcruntime:undname.obj
 0002:00006bd4       ??_C@_05CIHEBHNO@char?5?$AA@ 1006bbd4     libvcruntime:undname.obj
 0002:00006bdc       ??_C@_06EHJMALKF@short?5?$AA@ 1006bbdc     libvcruntime:undname.obj
 0002:00006be4       ??_C@_04LAHKHJMA@int?5?$AA@ 1006bbe4     libvcruntime:undname.obj
 0002:00006bec       ??_C@_05CJIMAING@long?5?$AA@ 1006bbec     libvcruntime:undname.obj
 0002:00006bf4       ??_C@_09EBBEKKIH@unsigned?5?$AA@ 1006bbf4     libvcruntime:undname.obj
 0002:00006c00       ??_C@_05BEFAKPML@void?5?$AA@ 1006bc00     libvcruntime:undname.obj
 0002:00006c08       ??_C@_08PABEKFH@volatile?$AA@ 1006bc08     libvcruntime:undname.obj
 0002:00006c14       ??_C@_0BA@LKIJLKPP@std?3?3nullptr_t?5?$AA@ 1006bc14     libvcruntime:undname.obj
 0002:00006c28       ??_C@_0P@GCOCNKDM@std?3?3nullptr_t?$AA@ 1006bc28     libvcruntime:undname.obj
 0002:00006c3c       ??_C@_0L@EGPHHEKN@?$DMellipsis?$DO?$AA@ 1006bc3c     libvcruntime:undname.obj
 0002:00006c4c       ??_C@_04EENFHACM@?0?4?4?4?$AA@ 1006bc4c     libvcruntime:undname.obj
 0002:00006c54       ??_C@_0M@ELJOJFFH@?0?$DMellipsis?$DO?$AA@ 1006bc54     libvcruntime:undname.obj
 0002:00006c64       ??_C@_07HDJPLPEK@?5throw?$CI?$AA@ 1006bc64     libvcruntime:undname.obj
 0002:00006c70       ??_C@_03PBJBJNON@cpu?$AA@  1006bc70     libvcruntime:undname.obj
 0002:00006c74       ??_C@_03DCBBJBAA@amp?$AA@  1006bc74     libvcruntime:undname.obj
 0002:00006c78       ??_C@_02KEGNLNML@?0?5?$AA@ 1006bc78     libvcruntime:undname.obj
 0002:00006c7c       ??_C@_04ENMBGAPA@char?$AA@ 1006bc7c     libvcruntime:undname.obj
 0002:00006c84       ??_C@_05BFKKPKCG@short?$AA@ 1006bc84     libvcruntime:undname.obj
 0002:00006c8c       ??_C@_03JBIPMCLC@int?$AA@  1006bc8c     libvcruntime:undname.obj
 0002:00006c90       ??_C@_04GOKPGOLB@long?$AA@ 1006bc90     libvcruntime:undname.obj
 0002:00006c98       ??_C@_04DDKJGDCM@bool?$AA@ 1006bc98     libvcruntime:undname.obj
 0002:00006ca0       ??_C@_06EBGKOKIG@__int8?$AA@ 1006bca0     libvcruntime:undname.obj
 0002:00006ca8       ??_C@_07ICFHOGAF@__int16?$AA@ 1006bca8     libvcruntime:undname.obj
 0002:00006cb4       ??_C@_07OFLPPHGP@__int32?$AA@ 1006bcb4     libvcruntime:undname.obj
 0002:00006cc0       ??_C@_07LFCOJCAC@__int64?$AA@ 1006bcc0     libvcruntime:undname.obj
 0002:00006ccc       ??_C@_08GAHOLHEO@__int128?$AA@ 1006bccc     libvcruntime:undname.obj
 0002:00006cd8       ??_C@_09EEKGDCPH@?$DMunknown?$DO?$AA@ 1006bcd8     libvcruntime:undname.obj
 0002:00006ce4       ??_C@_08HBIPOFJB@char16_t?$AA@ 1006bce4     libvcruntime:undname.obj
 0002:00006cf0       ??_C@_08IECNCBKG@char32_t?$AA@ 1006bcf0     libvcruntime:undname.obj
 0002:00006cfc       ??_C@_07CLGGIAMF@wchar_t?$AA@ 1006bcfc     libvcruntime:undname.obj
 0002:00006d08       ??_C@_06GCICPBLB@__w64?5?$AA@ 1006bd08     libvcruntime:undname.obj
 0002:00006d10       ??_C@_07NFANNNEC@UNKNOWN?$AA@ 1006bd10     libvcruntime:undname.obj
 0002:00006d1c       ??_C@_07EDHNAJHC@signed?5?$AA@ 1006bd1c     libvcruntime:undname.obj
 0002:00006d28       ??_C@_05BNCCCJPP@const?$AA@ 1006bd28     libvcruntime:undname.obj
 0002:00006d30       ??_C@_09EFNPDFFP@?5volatile?$AA@ 1006bd30     libvcruntime:undname.obj
 0002:00006d3c       ??_C@_0P@GCIFDJCJ@?$GAunknown?5ecsu?8?$AA@ 1006bd3c     libvcruntime:undname.obj
 0002:00006d50       ??_C@_06MOJHIBMG@union?5?$AA@ 1006bd50     libvcruntime:undname.obj
 0002:00006d58       ??_C@_07DIBCDNGL@struct?5?$AA@ 1006bd58     libvcruntime:undname.obj
 0002:00006d64       ??_C@_06LJBABKPM@class?5?$AA@ 1006bd64     libvcruntime:undname.obj
 0002:00006d6c       ??_C@_08KOFANOFK@coclass?5?$AA@ 1006bd6c     libvcruntime:undname.obj
 0002:00006d78       ??_C@_0N@DLIEFKNA@cointerface?5?$AA@ 1006bd78     libvcruntime:undname.obj
 0002:00006d88       ??_C@_05LJGMCFOG@enum?5?$AA@ 1006bd88     libvcruntime:undname.obj
 0002:00006d90       ??_C@_09GAIEOBLP@volatile?5?$AA@ 1006bd90     libvcruntime:undname.obj
 0002:00006d9c       ??_C@_06LIJLOJAG@const?5?$AA@ 1006bd9c     libvcruntime:undname.obj
 0002:00006da4       ??_C@_02KJPKDIBN@?$CG?5?$AA@ 1006bda4     libvcruntime:undname.obj
 0002:00006da8       ??_C@_03PCKGMOPB@?$CG?$CG?5?$AA@ 1006bda8     libvcruntime:undname.obj
 0002:00006dac       ??_C@_0M@EALIELKG@cli?3?3array?$DM?$AA@ 1006bdac     libvcruntime:undname.obj
 0002:00006dbc       ??_C@_0O@GKABPPIF@cli?3?3pin_ptr?$DM?$AA@ 1006bdbc     libvcruntime:undname.obj
 0002:00006dcc       ??_C@_02GOGNNPBN@?$CJ?$FL?$AA@ 1006bdcc     libvcruntime:undname.obj
 0002:00006dd0       ??_C@_06EEGAIFAK@?$HLflat?$HN?$AA@ 1006bdd0     libvcruntime:undname.obj
 0002:00006dd8       ??_C@_05JIBOFOHK@?$HLfor?5?$AA@ 1006bdd8     libvcruntime:undname.obj
 0002:00006de0       ??_C@_02MDINNEEG@s?5?$AA@  1006bde0     libvcruntime:undname.obj
 0002:00006de8       ??_7DNameNode@@6B@         1006bde8     libvcruntime:undname.obj
 0002:00006dfc       ??_7charNode@@6B@          1006bdfc     libvcruntime:undname.obj
 0002:00006e10       ??_7pcharNode@@6B@         1006be10     libvcruntime:undname.obj
 0002:00006e24       ??_7pDNameNode@@6B@        1006be24     libvcruntime:undname.obj
 0002:00006e38       ??_7DNameStatusNode@@6B@   1006be38     libvcruntime:undname.obj
 0002:00006e4c       ??_7pairNode@@6B@          1006be4c     libvcruntime:undname.obj
 0002:00006e5c       ??_C@_04OKOHEJBO@?5?$DP?$DP?5?$AA@ 1006be5c     libvcruntime:undname.obj
 0002:00006e68       _standard_lookup_table     1006be68     libucrt:output.obj
 0002:00006ed8       _format_validation_lookup_table 1006bed8     libucrt:output.obj
 0002:00006f48       ??_C@_06OJHGLDPL@?$CInull?$CJ?$AA@ 1006bf48     libucrt:output.obj
 0002:00006f50       ??_C@_1O@CEDCILHN@?$AA?$CI?$AAn?$AAu?$AAl?$AAl?$AA?$CJ?$AA?$AA@ 1006bf50     libucrt:output.obj
 0002:00006f60       _RtlNtPathSeperatorString  1006bf60     libucrt:exit.obj
 0002:00006f6c       ??_C@_13FPGAJAPJ@?$AA?2?$AA?$AA@ 1006bf6c     libucrt:exit.obj
 0002:00006f70       _RtlDosPathSeperatorsString 1006bf70     libucrt:exit.obj
 0002:00006f7c       ??_C@_15MNCACJLI@?$AA?2?$AA?1?$AA?$AA@ 1006bf7c     libucrt:exit.obj
 0002:00006f84       _RtlAlternateDosPathSeperatorString 1006bf84     libucrt:exit.obj
 0002:00006f90       ??_C@_13CGOKJPIL@?$AA?1?$AA?$AA@ 1006bf90     libucrt:exit.obj
 0002:00006f94       ??_C@_1BI@BGOHAHKC@?$AAm?$AAs?$AAc?$AAo?$AAr?$AAe?$AAe?$AA?4?$AAd?$AAl?$AAl?$AA?$AA@ 1006bf94     libucrt:exit.obj
 0002:00006fb0       ??_C@_0P@MIGLKIOC@CorExitProcess?$AA@ 1006bfb0     libucrt:exit.obj
 0002:00006fc4       ??_C@_0CF@GOGNBNAK@Microsoft?5Visual?5C?$CL?$CL?5Runtime?5Lib@ 1006bfc4     libucrt:assert.obj
 0002:00006ff0       ??_C@_1EK@MBDPDCGA@?$AAM?$AAi?$AAc?$AAr?$AAo?$AAs?$AAo?$AAf?$AAt?$AA?5?$AAV?$AAi?$AAs?$AAu?$AAa?$AAl?$AA?5?$AAC?$AA?$CL?$AA?$CL?$AA?5?$AAR?$AAu?$AAn?$AAt?$AAi?$AAm?$AAe?$AA?5?$AAL?$AAi?$AAb@ 1006bff0     libucrt:assert.obj
 0002:00007048       ??_C@_0CK@CFPGFGGO@Assertion?5failed?3?5?$CFTs?0?5file?5?$CFTs?0@ 1006c048     libucrt:assert.obj
 0002:00007080       ??_C@_1FE@LHBLIKM@?$AAA?$AAs?$AAs?$AAe?$AAr?$AAt?$AAi?$AAo?$AAn?$AA?5?$AAf?$AAa?$AAi?$AAl?$AAe?$AAd?$AA?3?$AA?5?$AA?$CF?$AAT?$AAs?$AA?0?$AA?5?$AAf?$AAi?$AAl?$AAe?$AA?5?$AA?$CF?$AAT?$AAs?$AA?0@ 1006c080     libucrt:assert.obj
 0002:000070e4       ??_C@_0BC@LAIDCHCH@Assertion?5failed?$CB?$AA@ 1006c0e4     libucrt:assert.obj
 0002:000070fc       ??_C@_1CE@OJBNHDMO@?$AAA?$AAs?$AAs?$AAe?$AAr?$AAt?$AAi?$AAo?$AAn?$AA?5?$AAf?$AAa?$AAi?$AAl?$AAe?$AAd?$AA?$CB?$AA?$AA@ 1006c0fc     libucrt:assert.obj
 0002:00007128       ??_C@_09KLGCKDOD@Program?3?5?$AA@ 1006c128     libucrt:assert.obj
 0002:00007134       ??_C@_1BE@PHKBBGE@?$AAP?$AAr?$AAo?$AAg?$AAr?$AAa?$AAm?$AA?3?$AA?5?$AA?$AA@ 1006c134     libucrt:assert.obj
 0002:0000714c       ??_C@_06IGPBOHMJ@File?3?5?$AA@ 1006c14c     libucrt:assert.obj
 0002:00007154       ??_C@_1O@HEMHKNDC@?$AAF?$AAi?$AAl?$AAe?$AA?3?$AA?5?$AA?$AA@ 1006c154     libucrt:assert.obj
 0002:00007164       ??_C@_06FIEBOLOH@Line?3?5?$AA@ 1006c164     libucrt:assert.obj
 0002:0000716c       ??_C@_1O@KCAFKHJE@?$AAL?$AAi?$AAn?$AAe?$AA?3?$AA?5?$AA?$AA@ 1006c16c     libucrt:assert.obj
 0002:0000717c       ??_C@_0N@MEECIJGN@Expression?3?5?$AA@ 1006c17c     libucrt:assert.obj
 0002:0000718c       ??_C@_1BK@PEDCIPMA@?$AAE?$AAx?$AAp?$AAr?$AAe?$AAs?$AAs?$AAi?$AAo?$AAn?$AA?3?$AA?5?$AA?$AA@ 1006c18c     libucrt:assert.obj
 0002:000071b0       ??_C@_0HA@OJHAGA@For?5information?5on?5how?5your?5prog@ 1006c1b0     libucrt:assert.obj
 0002:00007238       ??_C@_1OA@EGMLFBHJ@?$AAF?$AAo?$AAr?$AA?5?$AAi?$AAn?$AAf?$AAo?$AAr?$AAm?$AAa?$AAt?$AAi?$AAo?$AAn?$AA?5?$AAo?$AAn?$AA?5?$AAh?$AAo?$AAw?$AA?5?$AAy?$AAo?$AAu?$AAr?$AA?5?$AAp?$AAr?$AAo?$AAg@ 1006c238     libucrt:assert.obj
 0002:00007344       ??_C@_0DN@EBBNMLME@?$CIPress?5Retry?5to?5debug?5the?5applic@ 1006c344     libucrt:assert.obj
 0002:00007390       ??_C@_1HK@POCJMFGK@?$AA?$CI?$AAP?$AAr?$AAe?$AAs?$AAs?$AA?5?$AAR?$AAe?$AAt?$AAr?$AAy?$AA?5?$AAt?$AAo?$AA?5?$AAd?$AAe?$AAb?$AAu?$AAg?$AA?5?$AAt?$AAh?$AAe?$AA?5?$AAa?$AAp?$AAp?$AAl?$AAi?$AAc@ 1006c390     libucrt:assert.obj
 0002:00007424       ??_C@_17LGKOMLJ@?$AA?4?$AA?4?$AA?4?$AA?$AA@ 1006c424     libucrt:assert.obj
 0002:00007430       ??_C@_01EEMJAFIK@?6?$AA@   1006c430     libucrt:assert.obj
 0002:00007434       ??_C@_13LBAGMAIH@?$AA?6?$AA?$AA@ 1006c434     libucrt:assert.obj
 0002:00007438       ??_C@_02PHMGELLB@?6?6?$AA@ 1006c438     libucrt:assert.obj
 0002:0000743c       ??_C@_15IABLJNFO@?$AA?6?$AA?6?$AA?$AA@ 1006c43c     libucrt:assert.obj
 0002:00007444       ??_C@_0BH@DNAGHKFM@?$DMprogram?5name?5unknown?$DO?$AA@ 1006c444     libucrt:assert.obj
 0002:00007460       ??_C@_1CO@EAEJAADC@?$AA?$DM?$AAp?$AAr?$AAo?$AAg?$AAr?$AAa?$AAm?$AA?5?$AAn?$AAa?$AAm?$AAe?$AA?5?$AAu?$AAn?$AAk?$AAn?$AAo?$AAw?$AAn?$AA?$DO?$AA?$AA@ 1006c460     libucrt:assert.obj
 0002:00007498       ??_C@_04FJHINJAO@tanh?$AA@ 1006c498     libucrt:fpexcept.obj
 0002:000074a0       ??_C@_04FIHNOPOL@asin?$AA@ 1006c4a0     libucrt:fpexcept.obj
 0002:000074a8       ??_C@_04PDIFKINK@acos?$AA@ 1006c4a8     libucrt:fpexcept.obj
 0002:000074b0       ??_C@_04MLLJIGOK@atan?$AA@ 1006c4b0     libucrt:fpexcept.obj
 0002:000074b8       ??_C@_05KNGEOGJB@atan2?$AA@ 1006c4b8     libucrt:fpexcept.obj
 0002:000074c0       ??_C@_04EIAKFFMI@sqrt?$AA@ 1006c4c0     libucrt:fpexcept.obj
 0002:000074c8       ??_C@_03BLEJJJBH@sin?$AA@  1006c4c8     libucrt:fpexcept.obj
 0002:000074cc       ??_C@_03LALBNOCG@cos?$AA@  1006c4cc     libucrt:fpexcept.obj
 0002:000074d0       ??_C@_03IIINPABG@tan?$AA@  1006c4d0     libucrt:fpexcept.obj
 0002:000074d4       ??_C@_04GFPJNGEK@ceil?$AA@ 1006c4d4     libucrt:fpexcept.obj
 0002:000074dc       ??_C@_05PBJFFIGL@floor?$AA@ 1006c4dc     libucrt:fpexcept.obj
 0002:000074e4       ??_C@_04ODHECPBC@fabs?$AA@ 1006c4e4     libucrt:fpexcept.obj
 0002:000074ec       ??_C@_04EHEDPDJG@modf?$AA@ 1006c4ec     libucrt:fpexcept.obj
 0002:000074f4       ??_C@_05CEJMAHNP@ldexp?$AA@ 1006c4f4     libucrt:fpexcept.obj
 0002:000074fc       ??_C@_05KBKMEMPO@_cabs?$AA@ 1006c4fc     libucrt:fpexcept.obj
 0002:00007504       ??_C@_06MEIMCGCF@_hypot?$AA@ 1006c504     libucrt:fpexcept.obj
 0002:0000750c       ??_C@_04KEPJIHGP@fmod?$AA@ 1006c50c     libucrt:fpexcept.obj
 0002:00007514       ??_C@_05GKKHEGJL@frexp?$AA@ 1006c514     libucrt:fpexcept.obj
 0002:0000751c       ??_C@_03MJLDFKDL@_y0?$AA@  1006c51c     libucrt:fpexcept.obj
 0002:00007520       ??_C@_03NAKIGLHK@_y1?$AA@  1006c520     libucrt:fpexcept.obj
 0002:00007524       ??_C@_03ONILCKOB@_yn?$AA@  1006c524     libucrt:fpexcept.obj
 0002:00007528       ??_C@_05JGDBENOH@_logb?$AA@ 1006c528     libucrt:fpexcept.obj
 0002:00007530       ??_C@_0L@KDOEJCKC@_nextafter?$AA@ 1006c530     libucrt:fpexcept.obj
 0002:00007658       ??_C@_03KHJOGHMM@exp?$AA@  1006c658     libucrt:fpexcept.obj
 0002:0000765c       ??_C@_03JGHBODFD@pow?$AA@  1006c65c     libucrt:fpexcept.obj
 0002:00007660       ??_C@_03MGHMBJCF@log?$AA@  1006c660     libucrt:fpexcept.obj
 0002:00007664       ??_C@_05HGHHAHAP@log10?$AA@ 1006c664     libucrt:fpexcept.obj
 0002:0000766c       ??_C@_04COOMCNPB@sinh?$AA@ 1006c66c     libucrt:fpexcept.obj
 0002:00007674       ??_C@_04HPJJNFIM@cosh?$AA@ 1006c674     libucrt:fpexcept.obj
 0002:00007680       ___acrt_exception_action_table 1006c680     libucrt:exception_filter.obj
 0002:0000772c       ___acrt_signal_action_table_count 1006c72c     libucrt:exception_filter.obj
 0002:00007730       ___acrt_signal_action_table_size 1006c730     libucrt:exception_filter.obj
 0002:00007734       ___acrt_signal_action_first_fpe_index 1006c734     libucrt:exception_filter.obj
 0002:00007738       ___acrt_signal_action_fpe_count 1006c738     libucrt:exception_filter.obj
 0002:000077d0       ??_C@_1BG@HHIFPOEK@?$AAm?$AAs?$AAv?$AAc?$AAr?$AAt?$AA?4?$AAd?$AAl?$AAl?$AA?$AA@ 1006c7d0     libucrt:free_base.obj
 0002:000077ec       __Fenv0                    1006c7ec     libucrt:atox.obj
 0002:00007a08       ??_C@_1EG@CNNIPFIM@?$AAa?$AAp?$AAi?$AA?9?$AAm?$AAs?$AA?9?$AAw?$AAi?$AAn?$AA?9?$AAa?$AAp?$AAp?$AAm?$AAo?$AAd?$AAe?$AAl?$AA?9?$AAr?$AAu?$AAn?$AAt?$AAi?$AAm?$AAe?$AA?9?$AAl?$AA1?$AA?9?$AA1@ 1006ca08     libucrt:winapi_thunks.obj
 0002:00007a60       ??_C@_1EA@JGEFHKEI@?$AAa?$AAp?$AAi?$AA?9?$AAm?$AAs?$AA?9?$AAw?$AAi?$AAn?$AA?9?$AAc?$AAo?$AAr?$AAe?$AA?9?$AAd?$AAa?$AAt?$AAe?$AAt?$AAi?$AAm?$AAe?$AA?9?$AAl?$AA1?$AA?9?$AA1?$AA?9?$AA1?$AA?$AA@ 1006ca60     libucrt:winapi_thunks.obj
 0002:00007aac       ??_C@_1DI@GCIAAENM@?$AAa?$AAp?$AAi?$AA?9?$AAm?$AAs?$AA?9?$AAw?$AAi?$AAn?$AA?9?$AAc?$AAo?$AAr?$AAe?$AA?9?$AAf?$AAi?$AAl?$AAe?$AA?9?$AAl?$AA2?$AA?9?$AA1?$AA?9?$AA1?$AA?$AA@ 1006caac     libucrt:winapi_thunks.obj
 0002:00007af0       ??_C@_1EI@MPIAOHOC@?$AAa?$AAp?$AAi?$AA?9?$AAm?$AAs?$AA?9?$AAw?$AAi?$AAn?$AA?9?$AAc?$AAo?$AAr?$AAe?$AA?9?$AAl?$AAo?$AAc?$AAa?$AAl?$AAi?$AAz?$AAa?$AAt?$AAi?$AAo?$AAn?$AA?9?$AAl?$AA1?$AA?9@ 1006caf0     libucrt:winapi_thunks.obj
 0002:00007b48       ??_C@_1FK@FPHCKFIE@?$AAa?$AAp?$AAi?$AA?9?$AAm?$AAs?$AA?9?$AAw?$AAi?$AAn?$AA?9?$AAc?$AAo?$AAr?$AAe?$AA?9?$AAl?$AAo?$AAc?$AAa?$AAl?$AAi?$AAz?$AAa?$AAt?$AAi?$AAo?$AAn?$AA?9?$AAo?$AAb?$AAs@ 1006cb48     libucrt:winapi_thunks.obj
 0002:00007bb8       ??_C@_1EM@DILCGIIO@?$AAa?$AAp?$AAi?$AA?9?$AAm?$AAs?$AA?9?$AAw?$AAi?$AAn?$AA?9?$AAc?$AAo?$AAr?$AAe?$AA?9?$AAp?$AAr?$AAo?$AAc?$AAe?$AAs?$AAs?$AAt?$AAh?$AAr?$AAe?$AAa?$AAd?$AAs?$AA?9?$AAl@ 1006cbb8     libucrt:winapi_thunks.obj
 0002:00007c14       ??_C@_1DM@LNCGDDPN@?$AAa?$AAp?$AAi?$AA?9?$AAm?$AAs?$AA?9?$AAw?$AAi?$AAn?$AA?9?$AAc?$AAo?$AAr?$AAe?$AA?9?$AAs?$AAt?$AAr?$AAi?$AAn?$AAg?$AA?9?$AAl?$AA1?$AA?9?$AA1?$AA?9?$AA0?$AA?$AA@ 1006cc14     libucrt:winapi_thunks.obj
 0002:00007c5c       ??_C@_1DO@FPAPJEMD@?$AAa?$AAp?$AAi?$AA?9?$AAm?$AAs?$AA?9?$AAw?$AAi?$AAn?$AA?9?$AAc?$AAo?$AAr?$AAe?$AA?9?$AAs?$AAy?$AAs?$AAi?$AAn?$AAf?$AAo?$AA?9?$AAl?$AA1?$AA?9?$AA2?$AA?9?$AA1?$AA?$AA@ 1006cc5c     libucrt:winapi_thunks.obj
 0002:00007ca8       ??_C@_1DK@NDHNAHIO@?$AAa?$AAp?$AAi?$AA?9?$AAm?$AAs?$AA?9?$AAw?$AAi?$AAn?$AA?9?$AAc?$AAo?$AAr?$AAe?$AA?9?$AAw?$AAi?$AAn?$AAr?$AAt?$AA?9?$AAl?$AA1?$AA?9?$AA1?$AA?9?$AA0?$AA?$AA@ 1006cca8     libucrt:winapi_thunks.obj
 0002:00007cf0       ??_C@_1DM@KGHDGBCM@?$AAa?$AAp?$AAi?$AA?9?$AAm?$AAs?$AA?9?$AAw?$AAi?$AAn?$AA?9?$AAc?$AAo?$AAr?$AAe?$AA?9?$AAx?$AAs?$AAt?$AAa?$AAt?$AAe?$AA?9?$AAl?$AA2?$AA?9?$AA1?$AA?9?$AA0?$AA?$AA@ 1006ccf0     libucrt:winapi_thunks.obj
 0002:00007d38       ??_C@_1EO@IJIOEFOH@?$AAa?$AAp?$AAi?$AA?9?$AAm?$AAs?$AA?9?$AAw?$AAi?$AAn?$AA?9?$AAr?$AAt?$AAc?$AAo?$AAr?$AAe?$AA?9?$AAn?$AAt?$AAu?$AAs?$AAe?$AAr?$AA?9?$AAw?$AAi?$AAn?$AAd?$AAo?$AAw?$AA?9@ 1006cd38     libucrt:winapi_thunks.obj
 0002:00007d98       ??_C@_1FG@HHGEKANL@?$AAa?$AAp?$AAi?$AA?9?$AAm?$AAs?$AA?9?$AAw?$AAi?$AAn?$AA?9?$AAs?$AAe?$AAc?$AAu?$AAr?$AAi?$AAt?$AAy?$AA?9?$AAs?$AAy?$AAs?$AAt?$AAe?$AAm?$AAf?$AAu?$AAn?$AAc?$AAt?$AAi@ 1006cd98     libucrt:winapi_thunks.obj
 0002:00007e00       ??_C@_1FG@NCKKOLKO@?$AAe?$AAx?$AAt?$AA?9?$AAm?$AAs?$AA?9?$AAw?$AAi?$AAn?$AA?9?$AAk?$AAe?$AAr?$AAn?$AAe?$AAl?$AA3?$AA2?$AA?9?$AAp?$AAa?$AAc?$AAk?$AAa?$AAg?$AAe?$AA?9?$AAc?$AAu?$AAr?$AAr@ 1006ce00     libucrt:winapi_thunks.obj
 0002:00007e68       ??_C@_1EG@DBIOJECG@?$AAe?$AAx?$AAt?$AA?9?$AAm?$AAs?$AA?9?$AAw?$AAi?$AAn?$AA?9?$AAn?$AAt?$AAu?$AAs?$AAe?$AAr?$AA?9?$AAd?$AAi?$AAa?$AAl?$AAo?$AAg?$AAb?$AAo?$AAx?$AA?9?$AAl?$AA1?$AA?9?$AA1@ 1006ce68     libucrt:winapi_thunks.obj
 0002:00007ec0       ??_C@_1EO@FIHMJCLF@?$AAe?$AAx?$AAt?$AA?9?$AAm?$AAs?$AA?9?$AAw?$AAi?$AAn?$AA?9?$AAn?$AAt?$AAu?$AAs?$AAe?$AAr?$AA?9?$AAw?$AAi?$AAn?$AAd?$AAo?$AAw?$AAs?$AAt?$AAa?$AAt?$AAi?$AAo?$AAn?$AA?9@ 1006cec0     libucrt:winapi_thunks.obj
 0002:00007f20       ??_C@_1O@BCCLBEOE@?$AAu?$AAs?$AAe?$AAr?$AA3?$AA2?$AA?$AA@ 1006cf20     libucrt:winapi_thunks.obj
 0002:00007f34       ??_C@_0BA@FHFNEAED@AreFileApisANSI?$AA@ 1006cf34     libucrt:winapi_thunks.obj
 0002:00007f54       ??_C@_0BA@IHGNDAEB@CompareStringEx?$AA@ 1006cf54     libucrt:winapi_thunks.obj
 0002:00007f74       ??_C@_0BE@LJANKFHF@EnumSystemLocalesEx?$AA@ 1006cf74     libucrt:winapi_thunks.obj
 0002:00007fc8       ??_C@_0BA@HNOPNCHB@GetActiveWindow?$AA@ 1006cfc8     libucrt:winapi_thunks.obj
 0002:00007fe8       ??_C@_0BE@JOGNEJCI@GetCurrentPackageId?$AA@ 1006cfe8     libucrt:winapi_thunks.obj
 0002:0000800c       ??_C@_0BA@EPCJIIPD@GetDateFormatEx?$AA@ 1006d00c     libucrt:winapi_thunks.obj
 0002:0000802c       ??_C@_0BJ@DIBIJBHA@GetEnabledXStateFeatures?$AA@ 1006d02c     libucrt:winapi_thunks.obj
 0002:00008058       ??_C@_0BN@NEEHBBPO@GetFileInformationByHandleEx?$AA@ 1006d058     libucrt:winapi_thunks.obj
 0002:00008088       ??_C@_0BD@HHGDFDBJ@GetLastActivePopup?$AA@ 1006d088     libucrt:winapi_thunks.obj
 0002:000080ac       ??_C@_0BA@ONOKGCMP@GetLocaleInfoEx?$AA@ 1006d0ac     libucrt:winapi_thunks.obj
 0002:000080cc       ??_C@_0BI@DFKBFLJE@GetProcessWindowStation?$AA@ 1006d0cc     libucrt:winapi_thunks.obj
 0002:000080ec       ??_C@_0BP@FPNJPEJC@GetSystemTimePreciseAsFileTime?$AA@ 1006d0ec     libucrt:winapi_thunks.obj
 0002:00008120       ??_C@_0BA@CIJJKCJJ@GetTimeFormatEx?$AA@ 1006d120     libucrt:winapi_thunks.obj
 0002:00008140       ??_C@_0BJ@PBCCBIPI@GetUserDefaultLocaleName?$AA@ 1006d140     libucrt:winapi_thunks.obj
 0002:0000816c       ??_C@_0BK@DEKFELLI@GetUserObjectInformationW?$AA@ 1006d16c     libucrt:winapi_thunks.obj
 0002:00008198       ??_C@_0BG@IKLDMBLM@GetXStateFeaturesMask?$AA@ 1006d198     libucrt:winapi_thunks.obj
 0002:000081cc       ??_C@_0BC@CELBKLLA@IsValidLocaleName?$AA@ 1006d1cc     libucrt:winapi_thunks.obj
 0002:000081f0       ??_C@_0O@KKBNKAPF@LCMapStringEx?$AA@ 1006d1f0     libucrt:winapi_thunks.obj
 0002:0000820c       ??_C@_0BB@CDHDDLLP@LCIDToLocaleName?$AA@ 1006d20c     libucrt:winapi_thunks.obj
 0002:0000822c       ??_C@_0BB@HBDEELFH@LocaleNameToLCID?$AA@ 1006d22c     libucrt:winapi_thunks.obj
 0002:0000824c       ??_C@_0BE@KINNKFDA@LocateXStateFeature?$AA@ 1006d24c     libucrt:winapi_thunks.obj
 0002:00008270       ??_C@_0M@CHKKJDAI@MessageBoxA?$AA@ 1006d270     libucrt:winapi_thunks.obj
 0002:0000828c       ??_C@_0M@DLDCCGNP@MessageBoxW?$AA@ 1006d28c     libucrt:winapi_thunks.obj
 0002:000082a0       ??_C@_0N@PPOMPGGK@RoInitialize?$AA@ 1006d2a0     libucrt:winapi_thunks.obj
 0002:000082b4       ??_C@_0P@LLFHBIJD@RoUninitialize?$AA@ 1006d2b4     libucrt:winapi_thunks.obj
 0002:000082d4       ??_C@_0BI@BKLFFAPO@SetThreadStackGuarantee?$AA@ 1006d2d4     libucrt:winapi_thunks.obj
 0002:000082fc       ??_C@_0BC@JEAENNKH@SystemFunction036?$AA@ 1006d2fc     libucrt:winapi_thunks.obj
 0002:00008314       ??_C@_03OEIAHPBN@INF?$AA@  1006d314     libucrt:cvt.obj
 0002:00008318       ??_C@_03OJHLLCGB@inf?$AA@  1006d318     libucrt:cvt.obj
 0002:0000831c       ??_C@_03LKNCIKJB@NAN?$AA@  1006d31c     libucrt:cvt.obj
 0002:00008320       ??_C@_03LHCJEHON@nan?$AA@  1006d320     libucrt:cvt.obj
 0002:00008324       ??_C@_09OFJJIMPC@NAN?$CISNAN?$CJ?$AA@ 1006d324     libucrt:cvt.obj
 0002:00008330       ??_C@_09IPFBKMDL@nan?$CIsnan?$CJ?$AA@ 1006d330     libucrt:cvt.obj
 0002:0000833c       ??_C@_08IKHNHAJ@NAN?$CIIND?$CJ?$AA@ 1006d33c     libucrt:cvt.obj
 0002:00008348       ??_C@_08OFCDMILK@nan?$CIind?$CJ?$AA@ 1006d348     libucrt:cvt.obj
 0002:00008354       ??_C@_05KLBDPFGC@e?$CL000?$AA@ 1006d354     libucrt:cvt.obj
 0002:00008360       ___lc_category             1006d360     libucrt:wsetlocale.obj
 0002:000083b8       ??_C@_1O@GIFLHMA@?$AAL?$AAC?$AA_?$AAA?$AAL?$AAL?$AA?$AA@ 1006d3b8     libucrt:wsetlocale.obj
 0002:000083c8       ??_C@_1BG@PPOMIBNJ@?$AAL?$AAC?$AA_?$AAC?$AAO?$AAL?$AAL?$AAA?$AAT?$AAE?$AA?$AA@ 1006d3c8     libucrt:wsetlocale.obj
 0002:000083e4       ??_C@_1BC@FFJGAPJM@?$AAL?$AAC?$AA_?$AAC?$AAT?$AAY?$AAP?$AAE?$AA?$AA@ 1006d3e4     libucrt:wsetlocale.obj
 0002:000083fc       ??_C@_1BI@PCKFNJFB@?$AAL?$AAC?$AA_?$AAM?$AAO?$AAN?$AAE?$AAT?$AAA?$AAR?$AAY?$AA?$AA@ 1006d3fc     libucrt:wsetlocale.obj
 0002:00008418       ??_C@_1BG@ENIEDKID@?$AAL?$AAC?$AA_?$AAN?$AAU?$AAM?$AAE?$AAR?$AAI?$AAC?$AA?$AA@ 1006d418     libucrt:wsetlocale.obj
 0002:00008434       ??_C@_1BA@HAAOMIIG@?$AAL?$AAC?$AA_?$AAT?$AAI?$AAM?$AAE?$AA?$AA@ 1006d434     libucrt:wsetlocale.obj
 0002:000084e0       ??_C@_15NBPDDFIP@?$AA?$DN?$AA?$DL?$AA?$AA@ 1006d4e0     libucrt:wsetlocale.obj
 0002:000084e8       ??_C@_13PJJBFPED@?$AA?$DL?$AA?$AA@ 1006d4e8     libucrt:wsetlocale.obj
 0002:000084ec       ??_C@_13NMPKAAJP@?$AA?$DN?$AA?$AA@ 1006d4ec     libucrt:wsetlocale.obj
 0002:000084f0       ??_C@_13FHBKNHDA@?$AAC?$AA?$AA@ 1006d4f0     libucrt:wsetlocale.obj
 0002:000084f4       ??_C@_17MBJJLFDM@?$AA_?$AA?4?$AA?0?$AA?$AA@ 1006d4f4     libucrt:wsetlocale.obj
 0002:00008500       ??_C@_13ENNFDPBH@?$AA_?$AA?$AA@ 1006d500     libucrt:wsetlocale.obj
 0002:00008504       ??_C@_13JOFGPIOO@?$AA?4?$AA?$AA@ 1006d504     libucrt:wsetlocale.obj
 0002:00008508       ??_C@_03KOEHGMDN@Sun?$AA@  1006d508     libucrt:nlsdata.obj
 0002:0000850c       ??_C@_03PDAGKDH@Mon?$AA@   1006d50c     libucrt:nlsdata.obj
 0002:00008510       ??_C@_03NAGEINEP@Tue?$AA@  1006d510     libucrt:nlsdata.obj
 0002:00008514       ??_C@_03MHOMLAJA@Wed?$AA@  1006d514     libucrt:nlsdata.obj
 0002:00008518       ??_C@_03IOFIKPDN@Thu?$AA@  1006d518     libucrt:nlsdata.obj
 0002:0000851c       ??_C@_03IDIOELNC@Fri?$AA@  1006d51c     libucrt:nlsdata.obj
 0002:00008520       ??_C@_03FEFJNEK@Sat?$AA@   1006d520     libucrt:nlsdata.obj
 0002:00008524       ??_C@_06OOPIFAJ@Sunday?$AA@ 1006d524     libucrt:nlsdata.obj
 0002:0000852c       ??_C@_06JLEDEDGH@Monday?$AA@ 1006d52c     libucrt:nlsdata.obj
 0002:00008534       ??_C@_07BAAGCFCM@Tuesday?$AA@ 1006d534     libucrt:nlsdata.obj
 0002:00008540       ??_C@_09DLIGFAKA@Wednesday?$AA@ 1006d540     libucrt:nlsdata.obj
 0002:0000854c       ??_C@_08HACCIKIA@Thursday?$AA@ 1006d54c     libucrt:nlsdata.obj
 0002:00008558       ??_C@_06JECMNKMI@Friday?$AA@ 1006d558     libucrt:nlsdata.obj
 0002:00008560       ??_C@_08INBOOONO@Saturday?$AA@ 1006d560     libucrt:nlsdata.obj
 0002:0000856c       ??_C@_03JIHJHPIE@Jan?$AA@  1006d56c     libucrt:nlsdata.obj
 0002:00008570       ??_C@_03HJBDCHOM@Feb?$AA@  1006d570     libucrt:nlsdata.obj
 0002:00008574       ??_C@_03ODNJBKGA@Mar?$AA@  1006d574     libucrt:nlsdata.obj
 0002:00008578       ??_C@_03LEOLGMJP@Apr?$AA@  1006d578     libucrt:nlsdata.obj
 0002:0000857c       ??_C@_03CNMDKL@May?$AA@    1006d57c     libucrt:nlsdata.obj
 0002:00008580       ??_C@_03IDFGHECI@Jun?$AA@  1006d580     libucrt:nlsdata.obj
 0002:00008584       ??_C@_03LBGABGKK@Jul?$AA@  1006d584     libucrt:nlsdata.obj
 0002:00008588       ??_C@_03IFJFEIGA@Aug?$AA@  1006d588     libucrt:nlsdata.obj
 0002:0000858c       ??_C@_03GGCAPAJC@Sep?$AA@  1006d58c     libucrt:nlsdata.obj
 0002:00008590       ??_C@_03BMAOKBAD@Oct?$AA@  1006d590     libucrt:nlsdata.obj
 0002:00008594       ??_C@_03JPJOFNIA@Nov?$AA@  1006d594     libucrt:nlsdata.obj
 0002:00008598       ??_C@_03MKABNOCG@Dec?$AA@  1006d598     libucrt:nlsdata.obj
 0002:0000859c       ??_C@_07CGJPFGJA@January?$AA@ 1006d59c     libucrt:nlsdata.obj
 0002:000085a8       ??_C@_08GNJGEPFN@February?$AA@ 1006d5a8     libucrt:nlsdata.obj
 0002:000085b4       ??_C@_05HPCKOFNC@March?$AA@ 1006d5b4     libucrt:nlsdata.obj
 0002:000085bc       ??_C@_05DMJDNLEJ@April?$AA@ 1006d5bc     libucrt:nlsdata.obj
 0002:000085c4       ??_C@_04CNLMGBGM@June?$AA@ 1006d5c4     libucrt:nlsdata.obj
 0002:000085cc       ??_C@_04MIEPOIFP@July?$AA@ 1006d5cc     libucrt:nlsdata.obj
 0002:000085d4       ??_C@_06LBBHFDDG@August?$AA@ 1006d5d4     libucrt:nlsdata.obj
 0002:000085dc       ??_C@_09BHHEALKD@September?$AA@ 1006d5dc     libucrt:nlsdata.obj
 0002:000085e8       ??_C@_07JJNFCEND@October?$AA@ 1006d5e8     libucrt:nlsdata.obj
 0002:000085f4       ??_C@_08HCHEGEOA@November?$AA@ 1006d5f4     libucrt:nlsdata.obj
 0002:00008600       ??_C@_08EDHMEBNP@December?$AA@ 1006d600     libucrt:nlsdata.obj
 0002:0000860c       ??_C@_02DEDBPAFC@AM?$AA@   1006d60c     libucrt:nlsdata.obj
 0002:00008610       ??_C@_02CJNFDJBF@PM?$AA@   1006d610     libucrt:nlsdata.obj
 0002:00008614       ??_C@_08BPBNCDIB@MM?1dd?1yy?$AA@ 1006d614     libucrt:nlsdata.obj
 0002:00008620       ??_C@_0BE@CKGJFCPC@dddd?0?5MMMM?5dd?0?5yyyy?$AA@ 1006d620     libucrt:nlsdata.obj
 0002:00008638       ??_C@_08JCCMCCIL@HH?3mm?3ss?$AA@ 1006d638     libucrt:nlsdata.obj
 0002:00008644       ??_C@_17MBGCMIPB@?$AAS?$AAu?$AAn?$AA?$AA@ 1006d644     libucrt:nlsdata.obj
 0002:00008650       ??_C@_17KBOMKBF@?$AAM?$AAo?$AAn?$AA?$AA@ 1006d650     libucrt:nlsdata.obj
 0002:0000865c       ??_C@_17BMKGEGOJ@?$AAT?$AAu?$AAe?$AA?$AA@ 1006d65c     libucrt:nlsdata.obj
 0002:00008668       ??_C@_17CJEDCEPE@?$AAW?$AAe?$AAd?$AA?$AA@ 1006d668     libucrt:nlsdata.obj
 0002:00008674       ??_C@_17PDPHAADD@?$AAT?$AAh?$AAu?$AA?$AA@ 1006d674     libucrt:nlsdata.obj
 0002:00008680       ??_C@_17HFOLPPLP@?$AAF?$AAr?$AAi?$AA?$AA@ 1006d680     libucrt:nlsdata.obj
 0002:0000868c       ??_C@_17GGIBDPIH@?$AAS?$AAa?$AAt?$AA?$AA@ 1006d68c     libucrt:nlsdata.obj
 0002:00008698       ??_C@_1O@IHNHDHPB@?$AAS?$AAu?$AAn?$AAd?$AAa?$AAy?$AA?$AA@ 1006d698     libucrt:nlsdata.obj
 0002:000086a8       ??_C@_1O@MMNBFLIA@?$AAM?$AAo?$AAn?$AAd?$AAa?$AAy?$AA?$AA@ 1006d6a8     libucrt:nlsdata.obj
 0002:000086b8       ??_C@_1BA@ENFBFFEK@?$AAT?$AAu?$AAe?$AAs?$AAd?$AAa?$AAy?$AA?$AA@ 1006d6b8     libucrt:nlsdata.obj
 0002:000086cc       ??_C@_1BE@EBOGMDOH@?$AAW?$AAe?$AAd?$AAn?$AAe?$AAs?$AAd?$AAa?$AAy?$AA?$AA@ 1006d6cc     libucrt:nlsdata.obj
 0002:000086e4       ??_C@_1BC@HHMNLIHE@?$AAT?$AAh?$AAu?$AAr?$AAs?$AAd?$AAa?$AAy?$AA?$AA@ 1006d6e4     libucrt:nlsdata.obj
 0002:000086fc       ??_C@_1O@PDICJHAG@?$AAF?$AAr?$AAi?$AAd?$AAa?$AAy?$AA?$AA@ 1006d6fc     libucrt:nlsdata.obj
 0002:0000870c       ??_C@_1BC@ENMNNPAJ@?$AAS?$AAa?$AAt?$AAu?$AAr?$AAd?$AAa?$AAy?$AA?$AA@ 1006d70c     libucrt:nlsdata.obj
 0002:00008724       ??_C@_17DKNBKCHM@?$AAJ?$AAa?$AAn?$AA?$AA@ 1006d724     libucrt:nlsdata.obj
 0002:00008730       ??_C@_17LMDJEKJN@?$AAF?$AAe?$AAb?$AA?$AA@ 1006d730     libucrt:nlsdata.obj
 0002:0000873c       ??_C@_17CKNLEDEC@?$AAM?$AAa?$AAr?$AA?$AA@ 1006d73c     libucrt:nlsdata.obj
 0002:00008748       ??_C@_17LFPOIHDD@?$AAA?$AAp?$AAr?$AA?$AA@ 1006d748     libucrt:nlsdata.obj
 0002:00008754       ??_C@_17PNNKMEED@?$AAM?$AAa?$AAy?$AA?$AA@ 1006d754     libucrt:nlsdata.obj
 0002:00008760       ??_C@_17KCJGOCPB@?$AAJ?$AAu?$AAn?$AA?$AA@ 1006d760     libucrt:nlsdata.obj
 0002:0000876c       ??_C@_17IJPCKHK@?$AAJ?$AAu?$AAl?$AA?$AA@ 1006d76c     libucrt:nlsdata.obj
 0002:00008778       ??_C@_17ICPELBCN@?$AAA?$AAu?$AAg?$AA?$AA@ 1006d778     libucrt:nlsdata.obj
 0002:00008784       ??_C@_17HCHCOKMG@?$AAS?$AAe?$AAp?$AA?$AA@ 1006d784     libucrt:nlsdata.obj
 0002:00008790       ??_C@_17FNLKOI@?$AAO?$AAc?$AAt?$AA?$AA@ 1006d790     libucrt:nlsdata.obj
 0002:0000879c       ??_C@_17BBDMLCIG@?$AAN?$AAo?$AAv?$AA?$AA@ 1006d79c     libucrt:nlsdata.obj
 0002:000087a8       ??_C@_17EGKACKIF@?$AAD?$AAe?$AAc?$AA?$AA@ 1006d7a8     libucrt:nlsdata.obj
 0002:000087b4       ??_C@_1BA@EFMEIEBA@?$AAJ?$AAa?$AAn?$AAu?$AAa?$AAr?$AAy?$AA?$AA@ 1006d7b4     libucrt:nlsdata.obj
 0002:000087c8       ??_C@_1BC@JGDDFFAM@?$AAF?$AAe?$AAb?$AAr?$AAu?$AAa?$AAr?$AAy?$AA?$AA@ 1006d7c8     libucrt:nlsdata.obj
 0002:000087e0       ??_C@_1M@IKEENEDF@?$AAM?$AAa?$AAr?$AAc?$AAh?$AA?$AA@ 1006d7e0     libucrt:nlsdata.obj
 0002:000087f0       ??_C@_1M@GJNLMHFD@?$AAA?$AAp?$AAr?$AAi?$AAl?$AA?$AA@ 1006d7f0     libucrt:nlsdata.obj
 0002:00008800       ??_C@_19EPFLPGAP@?$AAJ?$AAu?$AAn?$AAe?$AA?$AA@ 1006d800     libucrt:nlsdata.obj
 0002:0000880c       ??_C@_19BIFMLPCD@?$AAJ?$AAu?$AAl?$AAy?$AA?$AA@ 1006d80c     libucrt:nlsdata.obj
 0002:00008818       ??_C@_1O@PAHLKOAC@?$AAA?$AAu?$AAg?$AAu?$AAs?$AAt?$AA?$AA@ 1006d818     libucrt:nlsdata.obj
 0002:00008828       ??_C@_1BE@DKAAMBJL@?$AAS?$AAe?$AAp?$AAt?$AAe?$AAm?$AAb?$AAe?$AAr?$AA?$AA@ 1006d828     libucrt:nlsdata.obj
 0002:00008840       ??_C@_1BA@EPANDLNG@?$AAO?$AAc?$AAt?$AAo?$AAb?$AAe?$AAr?$AA?$AA@ 1006d840     libucrt:nlsdata.obj
 0002:00008854       ??_C@_1BC@BGLIFPF@?$AAN?$AAo?$AAv?$AAe?$AAm?$AAb?$AAe?$AAr?$AA?$AA@ 1006d854     libucrt:nlsdata.obj
 0002:0000886c       ??_C@_1BC@FEMKIFH@?$AAD?$AAe?$AAc?$AAe?$AAm?$AAb?$AAe?$AAr?$AA?$AA@ 1006d86c     libucrt:nlsdata.obj
 0002:00008884       ??_C@_15ODEHAHHF@?$AAA?$AAM?$AA?$AA@ 1006d884     libucrt:nlsdata.obj
 0002:0000888c       ??_C@_15CLMNNGEL@?$AAP?$AAM?$AA?$AA@ 1006d88c     libucrt:nlsdata.obj
 0002:00008894       ??_C@_1BC@IEBCMHCM@?$AAM?$AAM?$AA?1?$AAd?$AAd?$AA?1?$AAy?$AAy?$AA?$AA@ 1006d894     libucrt:nlsdata.obj
 0002:000088ac       ??_C@_1CI@KNAKOEBC@?$AAd?$AAd?$AAd?$AAd?$AA?0?$AA?5?$AAM?$AAM?$AAM?$AAM?$AA?5?$AAd?$AAd?$AA?0?$AA?5?$AAy?$AAy?$AAy?$AAy?$AA?$AA@ 1006d8ac     libucrt:nlsdata.obj
 0002:000088dc       ??_C@_1BC@GDGBMEMK@?$AAH?$AAH?$AA?3?$AAm?$AAm?$AA?3?$AAs?$AAs?$AA?$AA@ 1006d8dc     libucrt:nlsdata.obj
 0002:000088f4       ??_C@_1M@BMHNFIME@?$AAe?$AAn?$AA?9?$AAU?$AAS?$AA?$AA@ 1006d8f4     libucrt:nlsdata.obj
 0002:00008908       ___lc_time_c               1006d908     libucrt:nlsdata.obj
 0002:00008ab4       ?ccs@?BL@???$__acrt_stdio_parse_mode@D@@YA?AU__acrt_stdio_stream_mode@@QBD@Z@4QBDB 1006dab4     libucrt:openfile.obj
 0002:00008ab8       ?utf8_encoding@?BL@???$__acrt_stdio_parse_mode@D@@YA?AU__acrt_stdio_stream_mode@@QBD@Z@4QBDB 1006dab8     libucrt:openfile.obj
 0002:00008ac0       ?utf16_encoding@?BL@???$__acrt_stdio_parse_mode@D@@YA?AU__acrt_stdio_stream_mode@@QBD@Z@4QBDB 1006dac0     libucrt:openfile.obj
 0002:00008acc       ?unicode_encoding@?BL@???$__acrt_stdio_parse_mode@D@@YA?AU__acrt_stdio_stream_mode@@QBD@Z@4QBDB 1006dacc     libucrt:openfile.obj
 0002:00008ad4       ?ccs@?BL@???$__acrt_stdio_parse_mode@_W@@YA?AU__acrt_stdio_stream_mode@@QB_W@Z@4QB_WB 1006dad4     libucrt:openfile.obj
 0002:00008adc       ?utf8_encoding@?BL@???$__acrt_stdio_parse_mode@_W@@YA?AU__acrt_stdio_stream_mode@@QB_W@Z@4QB_WB 1006dadc     libucrt:openfile.obj
 0002:00008ae8       ?utf16_encoding@?BL@???$__acrt_stdio_parse_mode@_W@@YA?AU__acrt_stdio_stream_mode@@QB_W@Z@4QB_WB 1006dae8     libucrt:openfile.obj
 0002:00008afc       ?unicode_encoding@?BL@???$__acrt_stdio_parse_mode@_W@@YA?AU__acrt_stdio_stream_mode@@QB_W@Z@4QB_WB 1006dafc     libucrt:openfile.obj
 0002:00008b10       __d_inf                    1006db10     libucrt:util.obj
 0002:00008b20       __d_ind                    1006db20     libucrt:util.obj
 0002:00008b30       __d_max                    1006db30     libucrt:util.obj
 0002:00008b40       __d_min                    1006db40     libucrt:util.obj
 0002:00008b50       __d_mzero                  1006db50     libucrt:util.obj
 0002:00008b7c       ??_C@_1DE@JNGNBFGO@?$AAR?$AAu?$AAn?$AAt?$AAi?$AAm?$AAe?$AA?5?$AAE?$AAr?$AAr?$AAo?$AAr?$AA?$CB?$AA?6?$AA?6?$AAP?$AAr?$AAo?$AAg?$AAr?$AAa?$AAm?$AA?3?$AA?5?$AA?$AA@ 1006db7c     libucrt:report_runtime_error.obj
 0002:00008bd0       ??_C@_1M@HPNHIDJI@?$AAj?$AAa?$AA?9?$AAJ?$AAP?$AA?$AA@ 1006dbd0     libucrt:mbctype.obj
 0002:00008be0       ??_C@_1M@BIBDDEMK@?$AAz?$AAh?$AA?9?$AAC?$AAN?$AA?$AA@ 1006dbe0     libucrt:mbctype.obj
 0002:00008bf0       ??_C@_1M@JLOOOEGK@?$AAk?$AAo?$AA?9?$AAK?$AAR?$AA?$AA@ 1006dbf0     libucrt:mbctype.obj
 0002:00008c00       ??_C@_1M@CLNBBOPM@?$AAz?$AAh?$AA?9?$AAT?$AAW?$AA?$AA@ 1006dc00     libucrt:mbctype.obj
 0002:00008c10       __wctype                   1006dc10     libucrt:ctype.obj
 0002:00008e80       ___newctype                1006de80     libucrt:ctype.obj
 0002:00009220       ___newclmap                1006e220     libucrt:ctype.obj
 0002:000093f0       ___newcumap                1006e3f0     libucrt:ctype.obj
 0002:00009e4c       ??_C@_15EMKDOKLE@?$AAa?$AAr?$AA?$AA@ 1006ee4c     libucrt:lcidtoname_downlevel.obj
 0002:00009e54       ??_C@_15KNPADPLH@?$AAb?$AAg?$AA?$AA@ 1006ee54     libucrt:lcidtoname_downlevel.obj
 0002:00009e5c       ??_C@_15EDMHLDMO@?$AAc?$AAa?$AA?$AA@ 1006ee5c     libucrt:lcidtoname_downlevel.obj
 0002:00009e64       ??_C@_1O@BPEAJADD@?$AAz?$AAh?$AA?9?$AAC?$AAH?$AAS?$AA?$AA@ 1006ee64     libucrt:lcidtoname_downlevel.obj
 0002:00009e74       ??_C@_15LJNHCMNK@?$AAc?$AAs?$AA?$AA@ 1006ee74     libucrt:lcidtoname_downlevel.obj
 0002:00009e7c       ??_C@_15FOMCIDHG@?$AAd?$AAa?$AA?$AA@ 1006ee7c     libucrt:lcidtoname_downlevel.obj
 0002:00009e84       ??_C@_15NBKABECB@?$AAd?$AAe?$AA?$AA@ 1006ee84     libucrt:lcidtoname_downlevel.obj
 0002:00009e8c       ??_C@_15GHPEIIAO@?$AAe?$AAl?$AA?$AA@ 1006ee8c     libucrt:lcidtoname_downlevel.obj
 0002:00009e94       ??_C@_15MNPNEAIF@?$AAe?$AAn?$AA?$AA@ 1006ee94     libucrt:lcidtoname_downlevel.obj
 0002:00009e9c       ??_C@_15GPIOMPMH@?$AAe?$AAs?$AA?$AA@ 1006ee9c     libucrt:lcidtoname_downlevel.obj
 0002:00009ea4       ??_C@_15NGLOAKJC@?$AAf?$AAi?$AA?$AA@ 1006eea4     libucrt:lcidtoname_downlevel.obj
 0002:00009eac       ??_C@_15FBKGNKAM@?$AAf?$AAr?$AA?$AA@ 1006eeac     libucrt:lcidtoname_downlevel.obj
 0002:00009eb4       ??_C@_15KGGCNEFK@?$AAh?$AAe?$AA?$AA@ 1006eeb4     libucrt:lcidtoname_downlevel.obj
 0002:00009ebc       ??_C@_15PGHLIDMF@?$AAh?$AAu?$AA?$AA@ 1006eebc     libucrt:lcidtoname_downlevel.obj
 0002:00009ec4       ??_C@_15BIEMAPLM@?$AAi?$AAs?$AA?$AA@ 1006eec4     libucrt:lcidtoname_downlevel.obj
 0002:00009ecc       ??_C@_15IFJLDHAF@?$AAi?$AAt?$AA?$AA@ 1006eecc     libucrt:lcidtoname_downlevel.obj
 0002:00009ed4       ??_C@_15GEMIOCAG@?$AAj?$AAa?$AA?$AA@ 1006eed4     libucrt:lcidtoname_downlevel.obj
 0002:00009edc       ??_C@_15EPELEGJA@?$AAk?$AAo?$AA?$AA@ 1006eedc     libucrt:lcidtoname_downlevel.obj
 0002:00009ee4       ??_C@_15NDDHIMN@?$AAn?$AAl?$AA?$AA@ 1006eee4     libucrt:lcidtoname_downlevel.obj
 0002:00009eec       ??_C@_15BPIGNHCD@?$AAn?$AAo?$AA?$AA@ 1006eeec     libucrt:lcidtoname_downlevel.obj
 0002:00009ef4       ??_C@_15DEOPBLCG@?$AAp?$AAl?$AA?$AA@ 1006eef4     libucrt:lcidtoname_downlevel.obj
 0002:00009efc       ??_C@_15KBECGEFG@?$AAp?$AAt?$AA?$AA@ 1006eefc     libucrt:lcidtoname_downlevel.obj
 0002:00009f04       ??_C@_15GLJCBFMD@?$AAr?$AAo?$AA?$AA@ 1006ef04     libucrt:lcidtoname_downlevel.obj
 0002:00009f0c       ??_C@_15FEDGKCDI@?$AAr?$AAu?$AA?$AA@ 1006ef0c     libucrt:lcidtoname_downlevel.obj
 0002:00009f14       ??_C@_15GLKMLLHM@?$AAh?$AAr?$AA?$AA@ 1006ef14     libucrt:lcidtoname_downlevel.obj
 0002:00009f1c       ??_C@_15CPKMFBDB@?$AAs?$AAk?$AA?$AA@ 1006ef1c     libucrt:lcidtoname_downlevel.obj
 0002:00009f24       ??_C@_15BAAIOGMK@?$AAs?$AAq?$AA?$AA@ 1006ef24     libucrt:lcidtoname_downlevel.obj
 0002:00009f2c       ??_C@_15INNPNOHD@?$AAs?$AAv?$AA?$AA@ 1006ef2c     libucrt:lcidtoname_downlevel.obj
 0002:00009f34       ??_C@_15CABMMOGH@?$AAt?$AAh?$AA?$AA@ 1006ef34     libucrt:lcidtoname_downlevel.obj
 0002:00009f3c       ??_C@_15BPLIHJJM@?$AAt?$AAr?$AA?$AA@ 1006ef3c     libucrt:lcidtoname_downlevel.obj
 0002:00009f44       ??_C@_15NEOEKKDJ@?$AAu?$AAr?$AA?$AA@ 1006ef44     libucrt:lcidtoname_downlevel.obj
 0002:00009f4c       ??_C@_15NFICGAJK@?$AAi?$AAd?$AA?$AA@ 1006ef4c     libucrt:lcidtoname_downlevel.obj
 0002:00009f54       ??_C@_15PJPFLCCM@?$AAu?$AAk?$AA?$AA@ 1006ef54     libucrt:lcidtoname_downlevel.obj
 0002:00009f5c       ??_C@_15HPJPHDM@?$AAb?$AAe?$AA?$AA@ 1006ef5c     libucrt:lcidtoname_downlevel.obj
 0002:00009f64       ??_C@_15LCHLGJII@?$AAs?$AAl?$AA?$AA@ 1006ef64     libucrt:lcidtoname_downlevel.obj
 0002:00009f6c       ??_C@_15PCFJPHHO@?$AAe?$AAt?$AA?$AA@ 1006ef6c     libucrt:lcidtoname_downlevel.obj
 0002:00009f74       ??_C@_15HPFPGODN@?$AAl?$AAv?$AA?$AA@ 1006ef74     libucrt:lcidtoname_downlevel.obj
 0002:00009f7c       ??_C@_15NFFGKGLG@?$AAl?$AAt?$AA?$AA@ 1006ef7c     libucrt:lcidtoname_downlevel.obj
 0002:00009f84       ??_C@_15BDAKCCHN@?$AAf?$AAa?$AA?$AA@ 1006ef84     libucrt:lcidtoname_downlevel.obj
 0002:00009f8c       ??_C@_15NFGIAIAJ@?$AAv?$AAi?$AA?$AA@ 1006ef8c     libucrt:lcidtoname_downlevel.obj
 0002:00009f94       ??_C@_15LMKNDMHN@?$AAh?$AAy?$AA?$AA@ 1006ef94     libucrt:lcidtoname_downlevel.obj
 0002:00009f9c       ??_C@_15IJBHMCFL@?$AAa?$AAz?$AA?$AA@ 1006ef9c     libucrt:lcidtoname_downlevel.obj
 0002:00009fa4       ??_C@_15EKOFJABL@?$AAe?$AAu?$AA?$AA@ 1006efa4     libucrt:lcidtoname_downlevel.obj
 0002:00009fac       ??_C@_15BGHADCNK@?$AAm?$AAk?$AA?$AA@ 1006efac     libucrt:lcidtoname_downlevel.obj
 0002:00009fb4       ??_C@_15JDNICKHM@?$AAa?$AAf?$AA?$AA@ 1006efb4     libucrt:lcidtoname_downlevel.obj
 0002:00009fbc       ??_C@_15KPJEDBKD@?$AAk?$AAa?$AA?$AA@ 1006efbc     libucrt:lcidtoname_downlevel.obj
 0002:00009fc4       ??_C@_15PDNFFFEO@?$AAf?$AAo?$AA?$AA@ 1006efc4     libucrt:lcidtoname_downlevel.obj
 0002:00009fcc       ??_C@_15OMLEGLOC@?$AAh?$AAi?$AA?$AA@ 1006efcc     libucrt:lcidtoname_downlevel.obj
 0002:00009fd4       ??_C@_15IDNNENKK@?$AAm?$AAs?$AA?$AA@ 1006efd4     libucrt:lcidtoname_downlevel.obj
 0002:00009fdc       ??_C@_15MACJNBMH@?$AAk?$AAk?$AA?$AA@ 1006efdc     libucrt:lcidtoname_downlevel.obj
 0002:00009fe4       ??_C@_15DKDJEOND@?$AAk?$AAy?$AA?$AA@ 1006efe4     libucrt:lcidtoname_downlevel.obj
 0002:00009fec       ??_C@_15DFGDLJBG@?$AAs?$AAw?$AA?$AA@ 1006efec     libucrt:lcidtoname_downlevel.obj
 0002:00009ff4       ??_C@_15BBFAICNG@?$AAu?$AAz?$AA?$AA@ 1006eff4     libucrt:lcidtoname_downlevel.obj
 0002:00009ffc       ??_C@_15DKNDCGEA@?$AAt?$AAt?$AA?$AA@ 1006effc     libucrt:lcidtoname_downlevel.obj
 0002:0000a004       ??_C@_15MGIFMDPL@?$AAp?$AAa?$AA?$AA@ 1006f004     libucrt:lcidtoname_downlevel.obj
 0002:0000a00c       ??_C@_15HCNDBBA@?$AAg?$AAu?$AA?$AA@ 1006f00c     libucrt:lcidtoname_downlevel.obj
 0002:0000a014       ??_C@_15FNBEIBON@?$AAt?$AAa?$AA?$AA@ 1006f014     libucrt:lcidtoname_downlevel.obj
 0002:0000a01c       ??_C@_15NCHGBGLK@?$AAt?$AAe?$AA?$AA@ 1006f01c     libucrt:lcidtoname_downlevel.obj
 0002:0000a024       ??_C@_15PHPHCBPF@?$AAk?$AAn?$AA?$AA@ 1006f024     libucrt:lcidtoname_downlevel.obj
 0002:0000a02c       ??_C@_15DLGBCKMP@?$AAm?$AAr?$AA?$AA@ 1006f02c     libucrt:lcidtoname_downlevel.obj
 0002:0000a034       ??_C@_15EABBLBFF@?$AAs?$AAa?$AA?$AA@ 1006f034     libucrt:lcidtoname_downlevel.obj
 0002:0000a03c       ??_C@_15CBKOMCOI@?$AAm?$AAn?$AA?$AA@ 1006f03c     libucrt:lcidtoname_downlevel.obj
 0002:0000a044       ??_C@_15CKDMCJAF@?$AAg?$AAl?$AA?$AA@ 1006f044     libucrt:lcidtoname_downlevel.obj
 0002:0000a04c       ??_C@_17CNJFBPG@?$AAk?$AAo?$AAk?$AA?$AA@ 1006f04c     libucrt:lcidtoname_downlevel.obj
 0002:0000a058       ??_C@_17FFBJICPL@?$AAs?$AAy?$AAr?$AA?$AA@ 1006f058     libucrt:lcidtoname_downlevel.obj
 0002:0000a064       ??_C@_17KPNDCPAF@?$AAd?$AAi?$AAv?$AA?$AA@ 1006f064     libucrt:lcidtoname_downlevel.obj
 0002:0000a070       ??_C@_11LOCGONAA@?$AA?$AA@ 1006f070     libucrt:lcidtoname_downlevel.obj
 0002:0000a074       ??_C@_1M@OKAHONE@?$AAa?$AAr?$AA?9?$AAS?$AAA?$AA?$AA@ 1006f074     libucrt:lcidtoname_downlevel.obj
 0002:0000a084       ??_C@_1M@FFFIGIGK@?$AAb?$AAg?$AA?9?$AAB?$AAG?$AA?$AA@ 1006f084     libucrt:lcidtoname_downlevel.obj
 0002:0000a094       ??_C@_1M@BJNKEDC@?$AAc?$AAa?$AA?9?$AAE?$AAS?$AA?$AA@ 1006f094     libucrt:lcidtoname_downlevel.obj
 0002:0000a0a4       ??_C@_1M@IJJHFJHA@?$AAc?$AAs?$AA?9?$AAC?$AAZ?$AA?$AA@ 1006f0a4     libucrt:lcidtoname_downlevel.obj
 0002:0000a0b4       ??_C@_1M@CLPEOBGI@?$AAd?$AAa?$AA?9?$AAD?$AAK?$AA?$AA@ 1006f0b4     libucrt:lcidtoname_downlevel.obj
 0002:0000a0c4       ??_C@_1M@MCMADGCB@?$AAd?$AAe?$AA?9?$AAD?$AAE?$AA?$AA@ 1006f0c4     libucrt:lcidtoname_downlevel.obj
 0002:0000a0d4       ??_C@_1M@OOCKEMAM@?$AAe?$AAl?$AA?9?$AAG?$AAR?$AA?$AA@ 1006f0d4     libucrt:lcidtoname_downlevel.obj
 0002:0000a0e4       ??_C@_1M@DDNJFGID@?$AAf?$AAi?$AA?9?$AAF?$AAI?$AA?$AA@ 1006f0e4     libucrt:lcidtoname_downlevel.obj
 0002:0000a0f4       ??_C@_1M@GLIPPMAC@?$AAf?$AAr?$AA?9?$AAF?$AAR?$AA?$AA@ 1006f0f4     libucrt:lcidtoname_downlevel.obj
 0002:0000a104       ??_C@_1M@GFMCHPE@?$AAh?$AAe?$AA?9?$AAI?$AAL?$AA?$AA@ 1006f104     libucrt:lcidtoname_downlevel.obj
 0002:0000a114       ??_C@_1M@MHLPGNKM@?$AAh?$AAu?$AA?9?$AAH?$AAU?$AA?$AA@ 1006f114     libucrt:lcidtoname_downlevel.obj
 0002:0000a124       ??_C@_1M@LPDDNNPN@?$AAi?$AAs?$AA?9?$AAI?$AAS?$AA?$AA@ 1006f124     libucrt:lcidtoname_downlevel.obj
 0002:0000a134       ??_C@_1M@MADIPODN@?$AAi?$AAt?$AA?9?$AAI?$AAT?$AA?$AA@ 1006f134     libucrt:lcidtoname_downlevel.obj
 0002:0000a144       ??_C@_1M@IHBJJGG@?$AAn?$AAl?$AA?9?$AAN?$AAL?$AA?$AA@ 1006f144     libucrt:lcidtoname_downlevel.obj
 0002:0000a154       ??_C@_1M@EANAGDL@?$AAn?$AAb?$AA?9?$AAN?$AAO?$AA?$AA@ 1006f154     libucrt:lcidtoname_downlevel.obj
 0002:0000a164       ??_C@_1M@NEIEMEGP@?$AAp?$AAl?$AA?9?$AAP?$AAL?$AA?$AA@ 1006f164     libucrt:lcidtoname_downlevel.obj
 0002:0000a174       ??_C@_1M@BOCFIGEP@?$AAp?$AAt?$AA?9?$AAB?$AAR?$AA?$AA@ 1006f174     libucrt:lcidtoname_downlevel.obj
 0002:0000a184       ??_C@_1M@IMPFOPBG@?$AAr?$AAo?$AA?9?$AAR?$AAO?$AA?$AA@ 1006f184     libucrt:lcidtoname_downlevel.obj
 0002:0000a194       ??_C@_1M@IDNNEJMM@?$AAr?$AAu?$AA?9?$AAR?$AAU?$AA?$AA@ 1006f194     libucrt:lcidtoname_downlevel.obj
 0002:0000a1a4       ??_C@_1M@LILEEOGM@?$AAh?$AAr?$AA?9?$AAH?$AAR?$AA?$AA@ 1006f1a4     libucrt:lcidtoname_downlevel.obj
 0002:0000a1b4       ??_C@_1M@FKIFEHPB@?$AAs?$AAk?$AA?9?$AAS?$AAK?$AA?$AA@ 1006f1b4     libucrt:lcidtoname_downlevel.obj
 0002:0000a1c4       ??_C@_1M@LJMAMNPJ@?$AAs?$AAq?$AA?9?$AAA?$AAL?$AA?$AA@ 1006f1c4     libucrt:lcidtoname_downlevel.obj
 0002:0000a1d4       ??_C@_1M@GIAKDKJK@?$AAs?$AAv?$AA?9?$AAS?$AAE?$AA?$AA@ 1006f1d4     libucrt:lcidtoname_downlevel.obj
 0002:0000a1e4       ??_C@_1M@MKJKIKCL@?$AAt?$AAh?$AA?9?$AAT?$AAH?$AA?$AA@ 1006f1e4     libucrt:lcidtoname_downlevel.obj
 0002:0000a1f4       ??_C@_1M@MFLCCMPB@?$AAt?$AAr?$AA?9?$AAT?$AAR?$AA?$AA@ 1006f1f4     libucrt:lcidtoname_downlevel.obj
 0002:0000a204       ??_C@_1M@OIJHDKJN@?$AAu?$AAr?$AA?9?$AAP?$AAK?$AA?$AA@ 1006f204     libucrt:lcidtoname_downlevel.obj
 0002:0000a214       ??_C@_1M@LHIPCIEK@?$AAi?$AAd?$AA?9?$AAI?$AAD?$AA?$AA@ 1006f214     libucrt:lcidtoname_downlevel.obj
 0002:0000a224       ??_C@_1M@MFMOBGI@?$AAu?$AAk?$AA?9?$AAU?$AAA?$AA?$AA@ 1006f224     libucrt:lcidtoname_downlevel.obj
 0002:0000a234       ??_C@_1M@OBGLJIPL@?$AAb?$AAe?$AA?9?$AAB?$AAY?$AA?$AA@ 1006f234     libucrt:lcidtoname_downlevel.obj
 0002:0000a244       ??_C@_1M@BCFAJEAD@?$AAs?$AAl?$AA?9?$AAS?$AAI?$AA?$AA@ 1006f244     libucrt:lcidtoname_downlevel.obj
 0002:0000a254       ??_C@_1M@FKFFEDDN@?$AAe?$AAt?$AA?9?$AAE?$AAE?$AA?$AA@ 1006f254     libucrt:lcidtoname_downlevel.obj
 0002:0000a264       ??_C@_1M@KGKKAACI@?$AAl?$AAv?$AA?9?$AAL?$AAV?$AA?$AA@ 1006f264     libucrt:lcidtoname_downlevel.obj
 0002:0000a274       ??_C@_1M@IFGBIJO@?$AAl?$AAt?$AA?9?$AAL?$AAT?$AA?$AA@ 1006f274     libucrt:lcidtoname_downlevel.obj
 0002:0000a284       ??_C@_1M@FGEAHEDM@?$AAf?$AAa?$AA?9?$AAI?$AAR?$AA?$AA@ 1006f284     libucrt:lcidtoname_downlevel.obj
 0002:0000a294       ??_C@_1M@KBMAIBFN@?$AAv?$AAi?$AA?9?$AAV?$AAN?$AA?$AA@ 1006f294     libucrt:lcidtoname_downlevel.obj
 0002:0000a2a4       ??_C@_1M@GPCBKDJK@?$AAh?$AAy?$AA?9?$AAA?$AAM?$AA?$AA@ 1006f2a4     libucrt:lcidtoname_downlevel.obj
 0002:0000a2b4       ??_C@_1BG@BECMDDJB@?$AAa?$AAz?$AA?9?$AAA?$AAZ?$AA?9?$AAL?$AAa?$AAt?$AAn?$AA?$AA@ 1006f2b4     libucrt:lcidtoname_downlevel.obj
 0002:0000a2d0       ??_C@_1M@MAOFCAEA@?$AAe?$AAu?$AA?9?$AAE?$AAS?$AA?$AA@ 1006f2d0     libucrt:lcidtoname_downlevel.obj
 0002:0000a2e0       ??_C@_1M@IGHABKPI@?$AAm?$AAk?$AA?9?$AAM?$AAK?$AA?$AA@ 1006f2e0     libucrt:lcidtoname_downlevel.obj
 0002:0000a2f0       ??_C@_1M@IAIGNEJG@?$AAt?$AAn?$AA?9?$AAZ?$AAA?$AA?$AA@ 1006f2f0     libucrt:lcidtoname_downlevel.obj
 0002:0000a300       ??_C@_1M@IIJCOJFA@?$AAx?$AAh?$AA?9?$AAZ?$AAA?$AA?$AA@ 1006f300     libucrt:lcidtoname_downlevel.obj
 0002:0000a310       ??_C@_1M@LGPJHNJH@?$AAz?$AAu?$AA?9?$AAZ?$AAA?$AA?$AA@ 1006f310     libucrt:lcidtoname_downlevel.obj
 0002:0000a320       ??_C@_1M@HOKAOIO@?$AAa?$AAf?$AA?9?$AAZ?$AAA?$AA?$AA@ 1006f320     libucrt:lcidtoname_downlevel.obj
 0002:0000a330       ??_C@_1M@DPCLHLIE@?$AAk?$AAa?$AA?9?$AAG?$AAE?$AA?$AA@ 1006f330     libucrt:lcidtoname_downlevel.obj
 0002:0000a340       ??_C@_1M@BLKMHJBI@?$AAf?$AAo?$AA?9?$AAF?$AAO?$AA?$AA@ 1006f340     libucrt:lcidtoname_downlevel.obj
 0002:0000a350       ??_C@_1M@LGGJAPPB@?$AAh?$AAi?$AA?9?$AAI?$AAN?$AA?$AA@ 1006f350     libucrt:lcidtoname_downlevel.obj
 0002:0000a360       ??_C@_1M@FIKPIHFE@?$AAm?$AAt?$AA?9?$AAM?$AAT?$AA?$AA@ 1006f360     libucrt:lcidtoname_downlevel.obj
 0002:0000a370       ??_C@_1M@HEGGPBFA@?$AAs?$AAe?$AA?9?$AAN?$AAO?$AA?$AA@ 1006f370     libucrt:lcidtoname_downlevel.obj
 0002:0000a380       ??_C@_1M@EIBJEEPA@?$AAm?$AAs?$AA?9?$AAM?$AAY?$AA?$AA@ 1006f380     libucrt:lcidtoname_downlevel.obj
 0002:0000a390       ??_C@_1M@FHLBGMPP@?$AAk?$AAk?$AA?9?$AAK?$AAZ?$AA?$AA@ 1006f390     libucrt:lcidtoname_downlevel.obj
 0002:0000a3a0       ??_C@_1M@NGJJLCGI@?$AAk?$AAy?$AA?9?$AAK?$AAG?$AA?$AA@ 1006f3a0     libucrt:lcidtoname_downlevel.obj
 0002:0000a3b0       ??_C@_1M@GIENNBFC@?$AAs?$AAw?$AA?9?$AAK?$AAE?$AA?$AA@ 1006f3b0     libucrt:lcidtoname_downlevel.obj
 0002:0000a3c0       ??_C@_1BG@NDGMJIMJ@?$AAu?$AAz?$AA?9?$AAU?$AAZ?$AA?9?$AAL?$AAa?$AAt?$AAn?$AA?$AA@ 1006f3c0     libucrt:lcidtoname_downlevel.obj
 0002:0000a3dc       ??_C@_1M@IDCCIHBC@?$AAt?$AAt?$AA?9?$AAR?$AAU?$AA?$AA@ 1006f3dc     libucrt:lcidtoname_downlevel.obj
 0002:0000a3ec       ??_C@_1M@LOICPMOJ@?$AAb?$AAn?$AA?9?$AAI?$AAN?$AA?$AA@ 1006f3ec     libucrt:lcidtoname_downlevel.obj
 0002:0000a3fc       ??_C@_1M@KPKKNEAH@?$AAp?$AAa?$AA?9?$AAI?$AAN?$AA?$AA@ 1006f3fc     libucrt:lcidtoname_downlevel.obj
 0002:0000a40c       ??_C@_1M@PJGPPBOG@?$AAg?$AAu?$AA?9?$AAI?$AAN?$AA?$AA@ 1006f40c     libucrt:lcidtoname_downlevel.obj
 0002:0000a41c       ??_C@_1M@KMKMOPHI@?$AAt?$AAa?$AA?9?$AAI?$AAN?$AA?$AA@ 1006f41c     libucrt:lcidtoname_downlevel.obj
 0002:0000a42c       ??_C@_1M@KFEHEPAC@?$AAt?$AAe?$AA?9?$AAI?$AAN?$AA?$AA@ 1006f42c     libucrt:lcidtoname_downlevel.obj
 0002:0000a43c       ??_C@_1M@CDCLMGHI@?$AAk?$AAn?$AA?9?$AAI?$AAN?$AA?$AA@ 1006f43c     libucrt:lcidtoname_downlevel.obj
 0002:0000a44c       ??_C@_1M@MIODLDKF@?$AAm?$AAl?$AA?9?$AAI?$AAN?$AA?$AA@ 1006f44c     libucrt:lcidtoname_downlevel.obj
 0002:0000a45c       ??_C@_1M@PBIEACPO@?$AAm?$AAr?$AA?9?$AAI?$AAN?$AA?$AA@ 1006f45c     libucrt:lcidtoname_downlevel.obj
 0002:0000a46c       ??_C@_1M@NIDEAGPH@?$AAs?$AAa?$AA?9?$AAI?$AAN?$AA?$AA@ 1006f46c     libucrt:lcidtoname_downlevel.obj
 0002:0000a47c       ??_C@_1M@FHIHCBIO@?$AAm?$AAn?$AA?9?$AAM?$AAN?$AA?$AA@ 1006f47c     libucrt:lcidtoname_downlevel.obj
 0002:0000a48c       ??_C@_1M@JAIJPENP@?$AAc?$AAy?$AA?9?$AAG?$AAB?$AA?$AA@ 1006f48c     libucrt:lcidtoname_downlevel.obj
 0002:0000a49c       ??_C@_1M@PHGFBEPN@?$AAg?$AAl?$AA?9?$AAE?$AAS?$AA?$AA@ 1006f49c     libucrt:lcidtoname_downlevel.obj
 0002:0000a4ac       ??_C@_1O@KPIPDNCP@?$AAk?$AAo?$AAk?$AA?9?$AAI?$AAN?$AA?$AA@ 1006f4ac     libucrt:lcidtoname_downlevel.obj
 0002:0000a4bc       ??_C@_1O@KNHJLDJA@?$AAs?$AAy?$AAr?$AA?9?$AAS?$AAY?$AA?$AA@ 1006f4bc     libucrt:lcidtoname_downlevel.obj
 0002:0000a4cc       ??_C@_1O@MKEKBLAH@?$AAd?$AAi?$AAv?$AA?9?$AAM?$AAV?$AA?$AA@ 1006f4cc     libucrt:lcidtoname_downlevel.obj
 0002:0000a4dc       ??_C@_1O@OHDCKDDF@?$AAq?$AAu?$AAz?$AA?9?$AAB?$AAO?$AA?$AA@ 1006f4dc     libucrt:lcidtoname_downlevel.obj
 0002:0000a4ec       ??_C@_1M@LEPJNLFD@?$AAn?$AAs?$AA?9?$AAZ?$AAA?$AA?$AA@ 1006f4ec     libucrt:lcidtoname_downlevel.obj
 0002:0000a4fc       ??_C@_1M@OMLEIIJB@?$AAm?$AAi?$AA?9?$AAN?$AAZ?$AA?$AA@ 1006f4fc     libucrt:lcidtoname_downlevel.obj
 0002:0000a50c       ??_C@_1M@PMPEAILG@?$AAa?$AAr?$AA?9?$AAI?$AAQ?$AA?$AA@ 1006f50c     libucrt:lcidtoname_downlevel.obj
 0002:0000a51c       ??_C@_1M@CNKPNOEE@?$AAd?$AAe?$AA?9?$AAC?$AAH?$AA?$AA@ 1006f51c     libucrt:lcidtoname_downlevel.obj
 0002:0000a52c       ??_C@_1M@LKMGMLKO@?$AAe?$AAn?$AA?9?$AAG?$AAB?$AA?$AA@ 1006f52c     libucrt:lcidtoname_downlevel.obj
 0002:0000a53c       ??_C@_1M@PGKJFFGL@?$AAe?$AAs?$AA?9?$AAM?$AAX?$AA?$AA@ 1006f53c     libucrt:lcidtoname_downlevel.obj
 0002:0000a54c       ??_C@_1M@DNNANBDC@?$AAf?$AAr?$AA?9?$AAB?$AAE?$AA?$AA@ 1006f54c     libucrt:lcidtoname_downlevel.obj
 0002:0000a55c       ??_C@_1M@HLGMDFHM@?$AAi?$AAt?$AA?9?$AAC?$AAH?$AA?$AA@ 1006f55c     libucrt:lcidtoname_downlevel.obj
 0002:0000a56c       ??_C@_1M@CLLBGJH@?$AAn?$AAl?$AA?9?$AAB?$AAE?$AA?$AA@ 1006f56c     libucrt:lcidtoname_downlevel.obj
 0002:0000a57c       ??_C@_1M@BODBOGLF@?$AAn?$AAn?$AA?9?$AAN?$AAO?$AA?$AA@ 1006f57c     libucrt:lcidtoname_downlevel.obj
 0002:0000a58c       ??_C@_1M@HFFAHKAD@?$AAp?$AAt?$AA?9?$AAP?$AAT?$AA?$AA@ 1006f58c     libucrt:lcidtoname_downlevel.obj
 0002:0000a59c       ??_C@_1BG@LNOAKHIE@?$AAs?$AAr?$AA?9?$AAS?$AAP?$AA?9?$AAL?$AAa?$AAt?$AAn?$AA?$AA@ 1006f59c     libucrt:lcidtoname_downlevel.obj
 0002:0000a5b8       ??_C@_1M@HBMHBGAK@?$AAs?$AAv?$AA?9?$AAF?$AAI?$AA?$AA@ 1006f5b8     libucrt:lcidtoname_downlevel.obj
 0002:0000a5c8       ??_C@_1BG@DGCJGJBE@?$AAa?$AAz?$AA?9?$AAA?$AAZ?$AA?9?$AAC?$AAy?$AAr?$AAl?$AA?$AA@ 1006f5c8     libucrt:lcidtoname_downlevel.obj
 0002:0000a5e4       ??_C@_1M@KEJDAAHB@?$AAs?$AAe?$AA?9?$AAS?$AAE?$AA?$AA@ 1006f5e4     libucrt:lcidtoname_downlevel.obj
 0002:0000a5f4       ??_C@_1M@HEIBJJAD@?$AAm?$AAs?$AA?9?$AAB?$AAN?$AA?$AA@ 1006f5f4     libucrt:lcidtoname_downlevel.obj
 0002:0000a604       ??_C@_1BG@PBGJMCEM@?$AAu?$AAz?$AA?9?$AAU?$AAZ?$AA?9?$AAC?$AAy?$AAr?$AAl?$AA?$AA@ 1006f604     libucrt:lcidtoname_downlevel.obj
 0002:0000a620       ??_C@_1O@LAOBCMDF@?$AAq?$AAu?$AAz?$AA?9?$AAE?$AAC?$AA?$AA@ 1006f620     libucrt:lcidtoname_downlevel.obj
 0002:0000a630       ??_C@_1M@POEEMAIO@?$AAa?$AAr?$AA?9?$AAE?$AAG?$AA?$AA@ 1006f630     libucrt:lcidtoname_downlevel.obj
 0002:0000a640       ??_C@_1M@EFAKDEDL@?$AAz?$AAh?$AA?9?$AAH?$AAK?$AA?$AA@ 1006f640     libucrt:lcidtoname_downlevel.obj
 0002:0000a650       ??_C@_1M@HKKIJHGI@?$AAd?$AAe?$AA?9?$AAA?$AAT?$AA?$AA@ 1006f650     libucrt:lcidtoname_downlevel.obj
 0002:0000a660       ??_C@_1M@KBFBEHJF@?$AAe?$AAn?$AA?9?$AAA?$AAU?$AA?$AA@ 1006f660     libucrt:lcidtoname_downlevel.obj
 0002:0000a670       ??_C@_1M@MNPLFAAH@?$AAe?$AAs?$AA?9?$AAE?$AAS?$AA?$AA@ 1006f670     libucrt:lcidtoname_downlevel.obj
 0002:0000a680       ??_C@_1M@HJOOJFMA@?$AAf?$AAr?$AA?9?$AAC?$AAA?$AA?$AA@ 1006f680     libucrt:lcidtoname_downlevel.obj
 0002:0000a690       ??_C@_1BG@JPOFPNAB@?$AAs?$AAr?$AA?9?$AAS?$AAP?$AA?9?$AAC?$AAy?$AAr?$AAl?$AA?$AA@ 1006f690     libucrt:lcidtoname_downlevel.obj
 0002:0000a6ac       ??_C@_1M@LNFOCMOB@?$AAs?$AAe?$AA?9?$AAF?$AAI?$AA?$AA@ 1006f6ac     libucrt:lcidtoname_downlevel.obj
 0002:0000a6bc       ??_C@_1O@MGJBOAMB@?$AAq?$AAu?$AAz?$AA?9?$AAP?$AAE?$AA?$AA@ 1006f6bc     libucrt:lcidtoname_downlevel.obj
 0002:0000a6cc       ??_C@_1M@GJINLBOK@?$AAa?$AAr?$AA?9?$AAL?$AAY?$AA?$AA@ 1006f6cc     libucrt:lcidtoname_downlevel.obj
 0002:0000a6dc       ??_C@_1M@GGMNHJNL@?$AAz?$AAh?$AA?9?$AAS?$AAG?$AA?$AA@ 1006f6dc     libucrt:lcidtoname_downlevel.obj
 0002:0000a6ec       ??_C@_1M@HOIKODND@?$AAd?$AAe?$AA?9?$AAL?$AAU?$AA?$AA@ 1006f6ec     libucrt:lcidtoname_downlevel.obj
 0002:0000a6fc       ??_C@_1M@DDOCCGFG@?$AAe?$AAn?$AA?9?$AAC?$AAA?$AA?$AA@ 1006f6fc     libucrt:lcidtoname_downlevel.obj
 0002:0000a70c       ??_C@_1M@BNOEMJLF@?$AAe?$AAs?$AA?9?$AAG?$AAT?$AA?$AA@ 1006f70c     libucrt:lcidtoname_downlevel.obj
 0002:0000a71c       ??_C@_1M@EOGNKEK@?$AAf?$AAr?$AA?9?$AAC?$AAH?$AA?$AA@ 1006f71c     libucrt:lcidtoname_downlevel.obj
 0002:0000a72c       ??_C@_1M@FLIDJFHL@?$AAh?$AAr?$AA?9?$AAB?$AAA?$AA?$AA@ 1006f72c     libucrt:lcidtoname_downlevel.obj
 0002:0000a73c       ??_C@_1O@FMCELNAJ@?$AAs?$AAm?$AAj?$AA?9?$AAN?$AAO?$AA?$AA@ 1006f73c     libucrt:lcidtoname_downlevel.obj
 0002:0000a74c       ??_C@_1M@JHGLJMGJ@?$AAa?$AAr?$AA?9?$AAD?$AAZ?$AA?$AA@ 1006f74c     libucrt:lcidtoname_downlevel.obj
 0002:0000a75c       ??_C@_1M@JKKFDCNP@?$AAz?$AAh?$AA?9?$AAM?$AAO?$AA?$AA@ 1006f75c     libucrt:lcidtoname_downlevel.obj
 0002:0000a76c       ??_C@_1M@GEEFALPE@?$AAd?$AAe?$AA?9?$AAL?$AAI?$AA?$AA@ 1006f76c     libucrt:lcidtoname_downlevel.obj
 0002:0000a77c       ??_C@_1M@IGEOFBG@?$AAe?$AAn?$AA?9?$AAN?$AAZ?$AA?$AA@ 1006f77c     libucrt:lcidtoname_downlevel.obj
 0002:0000a78c       ??_C@_1M@KDBONEHP@?$AAe?$AAs?$AA?9?$AAC?$AAR?$AA?$AA@ 1006f78c     libucrt:lcidtoname_downlevel.obj
 0002:0000a79c       ??_C@_1M@FHMDOHNN@?$AAf?$AAr?$AA?9?$AAL?$AAU?$AA?$AA@ 1006f79c     libucrt:lcidtoname_downlevel.obj
 0002:0000a7ac       ??_C@_1BG@NFKKMAFG@?$AAb?$AAs?$AA?9?$AAB?$AAA?$AA?9?$AAL?$AAa?$AAt?$AAn?$AA?$AA@ 1006f7ac     libucrt:lcidtoname_downlevel.obj
 0002:0000a7c8       ??_C@_1O@IMNBEMCI@?$AAs?$AAm?$AAj?$AA?9?$AAS?$AAE?$AA?$AA@ 1006f7c8     libucrt:lcidtoname_downlevel.obj
 0002:0000a7d8       ??_C@_1M@DHHMBNDP@?$AAa?$AAr?$AA?9?$AAM?$AAA?$AA?$AA@ 1006f7d8     libucrt:lcidtoname_downlevel.obj
 0002:0000a7e8       ??_C@_1M@BNBLJCGH@?$AAe?$AAn?$AA?9?$AAI?$AAE?$AA?$AA@ 1006f7e8     libucrt:lcidtoname_downlevel.obj
 0002:0000a7f8       ??_C@_1M@GEPAFMDL@?$AAe?$AAs?$AA?9?$AAP?$AAA?$AA?$AA@ 1006f7f8     libucrt:lcidtoname_downlevel.obj
 0002:0000a808       ??_C@_1M@OJONDMDL@?$AAf?$AAr?$AA?9?$AAM?$AAC?$AA?$AA@ 1006f808     libucrt:lcidtoname_downlevel.obj
 0002:0000a818       ??_C@_1BG@OBCNFJB@?$AAs?$AAr?$AA?9?$AAB?$AAA?$AA?9?$AAL?$AAa?$AAt?$AAn?$AA?$AA@ 1006f818     libucrt:lcidtoname_downlevel.obj
 0002:0000a834       ??_C@_1O@KEMEEGPO@?$AAs?$AAm?$AAa?$AA?9?$AAN?$AAO?$AA?$AA@ 1006f834     libucrt:lcidtoname_downlevel.obj
 0002:0000a844       ??_C@_1M@ELMGFODK@?$AAa?$AAr?$AA?9?$AAT?$AAN?$AA?$AA@ 1006f844     libucrt:lcidtoname_downlevel.obj
 0002:0000a854       ??_C@_1M@BHDLHFAF@?$AAe?$AAn?$AA?9?$AAZ?$AAA?$AA?$AA@ 1006f854     libucrt:lcidtoname_downlevel.obj
 0002:0000a864       ??_C@_1M@BMGIGLIF@?$AAe?$AAs?$AA?9?$AAD?$AAO?$AA?$AA@ 1006f864     libucrt:lcidtoname_downlevel.obj
 0002:0000a874       ??_C@_1BG@CMBHIPBE@?$AAs?$AAr?$AA?9?$AAB?$AAA?$AA?9?$AAC?$AAy?$AAr?$AAl?$AA?$AA@ 1006f874     libucrt:lcidtoname_downlevel.obj
 0002:0000a890       ??_C@_1O@HEDBLHNP@?$AAs?$AAm?$AAa?$AA?9?$AAS?$AAE?$AA?$AA@ 1006f890     libucrt:lcidtoname_downlevel.obj
 0002:0000a8a0       ??_C@_1M@DAGCADIM@?$AAa?$AAr?$AA?9?$AAO?$AAM?$AA?$AA@ 1006f8a0     libucrt:lcidtoname_downlevel.obj
 0002:0000a8b0       ??_C@_1M@FODLMICG@?$AAe?$AAn?$AA?9?$AAJ?$AAM?$AA?$AA@ 1006f8b0     libucrt:lcidtoname_downlevel.obj
 0002:0000a8c0       ??_C@_1M@DNMLCIHB@?$AAe?$AAs?$AA?9?$AAV?$AAE?$AA?$AA@ 1006f8c0     libucrt:lcidtoname_downlevel.obj
 0002:0000a8d0       ??_C@_1O@EOKHMKJK@?$AAs?$AAm?$AAs?$AA?9?$AAF?$AAI?$AA?$AA@ 1006f8d0     libucrt:lcidtoname_downlevel.obj
 0002:0000a8e0       ??_C@_1M@CAFJMKOF@?$AAa?$AAr?$AA?9?$AAY?$AAE?$AA?$AA@ 1006f8e0     libucrt:lcidtoname_downlevel.obj
 0002:0000a8f0       ??_C@_1M@CBFHIJLI@?$AAe?$AAn?$AA?9?$AAC?$AAB?$AA?$AA@ 1006f8f0     libucrt:lcidtoname_downlevel.obj
 0002:0000a900       ??_C@_1M@BGNFLDN@?$AAe?$AAs?$AA?9?$AAC?$AAO?$AA?$AA@ 1006f900     libucrt:lcidtoname_downlevel.obj
 0002:0000a910       ??_C@_1O@JMPHMAMC@?$AAs?$AAm?$AAn?$AA?9?$AAF?$AAI?$AA?$AA@ 1006f910     libucrt:lcidtoname_downlevel.obj
 0002:0000a920       ??_C@_1M@JLANABKE@?$AAa?$AAr?$AA?9?$AAS?$AAY?$AA?$AA@ 1006f920     libucrt:lcidtoname_downlevel.obj
 0002:0000a930       ??_C@_1M@HPKGCFGN@?$AAe?$AAn?$AA?9?$AAB?$AAZ?$AA?$AA@ 1006f930     libucrt:lcidtoname_downlevel.obj
 0002:0000a940       ??_C@_1M@OLJCMLGM@?$AAe?$AAs?$AA?9?$AAP?$AAE?$AA?$AA@ 1006f940     libucrt:lcidtoname_downlevel.obj
 0002:0000a950       ??_C@_1M@MKKGFKLE@?$AAa?$AAr?$AA?9?$AAJ?$AAO?$AA?$AA@ 1006f950     libucrt:lcidtoname_downlevel.obj
 0002:0000a960       ??_C@_1M@EKPGLDNI@?$AAe?$AAn?$AA?9?$AAT?$AAT?$AA?$AA@ 1006f960     libucrt:lcidtoname_downlevel.obj
 0002:0000a970       ??_C@_1M@OONGHFHE@?$AAe?$AAs?$AA?9?$AAA?$AAR?$AA?$AA@ 1006f970     libucrt:lcidtoname_downlevel.obj
 0002:0000a980       ??_C@_1M@OOJFGBHE@?$AAa?$AAr?$AA?9?$AAL?$AAB?$AA?$AA@ 1006f980     libucrt:lcidtoname_downlevel.obj
 0002:0000a990       ??_C@_1M@GCEJHNEG@?$AAe?$AAn?$AA?9?$AAZ?$AAW?$AA?$AA@ 1006f990     libucrt:lcidtoname_downlevel.obj
 0002:0000a9a0       ??_C@_1M@JNOCAHJI@?$AAe?$AAs?$AA?9?$AAE?$AAC?$AA?$AA@ 1006f9a0     libucrt:lcidtoname_downlevel.obj
 0002:0000a9b0       ??_C@_1M@JEFHPGGB@?$AAa?$AAr?$AA?9?$AAK?$AAW?$AA?$AA@ 1006f9b0     libucrt:lcidtoname_downlevel.obj
 0002:0000a9c0       ??_C@_1M@MLKIBJOJ@?$AAe?$AAn?$AA?9?$AAP?$AAH?$AA?$AA@ 1006f9c0     libucrt:lcidtoname_downlevel.obj
 0002:0000a9d0       ??_C@_1M@BDNIPEND@?$AAe?$AAs?$AA?9?$AAC?$AAL?$AA?$AA@ 1006f9d0     libucrt:lcidtoname_downlevel.obj
 0002:0000a9e0       ??_C@_1M@MPNMEKBD@?$AAa?$AAr?$AA?9?$AAA?$AAE?$AA?$AA@ 1006f9e0     libucrt:lcidtoname_downlevel.obj
 0002:0000a9f0       ??_C@_1M@KBJALCPI@?$AAe?$AAs?$AA?9?$AAU?$AAY?$AA?$AA@ 1006f9f0     libucrt:lcidtoname_downlevel.obj
 0002:0000aa00       ??_C@_1M@LLCCOAGA@?$AAa?$AAr?$AA?9?$AAB?$AAH?$AA?$AA@ 1006fa00     libucrt:lcidtoname_downlevel.obj
 0002:0000aa10       ??_C@_1M@PBFNCDEL@?$AAe?$AAs?$AA?9?$AAP?$AAY?$AA?$AA@ 1006fa10     libucrt:lcidtoname_downlevel.obj
 0002:0000aa20       ??_C@_1M@EDGINPNP@?$AAa?$AAr?$AA?9?$AAQ?$AAA?$AA?$AA@ 1006fa20     libucrt:lcidtoname_downlevel.obj
 0002:0000aa30       ??_C@_1M@MKDBIIJI@?$AAe?$AAs?$AA?9?$AAB?$AAO?$AA?$AA@ 1006fa30     libucrt:lcidtoname_downlevel.obj
 0002:0000aa40       ??_C@_1M@CPKKEBLD@?$AAe?$AAs?$AA?9?$AAS?$AAV?$AA?$AA@ 1006fa40     libucrt:lcidtoname_downlevel.obj
 0002:0000aa50       ??_C@_1M@NDBGMMJL@?$AAe?$AAs?$AA?9?$AAH?$AAN?$AA?$AA@ 1006fa50     libucrt:lcidtoname_downlevel.obj
 0002:0000aa60       ??_C@_1M@JIJIBHDP@?$AAe?$AAs?$AA?9?$AAN?$AAI?$AA?$AA@ 1006fa60     libucrt:lcidtoname_downlevel.obj
 0002:0000aa70       ??_C@_1M@CGFMKEEK@?$AAe?$AAs?$AA?9?$AAP?$AAR?$AA?$AA@ 1006fa70     libucrt:lcidtoname_downlevel.obj
 0002:0000aa80       ??_C@_1O@ICJHKIIK@?$AAz?$AAh?$AA?9?$AAC?$AAH?$AAT?$AA?$AA@ 1006fa80     libucrt:lcidtoname_downlevel.obj
 0002:0000aa90       ??_C@_15CLNEJCE@?$AAs?$AAr?$AA?$AA@ 1006fa90     libucrt:lcidtoname_downlevel.obj
 0002:0000b324       ??_C@_1M@KAHEKEIG@?$AAa?$AAf?$AA?9?$AAz?$AAa?$AA?$AA@ 10070324     libucrt:lcidtoname_downlevel.obj
 0002:0000b334       ??_C@_1M@GIECOABL@?$AAa?$AAr?$AA?9?$AAa?$AAe?$AA?$AA@ 10070334     libucrt:lcidtoname_downlevel.obj
 0002:0000b344       ??_C@_1M@BMLMEKGI@?$AAa?$AAr?$AA?9?$AAb?$AAh?$AA?$AA@ 10070344     libucrt:lcidtoname_downlevel.obj
 0002:0000b354       ??_C@_1M@DAPFDGGB@?$AAa?$AAr?$AA?9?$AAd?$AAz?$AA?$AA@ 10070354     libucrt:lcidtoname_downlevel.obj
 0002:0000b364       ??_C@_1M@FJNKGKIG@?$AAa?$AAr?$AA?9?$AAe?$AAg?$AA?$AA@ 10070364     libucrt:lcidtoname_downlevel.obj
 0002:0000b374       ??_C@_1M@FLGKKCLO@?$AAa?$AAr?$AA?9?$AAi?$AAq?$AA?$AA@ 10070374     libucrt:lcidtoname_downlevel.obj
 0002:0000b384       ??_C@_1M@GNDIPALM@?$AAa?$AAr?$AA?9?$AAj?$AAo?$AA?$AA@ 10070384     libucrt:lcidtoname_downlevel.obj
 0002:0000b394       ??_C@_1M@DDMJFMGJ@?$AAa?$AAr?$AA?9?$AAk?$AAw?$AA?$AA@ 10070394     libucrt:lcidtoname_downlevel.obj
 0002:0000b3a4       ??_C@_1M@EJALMLHM@?$AAa?$AAr?$AA?9?$AAl?$AAb?$AA?$AA@ 100703a4     libucrt:lcidtoname_downlevel.obj
 0002:0000b3b4       ??_C@_1M@MOBDBLOC@?$AAa?$AAr?$AA?9?$AAl?$AAy?$AA?$AA@ 100703b4     libucrt:lcidtoname_downlevel.obj
 0002:0000b3c4       ??_C@_1M@JAOCLHDH@?$AAa?$AAr?$AA?9?$AAm?$AAa?$AA?$AA@ 100703c4     libucrt:lcidtoname_downlevel.obj
 0002:0000b3d4       ??_C@_1M@JHPMKJIE@?$AAa?$AAr?$AA?9?$AAo?$AAm?$AA?$AA@ 100703d4     libucrt:lcidtoname_downlevel.obj
 0002:0000b3e4       ??_C@_1M@OEPGHFNH@?$AAa?$AAr?$AA?9?$AAq?$AAa?$AA?$AA@ 100703e4     libucrt:lcidtoname_downlevel.obj
 0002:0000b3f4       ??_C@_1M@KJDONENM@?$AAa?$AAr?$AA?9?$AAs?$AAa?$AA?$AA@ 100703f4     libucrt:lcidtoname_downlevel.obj
 0002:0000b404       ??_C@_1M@DMJDKLKM@?$AAa?$AAr?$AA?9?$AAs?$AAy?$AA?$AA@ 10070404     libucrt:lcidtoname_downlevel.obj
 0002:0000b414       ??_C@_1M@OMFIPEDC@?$AAa?$AAr?$AA?9?$AAt?$AAn?$AA?$AA@ 10070414     libucrt:lcidtoname_downlevel.obj
 0002:0000b424       ??_C@_1M@IHMHGAON@?$AAa?$AAr?$AA?9?$AAy?$AAe?$AA?$AA@ 10070424     libucrt:lcidtoname_downlevel.obj
 0002:0000b434       ??_C@_1BG@KDCPGJGB@?$AAa?$AAz?$AA?9?$AAa?$AAz?$AA?9?$AAc?$AAy?$AAr?$AAl?$AA?$AA@ 10070434     libucrt:lcidtoname_downlevel.obj
 0002:0000b450       ??_C@_1BG@IBCKDDOE@?$AAa?$AAz?$AA?9?$AAa?$AAz?$AA?9?$AAl?$AAa?$AAt?$AAn?$AA?$AA@ 10070450     libucrt:lcidtoname_downlevel.obj
 0002:0000b46c       ??_C@_1M@EGPFDCPD@?$AAb?$AAe?$AA?9?$AAb?$AAy?$AA?$AA@ 1007046c     libucrt:lcidtoname_downlevel.obj
 0002:0000b47c       ??_C@_1M@PCMGMCGC@?$AAb?$AAg?$AA?9?$AAb?$AAg?$AA?$AA@ 1007047c     libucrt:lcidtoname_downlevel.obj
 0002:0000b48c       ??_C@_1M@BJBMFGOB@?$AAb?$AAn?$AA?9?$AAi?$AAn?$AA?$AA@ 1007048c     libucrt:lcidtoname_downlevel.obj
 0002:0000b49c       ??_C@_1BG@EAKMMACD@?$AAb?$AAs?$AA?9?$AAb?$AAa?$AA?9?$AAl?$AAa?$AAt?$AAn?$AA?$AA@ 1007049c     libucrt:lcidtoname_downlevel.obj
 0002:0000b4b8       ??_C@_1M@KGADAODK@?$AAc?$AAa?$AA?9?$AAe?$AAs?$AA?$AA@ 100704b8     libucrt:lcidtoname_downlevel.obj
 0002:0000b4c8       ??_C@_1M@COAJPDHI@?$AAc?$AAs?$AA?9?$AAc?$AAz?$AA?$AA@ 100704c8     libucrt:lcidtoname_downlevel.obj
 0002:0000b4d8       ??_C@_1M@DHBHFONH@?$AAc?$AAy?$AA?9?$AAg?$AAb?$AA?$AA@ 100704d8     libucrt:lcidtoname_downlevel.obj
 0002:0000b4e8       ??_C@_1M@IMGKELGA@?$AAd?$AAa?$AA?9?$AAd?$AAk?$AA?$AA@ 100704e8     libucrt:lcidtoname_downlevel.obj
 0002:0000b4f8       ??_C@_1M@NNDGDNGA@?$AAd?$AAe?$AA?9?$AAa?$AAt?$AA?$AA@ 100704f8     libucrt:lcidtoname_downlevel.obj
 0002:0000b508       ??_C@_1M@IKDBHEEM@?$AAd?$AAe?$AA?9?$AAc?$AAh?$AA?$AA@ 10070508     libucrt:lcidtoname_downlevel.obj
 0002:0000b518       ??_C@_1M@GFFOJMCJ@?$AAd?$AAe?$AA?9?$AAd?$AAe?$AA?$AA@ 10070518     libucrt:lcidtoname_downlevel.obj
 0002:0000b528       ??_C@_1M@MDNLKBPM@?$AAd?$AAe?$AA?9?$AAl?$AAi?$AA?$AA@ 10070528     libucrt:lcidtoname_downlevel.obj
 0002:0000b538       ??_C@_1M@NJBEEJNL@?$AAd?$AAe?$AA?9?$AAl?$AAu?$AA?$AA@ 10070538     libucrt:lcidtoname_downlevel.obj
 0002:0000b548       ??_C@_1O@GNNELBAP@?$AAd?$AAi?$AAv?$AA?9?$AAm?$AAv?$AA?$AA@ 10070548     libucrt:lcidtoname_downlevel.obj
 0002:0000b558       ??_C@_1M@EJLEOGAE@?$AAe?$AAl?$AA?9?$AAg?$AAr?$AA?$AA@ 10070558     libucrt:lcidtoname_downlevel.obj
 0002:0000b568       ??_C@_1M@GMPONJN@?$AAe?$AAn?$AA?9?$AAa?$AAu?$AA?$AA@ 10070568     libucrt:lcidtoname_downlevel.obj
 0002:0000b578       ??_C@_1M@NIDIIPGF@?$AAe?$AAn?$AA?9?$AAb?$AAz?$AA?$AA@ 10070578     libucrt:lcidtoname_downlevel.obj
 0002:0000b588       ??_C@_1M@JEHMIMFO@?$AAe?$AAn?$AA?9?$AAc?$AAa?$AA?$AA@ 10070588     libucrt:lcidtoname_downlevel.obj
 0002:0000b598       ??_C@_1M@IGMJCDLA@?$AAe?$AAn?$AA?9?$AAc?$AAb?$AA?$AA@ 10070598     libucrt:lcidtoname_downlevel.obj
 0002:0000b5a8       ??_C@_1M@BNFIGBKG@?$AAe?$AAn?$AA?9?$AAg?$AAb?$AA?$AA@ 100705a8     libucrt:lcidtoname_downlevel.obj
 0002:0000b5b8       ??_C@_1M@LKIFDIGP@?$AAe?$AAn?$AA?9?$AAi?$AAe?$AA?$AA@ 100705b8     libucrt:lcidtoname_downlevel.obj
 0002:0000b5c8       ??_C@_1M@PJKFGCCO@?$AAe?$AAn?$AA?9?$AAj?$AAm?$AA?$AA@ 100705c8     libucrt:lcidtoname_downlevel.obj
 0002:0000b5d8       ??_C@_1M@KPPKEPBO@?$AAe?$AAn?$AA?9?$AAn?$AAz?$AA?$AA@ 100705d8     libucrt:lcidtoname_downlevel.obj
 0002:0000b5e8       ??_C@_1M@GMDGLDOB@?$AAe?$AAn?$AA?9?$AAp?$AAh?$AA?$AA@ 100705e8     libucrt:lcidtoname_downlevel.obj
 0002:0000b5f8       ??_C@_1M@ONGIBJNA@?$AAe?$AAn?$AA?9?$AAt?$AAt?$AA?$AA@ 100705f8     libucrt:lcidtoname_downlevel.obj
 0002:0000b608       ??_C@_1M@LLODPCMM@?$AAe?$AAn?$AA?9?$AAu?$AAs?$AA?$AA@ 10070608     libucrt:lcidtoname_downlevel.obj
 0002:0000b618       ??_C@_1M@LAKFNPAN@?$AAe?$AAn?$AA?9?$AAz?$AAa?$AA?$AA@ 10070618     libucrt:lcidtoname_downlevel.obj
 0002:0000b628       ??_C@_1M@MFNHNHEO@?$AAe?$AAn?$AA?9?$AAz?$AAw?$AA?$AA@ 10070628     libucrt:lcidtoname_downlevel.obj
 0002:0000b638       ??_C@_1M@EJEINPHM@?$AAe?$AAs?$AA?9?$AAa?$AAr?$AA?$AA@ 10070638     libucrt:lcidtoname_downlevel.obj
 0002:0000b648       ??_C@_1M@GNKPCCJA@?$AAe?$AAs?$AA?9?$AAb?$AAo?$AA?$AA@ 10070648     libucrt:lcidtoname_downlevel.obj
 0002:0000b658       ??_C@_1M@LEEGFONL@?$AAe?$AAs?$AA?9?$AAc?$AAl?$AA?$AA@ 10070658     libucrt:lcidtoname_downlevel.obj
 0002:0000b668       ??_C@_1M@KGPDPBDF@?$AAe?$AAs?$AA?9?$AAc?$AAo?$AA?$AA@ 10070668     libucrt:lcidtoname_downlevel.obj
 0002:0000b678       ??_C@_1M@EIAHOHH@?$AAe?$AAs?$AA?9?$AAc?$AAr?$AA?$AA@ 10070678     libucrt:lcidtoname_downlevel.obj
 0002:0000b688       ??_C@_1M@LLPGMBIN@?$AAe?$AAs?$AA?9?$AAd?$AAo?$AA?$AA@ 10070688     libucrt:lcidtoname_downlevel.obj
 0002:0000b698       ??_C@_1M@DKHMKNJA@?$AAe?$AAs?$AA?9?$AAe?$AAc?$AA?$AA@ 10070698     libucrt:lcidtoname_downlevel.obj
 0002:0000b6a8       ??_C@_1M@GKGFPKAP@?$AAe?$AAs?$AA?9?$AAe?$AAs?$AA?$AA@ 100706a8     libucrt:lcidtoname_downlevel.obj
 0002:0000b6b8       ??_C@_1M@LKHKGDLN@?$AAe?$AAs?$AA?9?$AAg?$AAt?$AA?$AA@ 100706b8     libucrt:lcidtoname_downlevel.obj
 0002:0000b6c8       ??_C@_1M@HEIIGGJD@?$AAe?$AAs?$AA?9?$AAh?$AAn?$AA?$AA@ 100706c8     libucrt:lcidtoname_downlevel.obj
 0002:0000b6d8       ??_C@_1M@FBDHPPGD@?$AAe?$AAs?$AA?9?$AAm?$AAx?$AA?$AA@ 100706d8     libucrt:lcidtoname_downlevel.obj
 0002:0000b6e8       ??_C@_1M@DPAGLNDH@?$AAe?$AAs?$AA?9?$AAn?$AAi?$AA?$AA@ 100706e8     libucrt:lcidtoname_downlevel.obj
 0002:0000b6f8       ??_C@_1M@MDGOPGDD@?$AAe?$AAs?$AA?9?$AAp?$AAa?$AA?$AA@ 100706f8     libucrt:lcidtoname_downlevel.obj
 0002:0000b708       ??_C@_1M@EMAMGBGE@?$AAe?$AAs?$AA?9?$AAp?$AAe?$AA?$AA@ 10070708     libucrt:lcidtoname_downlevel.obj
 0002:0000b718       ??_C@_1M@IBMCAOEC@?$AAe?$AAs?$AA?9?$AAp?$AAr?$AA?$AA@ 10070718     libucrt:lcidtoname_downlevel.obj
 0002:0000b728       ??_C@_1M@FGMDIJED@?$AAe?$AAs?$AA?9?$AAp?$AAy?$AA?$AA@ 10070728     libucrt:lcidtoname_downlevel.obj
 0002:0000b738       ??_C@_1M@IIDEOLLL@?$AAe?$AAs?$AA?9?$AAs?$AAv?$AA?$AA@ 10070738     libucrt:lcidtoname_downlevel.obj
 0002:0000b748       ??_C@_1M@GAOBIPA@?$AAe?$AAs?$AA?9?$AAu?$AAy?$AA?$AA@ 10070748     libucrt:lcidtoname_downlevel.obj
 0002:0000b758       ??_C@_1M@JKFFICHJ@?$AAe?$AAs?$AA?9?$AAv?$AAe?$AA?$AA@ 10070758     libucrt:lcidtoname_downlevel.obj
 0002:0000b768       ??_C@_1M@PNMLOJDF@?$AAe?$AAt?$AA?9?$AAe?$AAe?$AA?$AA@ 10070768     libucrt:lcidtoname_downlevel.obj
 0002:0000b778       ??_C@_1M@GHHLIKEI@?$AAe?$AAu?$AA?9?$AAe?$AAs?$AA?$AA@ 10070778     libucrt:lcidtoname_downlevel.obj
 0002:0000b788       ??_C@_1M@PBNONODE@?$AAf?$AAa?$AA?9?$AAi?$AAr?$AA?$AA@ 10070788     libucrt:lcidtoname_downlevel.obj
 0002:0000b798       ??_C@_1M@JEEHPMIL@?$AAf?$AAi?$AA?9?$AAf?$AAi?$AA?$AA@ 10070798     libucrt:lcidtoname_downlevel.obj
 0002:0000b7a8       ??_C@_1M@LMDCNDBA@?$AAf?$AAo?$AA?9?$AAf?$AAo?$AA?$AA@ 100707a8     libucrt:lcidtoname_downlevel.obj
 0002:0000b7b8       ??_C@_1M@JKEOHLDK@?$AAf?$AAr?$AA?9?$AAb?$AAe?$AA?$AA@ 100707b8     libucrt:lcidtoname_downlevel.obj
 0002:0000b7c8       ??_C@_1M@NOHADPMI@?$AAf?$AAr?$AA?9?$AAc?$AAa?$AA?$AA@ 100707c8     libucrt:lcidtoname_downlevel.obj
 0002:0000b7d8       ??_C@_1M@KDHIHAEC@?$AAf?$AAr?$AA?9?$AAc?$AAh?$AA?$AA@ 100707d8     libucrt:lcidtoname_downlevel.obj
 0002:0000b7e8       ??_C@_1M@MMBBFGAK@?$AAf?$AAr?$AA?9?$AAf?$AAr?$AA?$AA@ 100707e8     libucrt:lcidtoname_downlevel.obj
 0002:0000b7f8       ??_C@_1M@PAFNENNF@?$AAf?$AAr?$AA?9?$AAl?$AAu?$AA?$AA@ 100707f8     libucrt:lcidtoname_downlevel.obj
 0002:0000b808       ??_C@_1M@EOHDJGDD@?$AAf?$AAr?$AA?9?$AAm?$AAc?$AA?$AA@ 10070808     libucrt:lcidtoname_downlevel.obj
 0002:0000b818       ??_C@_1M@FAPLLOPF@?$AAg?$AAl?$AA?9?$AAe?$AAs?$AA?$AA@ 10070818     libucrt:lcidtoname_downlevel.obj
 0002:0000b828       ??_C@_1M@FOPBFLOO@?$AAg?$AAu?$AA?9?$AAi?$AAn?$AA?$AA@ 10070828     libucrt:lcidtoname_downlevel.obj
 0002:0000b838       ??_C@_1M@KBMCINPM@?$AAh?$AAe?$AA?9?$AAi?$AAl?$AA?$AA@ 10070838     libucrt:lcidtoname_downlevel.obj
 0002:0000b848       ??_C@_1M@BBPHKFPJ@?$AAh?$AAi?$AA?9?$AAi?$AAn?$AA?$AA@ 10070848     libucrt:lcidtoname_downlevel.obj
 0002:0000b858       ??_C@_1M@PMBNDPHD@?$AAh?$AAr?$AA?9?$AAb?$AAa?$AA?$AA@ 10070858     libucrt:lcidtoname_downlevel.obj
 0002:0000b868       ??_C@_1M@BPCKOEGE@?$AAh?$AAr?$AA?9?$AAh?$AAr?$AA?$AA@ 10070868     libucrt:lcidtoname_downlevel.obj
 0002:0000b878       ??_C@_1M@GACBMHKE@?$AAh?$AAu?$AA?9?$AAh?$AAu?$AA?$AA@ 10070878     libucrt:lcidtoname_downlevel.obj
 0002:0000b888       ??_C@_1M@MILPAJJC@?$AAh?$AAy?$AA?9?$AAa?$AAm?$AA?$AA@ 10070888     libucrt:lcidtoname_downlevel.obj
 0002:0000b898       ??_C@_1M@BABBICEC@?$AAi?$AAd?$AA?9?$AAi?$AAd?$AA?$AA@ 10070898     libucrt:lcidtoname_downlevel.obj
 0002:0000b8a8       ??_C@_1M@BIKNHHPF@?$AAi?$AAs?$AA?9?$AAi?$AAs?$AA?$AA@ 100708a8     libucrt:lcidtoname_downlevel.obj
 0002:0000b8b8       ??_C@_1M@NMPCJPHE@?$AAi?$AAt?$AA?9?$AAc?$AAh?$AA?$AA@ 100708b8     libucrt:lcidtoname_downlevel.obj
 0002:0000b8c8       ??_C@_1M@GHKGFEDF@?$AAi?$AAt?$AA?9?$AAi?$AAt?$AA?$AA@ 100708c8     libucrt:lcidtoname_downlevel.obj
 0002:0000b8d8       ??_C@_1M@NIEJCJJA@?$AAj?$AAa?$AA?9?$AAj?$AAp?$AA?$AA@ 100708d8     libucrt:lcidtoname_downlevel.obj
 0002:0000b8e8       ??_C@_1M@JILFNBIM@?$AAk?$AAa?$AA?9?$AAg?$AAe?$AA?$AA@ 100708e8     libucrt:lcidtoname_downlevel.obj
 0002:0000b8f8       ??_C@_1M@PACPMGPH@?$AAk?$AAk?$AA?9?$AAk?$AAz?$AA?$AA@ 100708f8     libucrt:lcidtoname_downlevel.obj
 0002:0000b908       ??_C@_1M@IELFGMHA@?$AAk?$AAn?$AA?9?$AAi?$AAn?$AA?$AA@ 10070908     libucrt:lcidtoname_downlevel.obj
 0002:0000b918       ??_C@_1O@IBBJHCH@?$AAk?$AAo?$AAk?$AA?9?$AAi?$AAn?$AA?$AA@ 10070918     libucrt:lcidtoname_downlevel.obj
 0002:0000b928       ??_C@_1M@DMHAEOGC@?$AAk?$AAo?$AA?9?$AAk?$AAr?$AA?$AA@ 10070928     libucrt:lcidtoname_downlevel.obj
 0002:0000b938       ??_C@_1M@HBAHBIGA@?$AAk?$AAy?$AA?9?$AAk?$AAg?$AA?$AA@ 10070938     libucrt:lcidtoname_downlevel.obj
 0002:0000b948       ??_C@_1M@KPMILCJG@?$AAl?$AAt?$AA?9?$AAl?$AAt?$AA?$AA@ 10070948     libucrt:lcidtoname_downlevel.obj
 0002:0000b958       ??_C@_1M@BDEKKCA@?$AAl?$AAv?$AA?9?$AAl?$AAv?$AA?$AA@ 10070958     libucrt:lcidtoname_downlevel.obj
 0002:0000b968       ??_C@_1M@ELCKCCJJ@?$AAm?$AAi?$AA?9?$AAn?$AAz?$AA?$AA@ 10070968     libucrt:lcidtoname_downlevel.obj
 0002:0000b978       ??_C@_1M@CBOOLAPA@?$AAm?$AAk?$AA?9?$AAm?$AAk?$AA?$AA@ 10070978     libucrt:lcidtoname_downlevel.obj
 0002:0000b988       ??_C@_1M@GPHNBJKN@?$AAm?$AAl?$AA?9?$AAi?$AAn?$AA?$AA@ 10070988     libucrt:lcidtoname_downlevel.obj
 0002:0000b998       ??_C@_1M@PABJILIG@?$AAm?$AAn?$AA?9?$AAm?$AAn?$AA?$AA@ 10070998     libucrt:lcidtoname_downlevel.obj
 0002:0000b9a8       ??_C@_1M@FGBKKIPG@?$AAm?$AAr?$AA?9?$AAi?$AAn?$AA?$AA@ 100709a8     libucrt:lcidtoname_downlevel.obj
 0002:0000b9b8       ??_C@_1M@NDBPDDAL@?$AAm?$AAs?$AA?9?$AAb?$AAn?$AA?$AA@ 100709b8     libucrt:lcidtoname_downlevel.obj
 0002:0000b9c8       ??_C@_1M@OPIHOOPI@?$AAm?$AAs?$AA?9?$AAm?$AAy?$AA?$AA@ 100709c8     libucrt:lcidtoname_downlevel.obj
 0002:0000b9d8       ??_C@_1M@PPDBCNFM@?$AAm?$AAt?$AA?9?$AAm?$AAt?$AA?$AA@ 100709d8     libucrt:lcidtoname_downlevel.obj
 0002:0000b9e8       ??_C@_1M@KDJDKMDD@?$AAn?$AAb?$AA?9?$AAn?$AAo?$AA?$AA@ 100709e8     libucrt:lcidtoname_downlevel.obj
 0002:0000b9f8       ??_C@_1M@KFCFLMJP@?$AAn?$AAl?$AA?9?$AAb?$AAe?$AA?$AA@ 100709f8     libucrt:lcidtoname_downlevel.obj
 0002:0000ba08       ??_C@_1M@KPOPDDGO@?$AAn?$AAl?$AA?9?$AAn?$AAl?$AA?$AA@ 10070a08     libucrt:lcidtoname_downlevel.obj
 0002:0000ba18       ??_C@_1M@LJKPEMLN@?$AAn?$AAn?$AA?9?$AAn?$AAo?$AA?$AA@ 10070a18     libucrt:lcidtoname_downlevel.obj
 0002:0000ba28       ??_C@_1M@BDGHHBFL@?$AAn?$AAs?$AA?9?$AAz?$AAa?$AA?$AA@ 10070a28     libucrt:lcidtoname_downlevel.obj
 0002:0000ba38       ??_C@_1M@IDEHOAP@?$AAp?$AAa?$AA?9?$AAi?$AAn?$AA?$AA@ 10070a38     libucrt:lcidtoname_downlevel.obj
 0002:0000ba48       ??_C@_1M@HDBKGOGH@?$AAp?$AAl?$AA?9?$AAp?$AAl?$AA?$AA@ 10070a48     libucrt:lcidtoname_downlevel.obj
 0002:0000ba58       ??_C@_1M@LJLLCMEH@?$AAp?$AAt?$AA?9?$AAb?$AAr?$AA?$AA@ 10070a58     libucrt:lcidtoname_downlevel.obj
 0002:0000ba68       ??_C@_1M@NCMONAAL@?$AAp?$AAt?$AA?9?$AAp?$AAt?$AA?$AA@ 10070a68     libucrt:lcidtoname_downlevel.obj
 0002:0000ba78       ??_C@_1O@EAKMAJDN@?$AAq?$AAu?$AAz?$AA?9?$AAb?$AAo?$AA?$AA@ 10070a78     libucrt:lcidtoname_downlevel.obj
 0002:0000ba88       ??_C@_1O@BHHPIGDN@?$AAq?$AAu?$AAz?$AA?9?$AAe?$AAc?$AA?$AA@ 10070a88     libucrt:lcidtoname_downlevel.obj
 0002:0000ba98       ??_C@_1O@GBAPEKMJ@?$AAq?$AAu?$AAz?$AA?9?$AAp?$AAe?$AA?$AA@ 10070a98     libucrt:lcidtoname_downlevel.obj
 0002:0000baa8       ??_C@_1M@CLGLEFBO@?$AAr?$AAo?$AA?9?$AAr?$AAo?$AA?$AA@ 10070aa8     libucrt:lcidtoname_downlevel.obj
 0002:0000bab8       ??_C@_1M@CEEDODME@?$AAr?$AAu?$AA?9?$AAr?$AAu?$AA?$AA@ 10070ab8     libucrt:lcidtoname_downlevel.obj
 0002:0000bac8       ??_C@_1M@HPKKKMPP@?$AAs?$AAa?$AA?9?$AAi?$AAn?$AA?$AA@ 10070ac8     libucrt:lcidtoname_downlevel.obj
 0002:0000bad8       ??_C@_1M@BKMAIGOJ@?$AAs?$AAe?$AA?9?$AAf?$AAi?$AA?$AA@ 10070ad8     libucrt:lcidtoname_downlevel.obj
 0002:0000bae8       ??_C@_1M@NDPIFLFI@?$AAs?$AAe?$AA?9?$AAn?$AAo?$AA?$AA@ 10070ae8     libucrt:lcidtoname_downlevel.obj
 0002:0000baf8       ??_C@_1M@DANKKHJ@?$AAs?$AAe?$AA?9?$AAs?$AAe?$AA?$AA@ 10070af8     libucrt:lcidtoname_downlevel.obj
 0002:0000bb08       ??_C@_1M@PNBLONPJ@?$AAs?$AAk?$AA?9?$AAs?$AAk?$AA?$AA@ 10070b08     libucrt:lcidtoname_downlevel.obj
 0002:0000bb18       ??_C@_1M@LFMODOAL@?$AAs?$AAl?$AA?9?$AAs?$AAi?$AA?$AA@ 10070b18     libucrt:lcidtoname_downlevel.obj
 0002:0000bb28       ??_C@_1O@DFKOMPG@?$AAs?$AAm?$AAa?$AA?9?$AAn?$AAo?$AA?$AA@ 10070b28     libucrt:lcidtoname_downlevel.obj
 0002:0000bb38       ??_C@_1O@NDKPBNNH@?$AAs?$AAm?$AAa?$AA?9?$AAs?$AAe?$AA?$AA@ 10070b38     libucrt:lcidtoname_downlevel.obj
 0002:0000bb48       ??_C@_1O@PLLKBHAB@?$AAs?$AAm?$AAj?$AA?9?$AAn?$AAo?$AA?$AA@ 10070b48     libucrt:lcidtoname_downlevel.obj
 0002:0000bb58       ??_C@_1O@CLEPOGCA@?$AAs?$AAm?$AAj?$AA?9?$AAs?$AAe?$AA?$AA@ 10070b58     libucrt:lcidtoname_downlevel.obj
 0002:0000bb68       ??_C@_1O@DLGJGKMK@?$AAs?$AAm?$AAn?$AA?9?$AAf?$AAi?$AA?$AA@ 10070b68     libucrt:lcidtoname_downlevel.obj
 0002:0000bb78       ??_C@_1O@OJDJGAJC@?$AAs?$AAm?$AAs?$AA?9?$AAf?$AAi?$AA?$AA@ 10070b78     libucrt:lcidtoname_downlevel.obj
 0002:0000bb88       ??_C@_1M@BOFOGHPB@?$AAs?$AAq?$AA?9?$AAa?$AAl?$AA?$AA@ 10070b88     libucrt:lcidtoname_downlevel.obj
 0002:0000bb98       ??_C@_1BG@LJBBIPGB@?$AAs?$AAr?$AA?9?$AAb?$AAa?$AA?9?$AAc?$AAy?$AAr?$AAl?$AA?$AA@ 10070b98     libucrt:lcidtoname_downlevel.obj
 0002:0000bbb4       ??_C@_1BG@JLBENFOE@?$AAs?$AAr?$AA?9?$AAb?$AAa?$AA?9?$AAl?$AAa?$AAt?$AAn?$AA?$AA@ 10070bb4     libucrt:lcidtoname_downlevel.obj
 0002:0000bbd0       ??_C@_1BG@KODPNHE@?$AAs?$AAr?$AA?9?$AAs?$AAp?$AA?9?$AAc?$AAy?$AAr?$AAl?$AA?$AA@ 10070bd0     libucrt:lcidtoname_downlevel.obj
 0002:0000bbec       ??_C@_1BG@CIOGKHPB@?$AAs?$AAr?$AA?9?$AAs?$AAp?$AA?9?$AAl?$AAa?$AAt?$AAn?$AA?$AA@ 10070bec     libucrt:lcidtoname_downlevel.obj
 0002:0000bc08       ??_C@_1M@NGFJLMAC@?$AAs?$AAv?$AA?9?$AAf?$AAi?$AA?$AA@ 10070c08     libucrt:lcidtoname_downlevel.obj
 0002:0000bc18       ??_C@_1M@MPJEJAJC@?$AAs?$AAv?$AA?9?$AAs?$AAe?$AA?$AA@ 10070c18     libucrt:lcidtoname_downlevel.obj
 0002:0000bc28       ??_C@_1M@MPNDHLFK@?$AAs?$AAw?$AA?9?$AAk?$AAe?$AA?$AA@ 10070c28     libucrt:lcidtoname_downlevel.obj
 0002:0000bc38       ??_C@_1O@KOHBJJI@?$AAs?$AAy?$AAr?$AA?9?$AAs?$AAy?$AA?$AA@ 10070c38     libucrt:lcidtoname_downlevel.obj
 0002:0000bc48       ??_C@_1M@LDCEFHA@?$AAt?$AAa?$AA?9?$AAi?$AAn?$AA?$AA@ 10070c48     libucrt:lcidtoname_downlevel.obj
 0002:0000bc58       ??_C@_1M@CNJOFAK@?$AAt?$AAe?$AA?9?$AAi?$AAn?$AA?$AA@ 10070c58     libucrt:lcidtoname_downlevel.obj
 0002:0000bc68       ??_C@_1M@GNAECACD@?$AAt?$AAh?$AA?9?$AAt?$AAh?$AA?$AA@ 10070c68     libucrt:lcidtoname_downlevel.obj
 0002:0000bc78       ??_C@_1M@CHBIHOJO@?$AAt?$AAn?$AA?9?$AAz?$AAa?$AA?$AA@ 10070c78     libucrt:lcidtoname_downlevel.obj
 0002:0000bc88       ??_C@_1M@GCCMIGPJ@?$AAt?$AAr?$AA?9?$AAt?$AAr?$AA?$AA@ 10070c88     libucrt:lcidtoname_downlevel.obj
 0002:0000bc98       ??_C@_1M@CELMCNBK@?$AAt?$AAt?$AA?9?$AAr?$AAu?$AA?$AA@ 10070c98     libucrt:lcidtoname_downlevel.obj
 0002:0000bca8       ??_C@_1M@KLMCELGA@?$AAu?$AAk?$AA?9?$AAu?$AAa?$AA?$AA@ 10070ca8     libucrt:lcidtoname_downlevel.obj
 0002:0000bcb8       ??_C@_1M@EPAJJAJF@?$AAu?$AAr?$AA?9?$AAp?$AAk?$AA?$AA@ 10070cb8     libucrt:lcidtoname_downlevel.obj
 0002:0000bcc8       ??_C@_1BG@GEGPMCDJ@?$AAu?$AAz?$AA?9?$AAu?$AAz?$AA?9?$AAc?$AAy?$AAr?$AAl?$AA?$AA@ 10070cc8     libucrt:lcidtoname_downlevel.obj
 0002:0000bce4       ??_C@_1BG@EGGKJILM@?$AAu?$AAz?$AA?9?$AAu?$AAz?$AA?9?$AAl?$AAa?$AAt?$AAn?$AA?$AA@ 10070ce4     libucrt:lcidtoname_downlevel.obj
 0002:0000bd00       ??_C@_1M@GFOCLFF@?$AAv?$AAi?$AA?9?$AAv?$AAn?$AA?$AA@ 10070d00     libucrt:lcidtoname_downlevel.obj
 0002:0000bd10       ??_C@_1M@CPAMEDFI@?$AAx?$AAh?$AA?9?$AAz?$AAa?$AA?$AA@ 10070d10     libucrt:lcidtoname_downlevel.obj
 0002:0000bd20       ??_C@_1O@EBKIFIGN@?$AAz?$AAh?$AA?9?$AAc?$AAh?$AAs?$AA?$AA@ 10070d20     libucrt:lcidtoname_downlevel.obj
 0002:0000bd30       ??_C@_1O@NMHPGANE@?$AAz?$AAh?$AA?9?$AAc?$AAh?$AAt?$AA?$AA@ 10070d30     libucrt:lcidtoname_downlevel.obj
 0002:0000bd40       ??_C@_1M@LPINJOMC@?$AAz?$AAh?$AA?9?$AAc?$AAn?$AA?$AA@ 10070d40     libucrt:lcidtoname_downlevel.obj
 0002:0000bd50       ??_C@_1M@OCJEJODD@?$AAz?$AAh?$AA?9?$AAh?$AAk?$AA?$AA@ 10070d50     libucrt:lcidtoname_downlevel.obj
 0002:0000bd60       ??_C@_1M@DNDLJINH@?$AAz?$AAh?$AA?9?$AAm?$AAo?$AA?$AA@ 10070d60     libucrt:lcidtoname_downlevel.obj
 0002:0000bd70       ??_C@_1M@MBFDNDND@?$AAz?$AAh?$AA?9?$AAs?$AAg?$AA?$AA@ 10070d70     libucrt:lcidtoname_downlevel.obj
 0002:0000bd80       ??_C@_1M@IMEPLEPE@?$AAz?$AAh?$AA?9?$AAt?$AAw?$AA?$AA@ 10070d80     libucrt:lcidtoname_downlevel.obj
 0002:0000bd90       ??_C@_1M@BBGHNHJP@?$AAz?$AAu?$AA?9?$AAz?$AAa?$AA?$AA@ 10070d90     libucrt:lcidtoname_downlevel.obj
 0002:0000bda0       ?large_power_data@?1??multiply_by_power_of_ten@__crt_strtox@@YA_NAAUbig_integer@2@I@Z@4QBIB 10070da0     libucrt:cfout.obj
 0002:0000c878       ?large_power_indices@?1??multiply_by_power_of_ten@__crt_strtox@@YA_NAAUbig_integer@2@I@Z@4QBUunpack_index@?1??12@YA_N0I@Z@B 10071878     libucrt:cfout.obj
 0002:0000c930       ?small_powers_of_ten@?6??multiply_by_power_of_ten@__crt_strtox@@YA_NAAUbig_integer@2@I@Z@4QBIB 10071930     libucrt:cfout.obj
 0002:0000c95c       ??_C@_01GBGANLPD@0?$AA@    1007195c     libucrt:cfout.obj
 0002:0000c960       ??_C@_05DNEBIAHO@1?$CDINF?$AA@ 10071960     libucrt:cfout.obj
 0002:0000c968       ??_C@_06IMKFLFPG@1?$CDQNAN?$AA@ 10071968     libucrt:cfout.obj
 0002:0000c970       ??_C@_06PGGFOGJG@1?$CDSNAN?$AA@ 10071970     libucrt:cfout.obj
 0002:0000c978       ??_C@_05PHHOCPM@1?$CDIND?$AA@ 10071978     libucrt:cfout.obj
 0002:0000c980       ??_C@_1BC@LLOKLNP@?$AAa?$AAm?$AAe?$AAr?$AAi?$AAc?$AAa?$AAn?$AA?$AA@ 10071980     libucrt:get_qualified_locale.obj
 0002:0000c998       ??_C@_1CC@HEIGCDGG@?$AAa?$AAm?$AAe?$AAr?$AAi?$AAc?$AAa?$AAn?$AA?5?$AAe?$AAn?$AAg?$AAl?$AAi?$AAs?$AAh?$AA?$AA@ 10071998     libucrt:get_qualified_locale.obj
 0002:0000c9c0       ??_C@_1CC@IHCNOMIN@?$AAa?$AAm?$AAe?$AAr?$AAi?$AAc?$AAa?$AAn?$AA?9?$AAe?$AAn?$AAg?$AAl?$AAi?$AAs?$AAh?$AA?$AA@ 100719c0     libucrt:get_qualified_locale.obj
 0002:0000c9e8       ??_C@_1BG@GKAGPCGG@?$AAa?$AAu?$AAs?$AAt?$AAr?$AAa?$AAl?$AAi?$AAa?$AAn?$AA?$AA@ 100719e8     libucrt:get_qualified_locale.obj
 0002:0000ca04       ??_C@_1BA@GMENCENF@?$AAb?$AAe?$AAl?$AAg?$AAi?$AAa?$AAn?$AA?$AA@ 10071a04     libucrt:get_qualified_locale.obj
 0002:0000ca18       ??_C@_1BC@PJMIIAAN@?$AAc?$AAa?$AAn?$AAa?$AAd?$AAi?$AAa?$AAn?$AA?$AA@ 10071a18     libucrt:get_qualified_locale.obj
 0002:0000ca30       ??_C@_17NOIMNFBF@?$AAc?$AAh?$AAh?$AA?$AA@ 10071a30     libucrt:get_qualified_locale.obj
 0002:0000ca3c       ??_C@_17GGDALCHA@?$AAc?$AAh?$AAi?$AA?$AA@ 10071a3c     libucrt:get_qualified_locale.obj
 0002:0000ca48       ??_C@_1BA@NPNJKIBL@?$AAc?$AAh?$AAi?$AAn?$AAe?$AAs?$AAe?$AA?$AA@ 10071a48     libucrt:get_qualified_locale.obj
 0002:0000ca5c       ??_C@_1CC@DINBAMMJ@?$AAc?$AAh?$AAi?$AAn?$AAe?$AAs?$AAe?$AA?9?$AAh?$AAo?$AAn?$AAg?$AAk?$AAo?$AAn?$AAg?$AA?$AA@ 10071a5c     libucrt:get_qualified_locale.obj
 0002:0000ca84       ??_C@_1CG@IOBJPACO@?$AAc?$AAh?$AAi?$AAn?$AAe?$AAs?$AAe?$AA?9?$AAs?$AAi?$AAm?$AAp?$AAl?$AAi?$AAf?$AAi?$AAe?$AAd?$AA?$AA@ 10071a84     libucrt:get_qualified_locale.obj
 0002:0000cab4       ??_C@_1CE@GAJNDCKG@?$AAc?$AAh?$AAi?$AAn?$AAe?$AAs?$AAe?$AA?9?$AAs?$AAi?$AAn?$AAg?$AAa?$AAp?$AAo?$AAr?$AAe?$AA?$AA@ 10071ab4     libucrt:get_qualified_locale.obj
 0002:0000cae0       ??_C@_1CI@PAJPIOOD@?$AAc?$AAh?$AAi?$AAn?$AAe?$AAs?$AAe?$AA?9?$AAt?$AAr?$AAa?$AAd?$AAi?$AAt?$AAi?$AAo?$AAn?$AAa?$AAl?$AA?$AA@ 10071ae0     libucrt:get_qualified_locale.obj
 0002:0000cb10       ??_C@_1BM@NILJBMMD@?$AAd?$AAu?$AAt?$AAc?$AAh?$AA?9?$AAb?$AAe?$AAl?$AAg?$AAi?$AAa?$AAn?$AA?$AA@ 10071b10     libucrt:get_qualified_locale.obj
 0002:0000cb34       ??_C@_1CC@OOJPJNEJ@?$AAe?$AAn?$AAg?$AAl?$AAi?$AAs?$AAh?$AA?9?$AAa?$AAm?$AAe?$AAr?$AAi?$AAc?$AAa?$AAn?$AA?$AA@ 10071b34     libucrt:get_qualified_locale.obj
 0002:0000cb5c       ??_C@_1BI@IOLFEEM@?$AAe?$AAn?$AAg?$AAl?$AAi?$AAs?$AAh?$AA?9?$AAa?$AAu?$AAs?$AA?$AA@ 10071b5c     libucrt:get_qualified_locale.obj
 0002:0000cb78       ??_C@_1BO@HFFNLENJ@?$AAe?$AAn?$AAg?$AAl?$AAi?$AAs?$AAh?$AA?9?$AAb?$AAe?$AAl?$AAi?$AAz?$AAe?$AA?$AA@ 10071b78     libucrt:get_qualified_locale.obj
 0002:0000cb9c       ??_C@_1BI@HAPKJMPO@?$AAe?$AAn?$AAg?$AAl?$AAi?$AAs?$AAh?$AA?9?$AAc?$AAa?$AAn?$AA?$AA@ 10071b9c     libucrt:get_qualified_locale.obj
 0002:0000cbb8       ??_C@_1CE@HLNDMIOJ@?$AAe?$AAn?$AAg?$AAl?$AAi?$AAs?$AAh?$AA?9?$AAc?$AAa?$AAr?$AAi?$AAb?$AAb?$AAe?$AAa?$AAn?$AA?$AA@ 10071bb8     libucrt:get_qualified_locale.obj
 0002:0000cbe4       ??_C@_1BI@LDHJHHAC@?$AAe?$AAn?$AAg?$AAl?$AAi?$AAs?$AAh?$AA?9?$AAi?$AAr?$AAe?$AA?$AA@ 10071be4     libucrt:get_qualified_locale.obj
 0002:0000cc00       ??_C@_1CA@NJMMCFOC@?$AAe?$AAn?$AAg?$AAl?$AAi?$AAs?$AAh?$AA?9?$AAj?$AAa?$AAm?$AAa?$AAi?$AAc?$AAa?$AA?$AA@ 10071c00     libucrt:get_qualified_locale.obj
 0002:0000cc28       ??_C@_1BG@BHJEBBGG@?$AAe?$AAn?$AAg?$AAl?$AAi?$AAs?$AAh?$AA?9?$AAn?$AAz?$AA?$AA@ 10071c28     libucrt:get_qualified_locale.obj
 0002:0000cc44       ??_C@_1CK@FGOEJJCO@?$AAe?$AAn?$AAg?$AAl?$AAi?$AAs?$AAh?$AA?9?$AAs?$AAo?$AAu?$AAt?$AAh?$AA?5?$AAa?$AAf?$AAr?$AAi?$AAc?$AAa?$AA?$AA@ 10071c44     libucrt:get_qualified_locale.obj
 0002:0000cc78       ??_C@_1DE@PDBJPCJ@?$AAe?$AAn?$AAg?$AAl?$AAi?$AAs?$AAh?$AA?9?$AAt?$AAr?$AAi?$AAn?$AAi?$AAd?$AAa?$AAd?$AA?5?$AAy?$AA?5?$AAt?$AAo?$AAb?$AAa?$AAg?$AAo?$AA?$AA@ 10071c78     libucrt:get_qualified_locale.obj
 0002:0000ccb8       ??_C@_1BG@JGCANDME@?$AAe?$AAn?$AAg?$AAl?$AAi?$AAs?$AAh?$AA?9?$AAu?$AAk?$AA?$AA@ 10071cb8     libucrt:get_qualified_locale.obj
 0002:0000ccd4       ??_C@_1BG@DINKMLE@?$AAe?$AAn?$AAg?$AAl?$AAi?$AAs?$AAh?$AA?9?$AAu?$AAs?$AA?$AA@ 10071cd4     libucrt:get_qualified_locale.obj
 0002:0000ccf0       ??_C@_1BI@NMFDBHJE@?$AAe?$AAn?$AAg?$AAl?$AAi?$AAs?$AAh?$AA?9?$AAu?$AAs?$AAa?$AA?$AA@ 10071cf0     libucrt:get_qualified_locale.obj
 0002:0000cd0c       ??_C@_1BO@OIHKJKII@?$AAf?$AAr?$AAe?$AAn?$AAc?$AAh?$AA?9?$AAb?$AAe?$AAl?$AAg?$AAi?$AAa?$AAn?$AA?$AA@ 10071d0c     libucrt:get_qualified_locale.obj
 0002:0000cd30       ??_C@_1CA@NKAELJKI@?$AAf?$AAr?$AAe?$AAn?$AAc?$AAh?$AA?9?$AAc?$AAa?$AAn?$AAa?$AAd?$AAi?$AAa?$AAn?$AA?$AA@ 10071d30     libucrt:get_qualified_locale.obj
 0002:0000cd58       ??_C@_1CE@MGKCNLGN@?$AAf?$AAr?$AAe?$AAn?$AAc?$AAh?$AA?9?$AAl?$AAu?$AAx?$AAe?$AAm?$AAb?$AAo?$AAu?$AAr?$AAg?$AA?$AA@ 10071d58     libucrt:get_qualified_locale.obj
 0002:0000cd84       ??_C@_1BK@CEGEAILM@?$AAf?$AAr?$AAe?$AAn?$AAc?$AAh?$AA?9?$AAs?$AAw?$AAi?$AAs?$AAs?$AA?$AA@ 10071d84     libucrt:get_qualified_locale.obj
 0002:0000cda4       ??_C@_1CA@PAFKEOCC@?$AAg?$AAe?$AAr?$AAm?$AAa?$AAn?$AA?9?$AAa?$AAu?$AAs?$AAt?$AAr?$AAi?$AAa?$AAn?$AA?$AA@ 10071da4     libucrt:get_qualified_locale.obj
 0002:0000cdcc       ??_C@_1CI@HCFHGOFD@?$AAg?$AAe?$AAr?$AAm?$AAa?$AAn?$AA?9?$AAl?$AAi?$AAc?$AAh?$AAt?$AAe?$AAn?$AAs?$AAt?$AAe?$AAi?$AAn?$AA?$AA@ 10071dcc     libucrt:get_qualified_locale.obj
 0002:0000cdfc       ??_C@_1CE@FEDDNPDG@?$AAg?$AAe?$AAr?$AAm?$AAa?$AAn?$AA?9?$AAl?$AAu?$AAx?$AAe?$AAm?$AAb?$AAo?$AAu?$AAr?$AAg?$AA?$AA@ 10071dfc     libucrt:get_qualified_locale.obj
 0002:0000ce28       ??_C@_1BK@LIMINNMN@?$AAg?$AAe?$AAr?$AAm?$AAa?$AAn?$AA?9?$AAs?$AAw?$AAi?$AAs?$AAs?$AA?$AA@ 10071e28     libucrt:get_qualified_locale.obj
 0002:0000ce48       ??_C@_1BM@LGMDBEPD@?$AAi?$AAr?$AAi?$AAs?$AAh?$AA?9?$AAe?$AAn?$AAg?$AAl?$AAi?$AAs?$AAh?$AA?$AA@ 10071e48     libucrt:get_qualified_locale.obj
 0002:0000ce6c       ??_C@_1BM@NNCFBAEE@?$AAi?$AAt?$AAa?$AAl?$AAi?$AAa?$AAn?$AA?9?$AAs?$AAw?$AAi?$AAs?$AAs?$AA?$AA@ 10071e6c     libucrt:get_qualified_locale.obj
 0002:0000ce90       ??_C@_1BE@FEDJNPIB@?$AAn?$AAo?$AAr?$AAw?$AAe?$AAg?$AAi?$AAa?$AAn?$AA?$AA@ 10071e90     libucrt:get_qualified_locale.obj
 0002:0000cea8       ??_C@_1CC@CILKDEIE@?$AAn?$AAo?$AAr?$AAw?$AAe?$AAg?$AAi?$AAa?$AAn?$AA?9?$AAb?$AAo?$AAk?$AAm?$AAa?$AAl?$AA?$AA@ 10071ea8     libucrt:get_qualified_locale.obj
 0002:0000ced0       ??_C@_1CE@DHMMHEPL@?$AAn?$AAo?$AAr?$AAw?$AAe?$AAg?$AAi?$AAa?$AAn?$AA?9?$AAn?$AAy?$AAn?$AAo?$AAr?$AAs?$AAk?$AA?$AA@ 10071ed0     libucrt:get_qualified_locale.obj
 0002:0000cefc       ??_C@_1CK@OPNMHECD@?$AAp?$AAo?$AAr?$AAt?$AAu?$AAg?$AAu?$AAe?$AAs?$AAe?$AA?9?$AAb?$AAr?$AAa?$AAz?$AAi?$AAl?$AAi?$AAa?$AAn?$AA?$AA@ 10071efc     libucrt:get_qualified_locale.obj
 0002:0000cf30       ??_C@_1CE@KEEHCDB@?$AAs?$AAp?$AAa?$AAn?$AAi?$AAs?$AAh?$AA?9?$AAa?$AAr?$AAg?$AAe?$AAn?$AAt?$AAi?$AAn?$AAa?$AA?$AA@ 10071f30     libucrt:get_qualified_locale.obj
 0002:0000cf5c       ??_C@_1CA@GIAOLHJD@?$AAs?$AAp?$AAa?$AAn?$AAi?$AAs?$AAh?$AA?9?$AAb?$AAo?$AAl?$AAi?$AAv?$AAi?$AAa?$AA?$AA@ 10071f5c     libucrt:get_qualified_locale.obj
 0002:0000cf84       ??_C@_1BM@OJNDFNPD@?$AAs?$AAp?$AAa?$AAn?$AAi?$AAs?$AAh?$AA?9?$AAc?$AAh?$AAi?$AAl?$AAe?$AA?$AA@ 10071f84     libucrt:get_qualified_locale.obj
 0002:0000cfa8       ??_C@_1CC@OCOLPALL@?$AAs?$AAp?$AAa?$AAn?$AAi?$AAs?$AAh?$AA?9?$AAc?$AAo?$AAl?$AAo?$AAm?$AAb?$AAi?$AAa?$AA?$AA@ 10071fa8     libucrt:get_qualified_locale.obj
 0002:0000cfd0       ??_C@_1CG@BPOFMKBB@?$AAs?$AAp?$AAa?$AAn?$AAi?$AAs?$AAh?$AA?9?$AAc?$AAo?$AAs?$AAt?$AAa?$AA?5?$AAr?$AAi?$AAc?$AAa?$AA?$AA@ 10071fd0     libucrt:get_qualified_locale.obj
 0002:0000d000       ??_C@_1DG@IGOBAPBB@?$AAs?$AAp?$AAa?$AAn?$AAi?$AAs?$AAh?$AA?9?$AAd?$AAo?$AAm?$AAi?$AAn?$AAi?$AAc?$AAa?$AAn?$AA?5?$AAr?$AAe?$AAp?$AAu?$AAb?$AAl?$AAi?$AAc?$AA?$AA@ 10072000     libucrt:get_qualified_locale.obj
 0002:0000d040       ??_C@_1CA@JHAPGEGI@?$AAs?$AAp?$AAa?$AAn?$AAi?$AAs?$AAh?$AA?9?$AAe?$AAc?$AAu?$AAa?$AAd?$AAo?$AAr?$AA?$AA@ 10072040     libucrt:get_qualified_locale.obj
 0002:0000d068       ??_C@_1CI@LAPALJPP@?$AAs?$AAp?$AAa?$AAn?$AAi?$AAs?$AAh?$AA?9?$AAe?$AAl?$AA?5?$AAs?$AAa?$AAl?$AAv?$AAa?$AAd?$AAo?$AAr?$AA?$AA@ 10072068     libucrt:get_qualified_locale.obj
 0002:0000d098       ??_C@_1CE@PDGBOFOM@?$AAs?$AAp?$AAa?$AAn?$AAi?$AAs?$AAh?$AA?9?$AAg?$AAu?$AAa?$AAt?$AAe?$AAm?$AAa?$AAl?$AAa?$AA?$AA@ 10072098     libucrt:get_qualified_locale.obj
 0002:0000d0c4       ??_C@_1CC@NBEBAODI@?$AAs?$AAp?$AAa?$AAn?$AAi?$AAs?$AAh?$AA?9?$AAh?$AAo?$AAn?$AAd?$AAu?$AAr?$AAa?$AAs?$AA?$AA@ 100720c4     libucrt:get_qualified_locale.obj
 0002:0000d0ec       ??_C@_1CA@LLKGHBMF@?$AAs?$AAp?$AAa?$AAn?$AAi?$AAs?$AAh?$AA?9?$AAm?$AAe?$AAx?$AAi?$AAc?$AAa?$AAn?$AA?$AA@ 100720ec     libucrt:get_qualified_locale.obj
 0002:0000d114       ??_C@_1BO@LKNDOIGD@?$AAs?$AAp?$AAa?$AAn?$AAi?$AAs?$AAh?$AA?9?$AAm?$AAo?$AAd?$AAe?$AAr?$AAn?$AA?$AA@ 10072114     libucrt:get_qualified_locale.obj
 0002:0000d138       ??_C@_1CE@NMDMOEEB@?$AAs?$AAp?$AAa?$AAn?$AAi?$AAs?$AAh?$AA?9?$AAn?$AAi?$AAc?$AAa?$AAr?$AAa?$AAg?$AAu?$AAa?$AA?$AA@ 10072138     libucrt:get_qualified_locale.obj
 0002:0000d164       ??_C@_1BO@LLCBEJGB@?$AAs?$AAp?$AAa?$AAn?$AAi?$AAs?$AAh?$AA?9?$AAp?$AAa?$AAn?$AAa?$AAm?$AAa?$AA?$AA@ 10072164     libucrt:get_qualified_locale.obj
 0002:0000d188       ??_C@_1CC@FKPGGIHO@?$AAs?$AAp?$AAa?$AAn?$AAi?$AAs?$AAh?$AA?9?$AAp?$AAa?$AAr?$AAa?$AAg?$AAu?$AAa?$AAy?$AA?$AA@ 10072188     libucrt:get_qualified_locale.obj
 0002:0000d1b0       ??_C@_1BK@CDEIHOOP@?$AAs?$AAp?$AAa?$AAn?$AAi?$AAs?$AAh?$AA?9?$AAp?$AAe?$AAr?$AAu?$AA?$AA@ 100721b0     libucrt:get_qualified_locale.obj
 0002:0000d1d0       ??_C@_1CI@GAHAKKGP@?$AAs?$AAp?$AAa?$AAn?$AAi?$AAs?$AAh?$AA?9?$AAp?$AAu?$AAe?$AAr?$AAt?$AAo?$AA?5?$AAr?$AAi?$AAc?$AAo?$AA?$AA@ 100721d0     libucrt:get_qualified_locale.obj
 0002:0000d200       ??_C@_1CA@NKJBCAGP@?$AAs?$AAp?$AAa?$AAn?$AAi?$AAs?$AAh?$AA?9?$AAu?$AAr?$AAu?$AAg?$AAu?$AAa?$AAy?$AA?$AA@ 10072200     libucrt:get_qualified_locale.obj
 0002:0000d228       ??_C@_1CE@ODILCONM@?$AAs?$AAp?$AAa?$AAn?$AAi?$AAs?$AAh?$AA?9?$AAv?$AAe?$AAn?$AAe?$AAz?$AAu?$AAe?$AAl?$AAa?$AA?$AA@ 10072228     libucrt:get_qualified_locale.obj
 0002:0000d254       ??_C@_1CA@OBNMCGFO@?$AAs?$AAw?$AAe?$AAd?$AAi?$AAs?$AAh?$AA?9?$AAf?$AAi?$AAn?$AAl?$AAa?$AAn?$AAd?$AA?$AA@ 10072254     libucrt:get_qualified_locale.obj
 0002:0000d27c       ??_C@_1M@PIPDDPPI@?$AAs?$AAw?$AAi?$AAs?$AAs?$AA?$AA@ 1007227c     libucrt:get_qualified_locale.obj
 0002:0000d28c       ??_C@_15GMFIMNFM@?$AAu?$AAs?$AA?$AA@ 1007228c     libucrt:get_qualified_locale.obj
 0002:0000d294       ??_C@_17HAEBFAGL@?$AAu?$AAs?$AAa?$AA?$AA@ 10072294     libucrt:get_qualified_locale.obj
 0002:0000d2a0       ??_C@_1BA@DPFJEPHB@?$AAa?$AAm?$AAe?$AAr?$AAi?$AAc?$AAa?$AA?$AA@ 100722a0     libucrt:get_qualified_locale.obj
 0002:0000d2b4       ??_C@_1BA@ELOGGFK@?$AAb?$AAr?$AAi?$AAt?$AAa?$AAi?$AAn?$AA?$AA@ 100722b4     libucrt:get_qualified_locale.obj
 0002:0000d2c8       ??_C@_1M@GHBGIGDA@?$AAc?$AAh?$AAi?$AAn?$AAa?$AA?$AA@ 100722c8     libucrt:get_qualified_locale.obj
 0002:0000d2d8       ??_C@_1M@NCHEJOPO@?$AAc?$AAz?$AAe?$AAc?$AAh?$AA?$AA@ 100722d8     libucrt:get_qualified_locale.obj
 0002:0000d2e8       ??_C@_1BA@BKPAPBLA@?$AAe?$AAn?$AAg?$AAl?$AAa?$AAn?$AAd?$AA?$AA@ 100722e8     libucrt:get_qualified_locale.obj
 0002:0000d2fc       ??_C@_1BM@HKBCKIPC@?$AAg?$AAr?$AAe?$AAa?$AAt?$AA?5?$AAb?$AAr?$AAi?$AAt?$AAa?$AAi?$AAn?$AA?$AA@ 100722fc     libucrt:get_qualified_locale.obj
 0002:0000d320       ??_C@_1BA@PPCHPGJB@?$AAh?$AAo?$AAl?$AAl?$AAa?$AAn?$AAd?$AA?$AA@ 10072320     libucrt:get_qualified_locale.obj
 0002:0000d334       ??_C@_1BE@JBMPEGDG@?$AAh?$AAo?$AAn?$AAg?$AA?9?$AAk?$AAo?$AAn?$AAg?$AA?$AA@ 10072334     libucrt:get_qualified_locale.obj
 0002:0000d34c       ??_C@_1BI@KOELBBPJ@?$AAn?$AAe?$AAw?$AA?9?$AAz?$AAe?$AAa?$AAl?$AAa?$AAn?$AAd?$AA?$AA@ 1007234c     libucrt:get_qualified_locale.obj
 0002:0000d368       ??_C@_15HIEBHAIO@?$AAn?$AAz?$AA?$AA@ 10072368     libucrt:get_qualified_locale.obj
 0002:0000d370       ??_C@_1BC@CHBCPFPI@?$AAp?$AAr?$AA?5?$AAc?$AAh?$AAi?$AAn?$AAa?$AA?$AA@ 10072370     libucrt:get_qualified_locale.obj
 0002:0000d388       ??_C@_1BC@JAOIIFKD@?$AAp?$AAr?$AA?9?$AAc?$AAh?$AAi?$AAn?$AAa?$AA?$AA@ 10072388     libucrt:get_qualified_locale.obj
 0002:0000d3a0       ??_C@_1BI@BEHPPHKC@?$AAp?$AAu?$AAe?$AAr?$AAt?$AAo?$AA?9?$AAr?$AAi?$AAc?$AAo?$AA?$AA@ 100723a0     libucrt:get_qualified_locale.obj
 0002:0000d3bc       ??_C@_1O@PAEOFKDI@?$AAs?$AAl?$AAo?$AAv?$AAa?$AAk?$AA?$AA@ 100723bc     libucrt:get_qualified_locale.obj
 0002:0000d3cc       ??_C@_1BK@FIHMCKAM@?$AAs?$AAo?$AAu?$AAt?$AAh?$AA?5?$AAa?$AAf?$AAr?$AAi?$AAc?$AAa?$AA?$AA@ 100723cc     libucrt:get_qualified_locale.obj
 0002:0000d3ec       ??_C@_1BI@NAEOODKB@?$AAs?$AAo?$AAu?$AAt?$AAh?$AA?5?$AAk?$AAo?$AAr?$AAe?$AAa?$AA?$AA@ 100723ec     libucrt:get_qualified_locale.obj
 0002:0000d408       ??_C@_1BK@FBDGGIFF@?$AAs?$AAo?$AAu?$AAt?$AAh?$AA?9?$AAa?$AAf?$AAr?$AAi?$AAc?$AAa?$AA?$AA@ 10072408     libucrt:get_qualified_locale.obj
 0002:0000d428       ??_C@_1BI@GHLEJDPK@?$AAs?$AAo?$AAu?$AAt?$AAh?$AA?9?$AAk?$AAo?$AAr?$AAe?$AAa?$AA?$AA@ 10072428     libucrt:get_qualified_locale.obj
 0002:0000d444       ??_C@_1CE@PLHLOMJF@?$AAt?$AAr?$AAi?$AAn?$AAi?$AAd?$AAa?$AAd?$AA?5?$AA?$CG?$AA?5?$AAt?$AAo?$AAb?$AAa?$AAg?$AAo?$AA?$AA@ 10072444     libucrt:get_qualified_locale.obj
 0002:0000d470       ??_C@_1BO@MODIMHHI@?$AAu?$AAn?$AAi?$AAt?$AAe?$AAd?$AA?9?$AAk?$AAi?$AAn?$AAg?$AAd?$AAo?$AAm?$AA?$AA@ 10072470     libucrt:get_qualified_locale.obj
 0002:0000d494       ??_C@_1BM@FFHJONBJ@?$AAu?$AAn?$AAi?$AAt?$AAe?$AAd?$AA?9?$AAs?$AAt?$AAa?$AAt?$AAe?$AAs?$AA?$AA@ 10072494     libucrt:get_qualified_locale.obj
 0002:0000d4b8       ___acrt_rg_language        100724b8     libucrt:get_qualified_locale.obj
 0002:0000d860       ___acrt_rg_language_count  10072860     libucrt:get_qualified_locale.obj
 0002:0000d868       ___acrt_rg_country         10072868     libucrt:get_qualified_locale.obj
 0002:0000d9b4       ___acrt_rg_country_count   100729b4     libucrt:get_qualified_locale.obj
 0002:0000d9b8       ??_C@_17DNCLJFIF@?$AAA?$AAC?$AAP?$AA?$AA@ 100729b8     libucrt:get_qualified_locale.obj
 0002:0000d9c4       ??_C@_17CIKBIHLH@?$AAO?$AAC?$AAP?$AA?$AA@ 100729c4     libucrt:get_qualified_locale.obj
 0002:0000d9d0       ___rglangidNotDefault      100729d0     libucrt:getqloc_downlevel.obj
 0002:0000da58       ??_C@_1BA@BALFACEM@?$AAC?$AAO?$AAN?$AAO?$AAU?$AAT?$AA$?$AA?$AA@ 10072a58     libucrt:initcon.obj
 0002:0000dbb0       __infinity                 10072bb0     libucrt:87tran.obj
 0002:0000dbba       __minfinity                10072bba     libucrt:87tran.obj
 0002:0000dbc4       __logemax                  10072bc4     libucrt:87tran.obj
 0002:0000dbea       __OP_EXPjmptab             10072bea     libucrt:87tran.obj
 0002:0000dc20       __indefinite               10072c20     libucrt:87disp.obj
 0002:0000dc2a       __piby2                    10072c2a     libucrt:87disp.obj
 0002:0000dc34       __piby4                    10072c34     libucrt:87disp.obj
 0002:0000dc78       __DEFAULT_CW_in_mem        10072c78     libucrt:common.obj
 0002:0000dc7a       __pi_by_2_to_61            10072c7a     libucrt:common.obj
 0002:0000ddd0       ___acrt_log10_table_t      10072dd0     libucrt:log10_tables.obj
 0002:0000e2b0       ___acrt_log10_table_cb     100732b0     libucrt:log10_tables.obj
 0002:0000e794       ??_7type_info@@6B@         10073794     LIBCMT:std_type_info_static.obj
 0002:0000e7d8       __load_config_used         100737d8     LIBCMT:loadcfg.obj
 0002:0000edc4       ??_R4DNameNode@@6B@        10073dc4     libvcruntime:undname.obj
 0002:0000eddc       ??_R3DNameNode@@8          10073ddc     libvcruntime:undname.obj
 0002:0000edf0       ??_R2DNameNode@@8          10073df0     libvcruntime:undname.obj
 0002:0000edf8       ??_R1A@?0A@EA@DNameNode@@8 10073df8     libvcruntime:undname.obj
 0002:0000ee1c       ??_R4charNode@@6B@         10073e1c     libvcruntime:undname.obj
 0002:0000ee34       ??_R3charNode@@8           10073e34     libvcruntime:undname.obj
 0002:0000ee48       ??_R2charNode@@8           10073e48     libvcruntime:undname.obj
 0002:0000ee54       ??_R1A@?0A@EA@charNode@@8  10073e54     libvcruntime:undname.obj
 0002:0000ee78       ??_R4pcharNode@@6B@        10073e78     libvcruntime:undname.obj
 0002:0000ee90       ??_R3pcharNode@@8          10073e90     libvcruntime:undname.obj
 0002:0000eea4       ??_R2pcharNode@@8          10073ea4     libvcruntime:undname.obj
 0002:0000eeb0       ??_R1A@?0A@EA@pcharNode@@8 10073eb0     libvcruntime:undname.obj
 0002:0000eed4       ??_R4pDNameNode@@6B@       10073ed4     libvcruntime:undname.obj
 0002:0000eeec       ??_R3pDNameNode@@8         10073eec     libvcruntime:undname.obj
 0002:0000ef00       ??_R2pDNameNode@@8         10073f00     libvcruntime:undname.obj
 0002:0000ef0c       ??_R1A@?0A@EA@pDNameNode@@8 10073f0c     libvcruntime:undname.obj
 0002:0000ef30       ??_R4DNameStatusNode@@6B@  10073f30     libvcruntime:undname.obj
 0002:0000ef48       ??_R3DNameStatusNode@@8    10073f48     libvcruntime:undname.obj
 0002:0000ef5c       ??_R2DNameStatusNode@@8    10073f5c     libvcruntime:undname.obj
 0002:0000ef68       ??_R1A@?0A@EA@DNameStatusNode@@8 10073f68     libvcruntime:undname.obj
 0002:0000ef8c       ??_R4pairNode@@6B@         10073f8c     libvcruntime:undname.obj
 0002:0000efa4       ??_R3pairNode@@8           10073fa4     libvcruntime:undname.obj
 0002:0000efb8       ??_R2pairNode@@8           10073fb8     libvcruntime:undname.obj
 0002:0000efc4       ??_R1A@?0A@EA@pairNode@@8  10073fc4     libvcruntime:undname.obj
 0002:0000efe8       ??_R4type_info@@6B@        10073fe8     LIBCMT:std_type_info_static.obj
 0002:0000f000       ??_R3type_info@@8          10074000     LIBCMT:std_type_info_static.obj
 0002:0000f014       ??_R2type_info@@8          10074014     LIBCMT:std_type_info_static.obj
 0002:0000f01c       ??_R1A@?0A@EA@type_info@@8 1007401c     LIBCMT:std_type_info_static.obj
 0002:0000f150       ___safe_se_handler_table   10074150     <linker-defined>
 0002:0000f444       ___rtc_iaa                 10074444     LIBCMT:_initsect_.obj
 0002:0000f548       ___rtc_izz                 10074548     LIBCMT:_initsect_.obj
 0002:0000f64c       ___rtc_taa                 1007464c     LIBCMT:_initsect_.obj
 0002:0000f750       ___rtc_tzz                 10074750     LIBCMT:_initsect_.obj
 0003:00000350       _proj3_P                   10076350     proj3_data.obj
 0003:00000740       _pci20041digout            10076740     xpctarget.obj
 0003:00000744       _nipcdio24cnfg             10076744     xpctarget.obj
 0003:00000748       _rtddm6604cnfg             10076748     xpctarget.obj
 0003:00000778       _DefaultCOMIOBase          10076778     xpcruntime:xpcimports.obj
 0003:00000788       _DefaultCOMIRQ             10076788     xpcruntime:xpcimports.obj
 0003:000007a0       __fltused                  100767a0     LIBCMT:fltused.obj
 0003:000007b0       ___isa_enabled             100767b0     LIBCMT:_cpu_disp_.obj
 0003:000007b4       ___security_cookie_complement 100767b4     LIBCMT:gs_cookie.obj
 0003:000007b8       ___security_cookie         100767b8     LIBCMT:gs_cookie.obj
 0003:000007c0       ___scrt_native_dllmain_reason 100767c0     LIBCMT:utility.obj
 0003:000007e0       __NLG_Destination          100767e0     libvcruntime:_exsup_.obj
 0003:000007f8       __iob                      100767f8     libucrt:_file.obj
 0003:000008d4       ___abort_behavior          100768d4     libucrt:abort.obj
 0003:000008e0       ___badioinfo               100768e0     libucrt:ioinit.obj
 0003:00000924       ___mb_cur_max              10076924     libucrt:nlsdata.obj
 0003:00000928       ___acrt_initial_locale_data 10076928     libucrt:nlsdata.obj
 0003:00000a04       ___acrt_initial_locale_pointers 10076a04     libucrt:nlsdata.obj
 0003:00000a10       ___acrt_wide_c_locale_string 10076a10     libucrt:nlsdata.obj
 0003:00000a18       __lookuptrailbytes         10076a18     libucrt:read.obj
 0003:00000c78       __mbctype                  10076c78     libucrt:mbctype.obj
 0003:00000db0       __mbcasemap                10076db0     libucrt:mbctype.obj
 0003:00000ee8       ___acrt_initial_multibyte_data 10076ee8     libucrt:mbctype.obj
 0003:00001174       ___acrt_current_multibyte_data 10077174     libucrt:mbctype.obj
 0003:00001178       __pctype                   10077178     libucrt:ctype.obj
 0003:0000117c       __pwctype                  1007717c     libucrt:ctype.obj
 0003:00001180       ___globallocalestatus      10077180     libucrt:glstatus.obj
 0003:00001184       ___acrt_lconv_static_decimal 10077184     libucrt:localeconv.obj
 0003:00001188       ___acrt_lconv_static_W_decimal 10077188     libucrt:localeconv.obj
 0003:00001190       ___acrt_lconv_c            10077190     libucrt:localeconv.obj
 0003:000011f0       ___acrt_lconv              100771f0     libucrt:localeconv.obj
 0003:00001200       ___dcrt_lowio_console_output_handle 10077200     libucrt:initcon.obj
 0003:00001344       ??_R0?AVDNameNode@@@8      10077344     libvcruntime:undname.obj
 0003:00001360       ??_R0?AVcharNode@@@8       10077360     libvcruntime:undname.obj
 0003:0000137c       ??_R0?AVpcharNode@@@8      1007737c     libvcruntime:undname.obj
 0003:00001398       ??_R0?AVpDNameNode@@@8     10077398     libvcruntime:undname.obj
 0003:000013b8       ??_R0?AVDNameStatusNode@@@8 100773b8     libvcruntime:undname.obj
 0003:000013dc       ??_R0?AVpairNode@@@8       100773dc     libvcruntime:undname.obj
 0003:000013f8       ??_R0?AVtype_info@@@8      100773f8     LIBCMT:std_type_info_static.obj
 0003:000015c8       ___isa_available_default   100775c8     rt_logging.obj
 0003:000015d0       _mxi                       100775d0     proj3_xcp.obj
 0003:00001600       _xmlsize                   10077600     xpctarget.obj
 0003:00001604       _pci20098PortA             10077604     xpctarget.obj
 0003:00001608       _pci20098PortB             10077608     xpctarget.obj
 0003:0000160c       _siepowercan_firmware_initialized 1007760c     xpctarget.obj
 0003:00001610       _siepowercan_port1_configured 10077610     xpctarget.obj
 0003:00001614       _siepowercan_port2_configured 10077614     xpctarget.obj
 0003:00001618       _CANAC2_FIRMWARE_LOADED    10077618     xpctarget.obj
 0003:0000161c       _rs232ports                1007761c     xpctarget.obj
 0003:0000162c       _NI_AT_MIO_16F_5_commreg2  1007762c     xpctarget.obj
 0003:00001630       _RTD_DM6430_init           10077630     xpctarget.obj
 0003:00001634       _RTD_DM6420_init           10077634     xpctarget.obj
 0003:00001638       _CANAC2_FIRMWARE_LOADED_mb1 10077638     xpctarget.obj
 0003:0000163c       _CANAC2_FIRMWARE_LOADED_mb2 1007763c     xpctarget.obj
 0003:00001640       _CANAC2_FIRMWARE_LOADED_mb3 10077640     xpctarget.obj
 0003:00001c84       ___isa_available           10077c84     LIBCMT:_cpu_disp_.obj
 0003:00001c88       ___favor                   10077c88     LIBCMT:_cpu_disp_.obj
 0003:00001c94       ___scrt_current_native_startup_state 10077c94     LIBCMT:utility.obj
 0003:00001c98       ___scrt_native_startup_lock 10077c98     LIBCMT:utility.obj
 0003:00001cc0       ?__type_info_root_node@@3U__type_info_node@@A 10077cc0     LIBCMT:tncleanup.obj
 0003:00001cd0       ?_OptionsStorage@?1??__local_stdio_printf_options@@9@4_KA 10077cd0     LIBCMT:default_local_stdio_options.obj
 0003:00001ce0       ?_OptionsStorage@?1??__local_stdio_scanf_options@@9@4_KA 10077ce0     LIBCMT:default_local_stdio_options.obj
 0003:00001cec       ___scrt_debugger_hook_flag 10077cec     LIBCMT:utility_desktop.obj
 0003:00001d84       ___pPurecall               10077d84     libvcruntime:purevirt_data.obj
 0003:00001d88       ?pArgList@UnDecorator@@0PAVReplicator@@A 10077d88     libvcruntime:undname.obj
 0003:00001d8c       ?pZNameList@UnDecorator@@0PAVReplicator@@A 10077d8c     libvcruntime:undname.obj
 0003:00001d90       ?pTemplateArgList@UnDecorator@@0PAVReplicator@@A 10077d90     libvcruntime:undname.obj
 0003:00001d94       ?gName@UnDecorator@@0PBDB  10077d94     libvcruntime:undname.obj
 0003:00001d98       ?name@UnDecorator@@0PBDB   10077d98     libvcruntime:undname.obj
 0003:00001d9c       ?outputString@UnDecorator@@0PADA 10077d9c     libvcruntime:undname.obj
 0003:00001da0       ?maxStringLength@UnDecorator@@0HA 10077da0     libvcruntime:undname.obj
 0003:00001da4       ?disableFlags@UnDecorator@@0KA 10077da4     libvcruntime:undname.obj
 0003:00001da8       ?fExplicitTemplateParams@UnDecorator@@0_NA 10077da8     libvcruntime:undname.obj
 0003:00001da9       ?fGetTemplateArgumentList@UnDecorator@@0_NA 10077da9     libvcruntime:undname.obj
 0003:00001dac       ?m_pGetParameter@UnDecorator@@0P6APADJ@ZA 10077dac     libvcruntime:undname.obj
 0003:00001dd0       ?nodes@?1??make@DNameStatusNode@@SAPAV2@W4DNameStatus@@@Z@4PAV2@A 10077dd0     libvcruntime:undname.obj
 0003:00001e0c       ??_B?1??make@DNameStatusNode@@SAPAV1@W4DNameStatus@@@Z@51 10077e0c     libvcruntime:undname.obj
 0003:00001e10       __nstream                  10077e10     libucrt:_file.obj
 0003:00001e14       ___piob                    10077e14     libucrt:_file.obj
 0003:00001e1c       __cflush                   10077e1c     libucrt:_file.obj
 0003:000021e4       __environ_table            100781e4     libucrt:environment_initialization.obj
 0003:000021e8       __wenviron_table           100781e8     libucrt:environment_initialization.obj
 0003:000021f0       ___dcrt_initial_wide_environment 100781f0     libucrt:environment_initialization.obj
 0003:000021f4       ___dcrt_initial_narrow_environment 100781f4     libucrt:environment_initialization.obj
 0003:000021f8       ___acrt_atexit_table       100781f8     libucrt:onexit.obj
 0003:00002208       ___acrt_at_quick_exit_table 10078208     libucrt:onexit.obj
 0003:00002328       ___pioinfo                 10078328     libucrt:ioinit.obj
 0003:00002590       __nhandle                  10078590     libucrt:ioinit.obj
 0003:00002598       ___acrt_stdout_buffer      10078598     libucrt:_sftbuf.obj
 0003:0000259c       ___acrt_stderr_buffer      1007859c     libucrt:_sftbuf.obj
 0003:000025a0       ___acrt_locale_changed_data 100785a0     libucrt:wsetlocale.obj
 0003:000025a4       ___acrt_current_locale_data 100785a4     libucrt:nlsdata.obj
 0003:00002eac       ___mblocalename            10078eac     libucrt:mbctype.obj
 0003:00002eb0       ___mbcodepage              10078eb0     libucrt:mbctype.obj
 0003:00002eb4       ___ismbcodepage            10078eb4     libucrt:mbctype.obj
 0003:00002eb8       ___mbulinfo                10078eb8     libucrt:mbctype.obj
 0003:00002ecc       ___argc                    10078ecc     libucrt:argv_data.obj
 0003:00002ed0       ___argv                    10078ed0     libucrt:argv_data.obj
 0003:00002ed4       ___wargv                   10078ed4     libucrt:argv_data.obj
 0003:00002ed8       __acmdln                   10078ed8     libucrt:argv_data.obj
 0003:00002edc       __wcmdln                   10078edc     libucrt:argv_data.obj
 0003:00002ee0       __pgmptr                   10078ee0     libucrt:argv_data.obj
 0003:00002ee4       __wpgmptr                  10078ee4     libucrt:argv_data.obj
 0003:00002ee8       ___acrt_heap               10078ee8     libucrt:heap_handle.obj
 0003:00002ef4       ___acrt_lconv_static_null  10078ef4     libucrt:localeconv.obj
 0003:00002ef8       ___acrt_lconv_static_W_null 10078ef8     libucrt:localeconv.obj
 0003:00002efc       __commode                  10078efc     libucrt:ncommode.obj
 0003:00002f00       __umaskval                 10078f00     libucrt:umask.obj
 0003:00002f04       ___fastflag                10078f04     libucrt:fp_flags.obj
 0003:00002f0c       __fmode                    10078f0c     libucrt:txtmode.obj
 0003:00002f20       _CANAC2_2_receiveindex_mb3 10078f20     <common>
 0003:00005ff4       _CANAC2_2_receivemaxindex_mb3 1007bff4     <common>
 0003:00006000       _CANAC2_2_sendindex_mb3    1007c000     <common>
 0003:00006320       _CANAC2_2_sendmaxindex_mb3 1007c320     <common>
 0003:00006340       _CANAC2_1_receiveindex_mb3 1007c340     <common>
 0003:00006660       _CANAC2_1_receivemaxindex_mb3 1007c660     <common>
 0003:00006680       _CANAC2_1_sendindex_mb3    1007c680     <common>
 0003:000069a0       _CANAC2_1_sendmaxindex_mb3 1007c9a0     <common>
 0003:000069c0       _CANAC2_2_receive_mb3      1007c9c0     <common>
 0003:00006ce0       _CANAC2_2_send_mb3         1007cce0     <common>
 0003:00007000       _CANAC2_1_receive_mb3      1007d000     <common>
 0003:00007320       _CANAC2_1_send_mb3         1007d320     <common>
 0003:00007640       _CANAC2_2_receiveindex_mb2 1007d640     <common>
 0003:00007960       _CANAC2_2_receivemaxindex_mb2 1007d960     <common>
 0003:00007980       _CANAC2_2_sendindex_mb2    1007d980     <common>
 0003:00007ca0       _CANAC2_2_sendmaxindex_mb2 1007dca0     <common>
 0003:00007cc0       _CANAC2_1_receiveindex_mb2 1007dcc0     <common>
 0003:00007fe0       _CANAC2_1_receivemaxindex_mb2 1007dfe0     <common>
 0003:00008000       _CANAC2_1_sendindex_mb2    1007e000     <common>
 0003:00008320       _CANAC2_1_sendmaxindex_mb2 1007e320     <common>
 0003:00008340       _CANAC2_2_receive_mb2      1007e340     <common>
 0003:00008660       _CANAC2_2_send_mb2         1007e660     <common>
 0003:00008980       _CANAC2_1_receive_mb2      1007e980     <common>
 0003:00008ca0       _CANAC2_1_send_mb2         1007eca0     <common>
 0003:00008fc0       _CANAC2_2_receiveindex_mb1 1007efc0     <common>
 0003:000092e0       _CANAC2_2_receivemaxindex_mb1 1007f2e0     <common>
 0003:00009300       _CANAC2_2_sendindex_mb1    1007f300     <common>
 0003:00009620       _CANAC2_2_sendmaxindex_mb1 1007f620     <common>
 0003:00009640       _CANAC2_1_receiveindex_mb1 1007f640     <common>
 0003:00009960       _CANAC2_1_receivemaxindex_mb1 1007f960     <common>
 0003:00009980       _CANAC2_1_sendindex_mb1    1007f980     <common>
 0003:00009ca0       _CANAC2_1_sendmaxindex_mb1 1007fca0     <common>
 0003:00009cc0       _CANAC2_2_receive_mb1      1007fcc0     <common>
 0003:00009fe0       _CANAC2_2_send_mb1         1007ffe0     <common>
 0003:0000a300       _CANAC2_1_receive_mb1      10080300     <common>
 0003:0000a620       _CANAC2_1_send_mb1         10080620     <common>
 0003:0000a940       _CANAC2_2_receiveindex     10080940     <common>
 0003:0000ac60       _CANAC2_2_receivemaxindex  10080c60     <common>
 0003:0000ac80       _CANAC2_2_sendindex        10080c80     <common>
 0003:0000afa0       _CANAC2_2_sendmaxindex     10080fa0     <common>
 0003:0000afc0       _CANAC2_1_receiveindex     10080fc0     <common>
 0003:0000b2e0       _CANAC2_1_receivemaxindex  100812e0     <common>
 0003:0000b300       _CANAC2_1_sendindex        10081300     <common>
 0003:0000b620       _CANAC2_1_sendmaxindex     10081620     <common>
 0003:0000b640       _CANAC2_2_receive          10081640     <common>
 0003:0000b960       _CANAC2_2_send             10081960     <common>
 0003:0000bc80       _CANAC2_1_receive          10081c80     <common>
 0003:0000bfa0       _CANAC2_1_send             10081fa0     <common>
 0003:0000c2c0       _siepowercan_can_object_buffer_port2 100822c0     <common>
 0003:000102e0       _siepowercan_can_object_buffer_port1 100862e0     <common>
 0003:000142e0       _rtNaNF                    1008a2e0     <common>
 0003:000142f4       _rtMinusInfF               1008a2f4     <common>
 0003:000142f8       _rtInfF                    1008a2f8     <common>
 0003:00014300       _rtNaN                     1008a300     <common>
 0003:00014308       _rtMinusInf                1008a308     <common>
 0003:00014310       _rtInf                     1008a310     <common>
 0003:00014320       _slrtTETViaXCP             1008a320     <common>
 0003:00014348       ?_OptionsStorage@?1??__local_stdio_printf_options@@9@9 1008a348     <common>
 0003:00014660       _proj3_M_                  1008a660     <common>
 0003:00015380       _proj3_Y                   1008b380     <common>
 0003:000153a0       _proj3_U                   1008b3a0     <common>
 0003:000153c0       _proj3_DW                  1008b3c0     <common>
 0003:00015480       _proj3_X                   1008b480     <common>
 0003:000154a0       _proj3_B                   1008b4a0     <common>
 0003:000155a0       _UDPCloseSend              1008b5a0     <common>
 0003:00015614       _UDPOpenReceive            1008b614     <common>
 0003:00015618       _UDPOpenSend               1008b618     <common>
 0003:0001561c       _ResetClientSocket         1008b61c     <common>
 0003:00015620       _CloseClientSocket         1008b620     <common>
 0003:00015624       _ConnectClientSocket       1008b624     <common>
 0003:00015628       _BindClientSocket          1008b628     <common>
 0003:0001562c       _CreateClientSocket        1008b62c     <common>
 0003:00015630       _ResetServerSocket         1008b630     <common>
 0003:00015634       _CloseServerSocket         1008b634     <common>
 0003:00015638       _ConnectServerSocket       1008b638     <common>
 0003:0001563c       _OpenServerListen          1008b63c     <common>
 0003:00015640       _CreateServerSocket        1008b640     <common>
 0003:00015644       _SocketReceive             1008b644     <common>
 0003:00015648       _SocketSend                1008b648     <common>
 0003:0001564c       _GetSocketState            1008b64c     <common>
 0003:00015650       _GetSocket                 1008b650     <common>
 0003:00015654       _socket                    1008b654     <common>
 0003:00015658       _inet_addr                 1008b658     <common>
 0003:0001565c       _sendto                    1008b65c     <common>
 0003:00015660       _recvfrom                  1008b660     <common>
 0003:00015664       _listen                    1008b664     <common>
 0003:00015668       _ioctlsocket               1008b668     <common>
 0003:0001566c       _connect                   1008b66c     <common>
 0003:00015670       _closesocket               1008b670     <common>
 0003:00015674       _setsockopt                1008b674     <common>
 0003:00015678       _bind                      1008b678     <common>
 0003:0001567c       _accept                    1008b67c     <common>
 0003:00015680       _GetHostTarIPAdd           1008b680     <common>
 0003:00015684       _GetDCUUsage               1008b684     <common>
 0003:00015688       _DeleteRoute               1008b688     <common>
 0003:0001568c       _AddGatewayRoute           1008b68c     <common>
 0003:00015690       _SetIP                     1008b690     <common>
 0003:00015694       _CloseInterface            1008b694     <common>
 0003:00015698       _OpenInterface             1008b698     <common>
 0003:0001569c       _SetIPTASKPriority         1008b69c     <common>
 0003:000156a0       _releaseNIC                1008b6a0     <common>
 0003:000156a4       _NICGetIface               1008b6a4     <common>
 0003:000156a8       _NICSetIface               1008b6a8     <common>
 0003:000156ac       _registerNIC               1008b6ac     <common>
 0003:000156b0       _slrtWarning               1008b6b0     <common>
 0003:000156b4       _slrtGetCPUTCelsius        1008b6b4     <common>
 0003:000156b8       _geterrorstring            1008b6b8     <common>
 0003:000156bc       _getlasterror              1008b6bc     <common>
 0003:000156c0       _slrtGetProfilerState      1008b6c0     <common>
 0003:000156c4       _slrtStopProfiler          1008b6c4     <common>
 0003:000156c8       _slrtStartProfiler         1008b6c8     <common>
 0003:000156cc       _slrtLogEvent              1008b6cc     <common>
 0003:000156d0       _slrtGetDefaultDrive       1008b6d0     <common>
 0003:000156d4       _slrtfsFread               1008b6d4     <common>
 0003:000156d8       _slrtfsGetFileStatus       1008b6d8     <common>
 0003:000156dc       _slrtfsOpenFileAsync       1008b6dc     <common>
 0003:000156e0       _slrtfsCloseFileAsync      1008b6e0     <common>
 0003:000156e4       _slrtfsGetFileErrorMessage 1008b6e4     <common>
 0003:000156e8       _slrtfsGetFileError        1008b6e8     <common>
 0003:000156ec       _slrtfsWriteToFile         1008b6ec     <common>
 0003:000156f0       _slrtfsCloseFile           1008b6f0     <common>
 0003:000156f4       _slrtfsOpenFile            1008b6f4     <common>
 0003:000156f8       _slrtGetSgCRBSpace         1008b6f8     <common>
 0003:000156fc       _slrtGetCRBScratchSpace    1008b6fc     <common>
 0003:00015700       _slrteSetupMSI             1008b700     <common>
 0003:00015704       _slTestRegAssessment       1008b704     <common>
 0003:00015708       _slTestTerminate           1008b708     <common>
 0003:0001570c       _slTestEvalOnFail          1008b70c     <common>
 0003:00015710       _slTestLogAssessments      1008b710     <common>
 0003:00015714       _slTestInitialize          1008b714     <common>
 0003:00015718       _unRegisterPTPTimeRead     1008b718     <common>
 0003:0001571c       _registerPTPTimeRead       1008b71c     <common>
 0003:00015720       _slrteGetCurrentStepSize   1008b720     <common>
 0003:00015724       _slrteSetStepSizeDelta     1008b724     <common>
 0003:00015728       _xpceDAQUpdateTimeStamp    1008b728     <common>
 0003:0001572c       _xpceDAQPostEvent          1008b72c     <common>
 0003:00015730       _StreamVideo               1008b730     <common>
 0003:00015734       _StopVideoDisplay          1008b734     <common>
 0003:00015738       _StartVideoDisplay         1008b738     <common>
 0003:0001573c       _DestroyVideoDisplay       1008b73c     <common>
 0003:00015740       _CreateVideoDisplay        1008b740     <common>
 0003:00015744       _ConvertUImage             1008b744     <common>
 0003:00015748       _StopVideo                 1008b748     <common>
 0003:0001574c       _ReadFrameBuffer           1008b74c     <common>
 0003:00015750       _StartVideo                1008b750     <common>
 0003:00015754       _GetVideoConfigs           1008b754     <common>
 0003:00015758       _FindUsbVideoDevice        1008b758     <common>
 0003:0001575c       _xpceDeleteSemaphore       1008b75c     <common>
 0003:00015760       _xpceSignalSemaphore       1008b760     <common>
 0003:00015764       _xpceWaitSemaphore         1008b764     <common>
 0003:00015768       _xpceCreateSemaphore       1008b768     <common>
 0003:0001576c       _xpceScopeAcqOK            1008b76c     <common>
 0003:00015770       _rl32eRestartAcquisition   1008b770     <common>
 0003:00015774       _rl32eSetTargetScopeSigFt  1008b774     <common>
 0003:00015778       _rl32eSetTargetScope       1008b778     <common>
 0003:0001577c       _xpceFSScopeSet            1008b77c     <common>
 0003:00015780       _rl32eSetScope             1008b780     <common>
 0003:00015784       _rl32eAddSignal            1008b784     <common>
 0003:00015788       _rl32eGetSignalNo          1008b788     <common>
 0003:0001578c       _rl32eDefScope             1008b78c     <common>
 0003:00015790       _rl32eScopeExists          1008b790     <common>
 0003:00015794       _TBGiveSpinFast            1008b794     <common>
 0003:00015798       _TBTakeSpinFast            1008b798     <common>
 0003:0001579c       _TBDeleteSpin              1008b79c     <common>
 0003:000157a0       _TBCreateSpin              1008b7a0     <common>
 0003:000157a4       _xpceGetParamDims          1008b7a4     <common>
 0003:000157a8       _xpceGetParameter          1008b7a8     <common>
 0003:000157ac       _xpceSetParameter          1008b7ac     <common>
 0003:000157b0       _xpceGetSignalValue        1008b7b0     <common>
 0003:000157b4       _xpceAssignPCIInterrupt    1008b7b4     <common>
 0003:000157b8       _rl32eGetPCIInfoAtSlot     1008b7b8     <common>
 0003:000157bc       _rl32eGetPCIInfo           1008b7bc     <common>
 0003:000157c0       _rl32eShowPCIInfo          1008b7c0     <common>
 0003:000157c4       _rl32eShowPCIDev           1008b7c4     <common>
 0003:000157c8       _xpceGetTET                1008b7c8     <common>
 0003:000157cc       _xpceaddEvent              1008b7cc     <common>
 0003:000157d0       _xpceDeRegisterISR         1008b7d0     <common>
 0003:000157d4       _xpceRegisterISR           1008b7d4     <common>
 0003:000157d8       _xpcIsModelInit            1008b7d8     <common>
 0003:000157dc       _xpcGetElapsedTime         1008b7dc     <common>
 0003:000157e0       _xpcBusyWait               1008b7e0     <common>
 0003:000157e4       _xpcFreePhysicalMemory     1008b7e4     <common>
 0003:000157e8       _xpcAllocPhysicalMemory    1008b7e8     <common>
 0003:000157ec       _xpcReserveMemoryRegion    1008b7ec     <common>
 0003:000157f0       _xpcOutpB                  1008b7f0     <common>
 0003:000157f4       _xpcOutpW                  1008b7f4     <common>
 0003:000157f8       _xpcOutpDW                 1008b7f8     <common>
 0003:000157fc       _xpcInpB                   1008b7fc     <common>
 0003:00015800       _xpcInpW                   1008b800     <common>
 0003:00015804       _xpcInpDW                  1008b804     <common>
 0003:00015808       _UDPCloseReceive           1008b808     <common>
 0003:0001580c       ___scrt_ucrt_dll_is_in_use 1008b80c     <common>
 0003:00015818       ___dyn_tls_init_callback   1008b818     <common>
 0003:00015824       __pDestructExceptionObject 1008b824     <common>
 0003:00015830       __pmatherr                 1008b830     <common>
 0003:0001583c       ___use_sse2_mathfcns       1008b83c     <common>
 0004:00000000       __imp__GetModuleHandleA@4  1008c000     kernel32:KERNEL32.dll
 0004:00000004       __imp__GetProcAddress@8    1008c004     kernel32:KERNEL32.dll
 0004:00000008       __imp__UnhandledExceptionFilter@4 1008c008     kernel32:KERNEL32.dll
 0004:0000000c       __imp__SetUnhandledExceptionFilter@4 1008c00c     kernel32:KERNEL32.dll
 0004:00000010       __imp__GetCurrentProcess@0 1008c010     kernel32:KERNEL32.dll
 0004:00000014       __imp__TerminateProcess@8  1008c014     kernel32:KERNEL32.dll
 0004:00000018       __imp__IsProcessorFeaturePresent@4 1008c018     kernel32:KERNEL32.dll
 0004:0000001c       __imp__QueryPerformanceCounter@4 1008c01c     kernel32:KERNEL32.dll
 0004:00000020       __imp__GetCurrentProcessId@0 1008c020     kernel32:KERNEL32.dll
 0004:00000024       __imp__GetCurrentThreadId@0 1008c024     kernel32:KERNEL32.dll
 0004:00000028       __imp__GetSystemTimeAsFileTime@4 1008c028     kernel32:KERNEL32.dll
 0004:0000002c       __imp__InitializeSListHead@4 1008c02c     kernel32:KERNEL32.dll
 0004:00000030       __imp__IsDebuggerPresent@0 1008c030     kernel32:KERNEL32.dll
 0004:00000034       __imp__GetStartupInfoW@4   1008c034     kernel32:KERNEL32.dll
 0004:00000038       __imp__GetModuleHandleW@4  1008c038     kernel32:KERNEL32.dll
 0004:0000003c       __imp__InterlockedPushEntrySList@8 1008c03c     kernel32:KERNEL32.dll
 0004:00000040       __imp__InterlockedFlushSList@4 1008c040     kernel32:KERNEL32.dll
 0004:00000044       __imp__RtlUnwind@16        1008c044     kernel32:KERNEL32.dll
 0004:00000048       __imp__GetLastError@0      1008c048     kernel32:KERNEL32.dll
 0004:0000004c       __imp__SetLastError@4      1008c04c     kernel32:KERNEL32.dll
 0004:00000050       __imp__EnterCriticalSection@4 1008c050     kernel32:KERNEL32.dll
 0004:00000054       __imp__LeaveCriticalSection@4 1008c054     kernel32:KERNEL32.dll
 0004:00000058       __imp__DeleteCriticalSection@4 1008c058     kernel32:KERNEL32.dll
 0004:0000005c       __imp__InitializeCriticalSectionAndSpinCount@8 1008c05c     kernel32:KERNEL32.dll
 0004:00000060       __imp__TlsAlloc@0          1008c060     kernel32:KERNEL32.dll
 0004:00000064       __imp__TlsGetValue@4       1008c064     kernel32:KERNEL32.dll
 0004:00000068       __imp__TlsSetValue@8       1008c068     kernel32:KERNEL32.dll
 0004:0000006c       __imp__TlsFree@4           1008c06c     kernel32:KERNEL32.dll
 0004:00000070       __imp__FreeLibrary@4       1008c070     kernel32:KERNEL32.dll
 0004:00000074       __imp__LoadLibraryExW@12   1008c074     kernel32:KERNEL32.dll
 0004:00000078       __imp__ExitProcess@4       1008c078     kernel32:KERNEL32.dll
 0004:0000007c       __imp__GetModuleHandleExW@12 1008c07c     kernel32:KERNEL32.dll
 0004:00000080       __imp__GetStdHandle@4      1008c080     kernel32:KERNEL32.dll
 0004:00000084       __imp__GetFileType@4       1008c084     kernel32:KERNEL32.dll
 0004:00000088       __imp__GetModuleFileNameA@12 1008c088     kernel32:KERNEL32.dll
 0004:0000008c       __imp__GetModuleFileNameW@12 1008c08c     kernel32:KERNEL32.dll
 0004:00000090       __imp__WriteConsoleW@20    1008c090     kernel32:KERNEL32.dll
 0004:00000094       __imp__RaiseException@16   1008c094     kernel32:KERNEL32.dll
 0004:00000098       __imp__MultiByteToWideChar@24 1008c098     kernel32:KERNEL32.dll
 0004:0000009c       __imp__WideCharToMultiByte@32 1008c09c     kernel32:KERNEL32.dll
 0004:000000a0       __imp__HeapFree@12         1008c0a0     kernel32:KERNEL32.dll
 0004:000000a4       __imp__HeapAlloc@12        1008c0a4     kernel32:KERNEL32.dll
 0004:000000a8       __imp__GetDateFormatW@24   1008c0a8     kernel32:KERNEL32.dll
 0004:000000ac       __imp__GetTimeFormatW@24   1008c0ac     kernel32:KERNEL32.dll
 0004:000000b0       __imp__CompareStringW@24   1008c0b0     kernel32:KERNEL32.dll
 0004:000000b4       __imp__LCMapStringW@24     1008c0b4     kernel32:KERNEL32.dll
 0004:000000b8       __imp__GetLocaleInfoW@16   1008c0b8     kernel32:KERNEL32.dll
 0004:000000bc       __imp__IsValidLocale@8     1008c0bc     kernel32:KERNEL32.dll
 0004:000000c0       __imp__GetUserDefaultLCID@0 1008c0c0     kernel32:KERNEL32.dll
 0004:000000c4       __imp__EnumSystemLocalesW@8 1008c0c4     kernel32:KERNEL32.dll
 0004:000000c8       __imp__GetCurrentThread@0  1008c0c8     kernel32:KERNEL32.dll
 0004:000000cc       __imp__GetACP@0            1008c0cc     kernel32:KERNEL32.dll
 0004:000000d0       __imp__HeapReAlloc@16      1008c0d0     kernel32:KERNEL32.dll
 0004:000000d4       __imp__CloseHandle@4       1008c0d4     kernel32:KERNEL32.dll
 0004:000000d8       __imp__ReadFile@20         1008c0d8     kernel32:KERNEL32.dll
 0004:000000dc       __imp__GetConsoleMode@8    1008c0dc     kernel32:KERNEL32.dll
 0004:000000e0       __imp__ReadConsoleW@20     1008c0e0     kernel32:KERNEL32.dll
 0004:000000e4       __imp__WriteFile@20        1008c0e4     kernel32:KERNEL32.dll
 0004:000000e8       __imp__GetConsoleCP@0      1008c0e8     kernel32:KERNEL32.dll
 0004:000000ec       __imp__DeleteFileW@4       1008c0ec     kernel32:KERNEL32.dll
 0004:000000f0       __imp__SetFilePointerEx@20 1008c0f0     kernel32:KERNEL32.dll
 0004:000000f4       __imp__OutputDebugStringA@4 1008c0f4     kernel32:KERNEL32.dll
 0004:000000f8       __imp__OutputDebugStringW@4 1008c0f8     kernel32:KERNEL32.dll
 0004:000000fc       __imp__WaitForSingleObjectEx@12 1008c0fc     kernel32:KERNEL32.dll
 0004:00000100       __imp__CreateThread@24     1008c100     kernel32:KERNEL32.dll
 0004:00000104       __imp__SetConsoleCtrlHandler@8 1008c104     kernel32:KERNEL32.dll
 0004:00000108       __imp__FindClose@4         1008c108     kernel32:KERNEL32.dll
 0004:0000010c       __imp__FindFirstFileExA@24 1008c10c     kernel32:KERNEL32.dll
 0004:00000110       __imp__FindFirstFileExW@24 1008c110     kernel32:KERNEL32.dll
 0004:00000114       __imp__FindNextFileA@8     1008c114     kernel32:KERNEL32.dll
 0004:00000118       __imp__FindNextFileW@8     1008c118     kernel32:KERNEL32.dll
 0004:0000011c       __imp__IsValidCodePage@4   1008c11c     kernel32:KERNEL32.dll
 0004:00000120       __imp__GetOEMCP@0          1008c120     kernel32:KERNEL32.dll
 0004:00000124       __imp__GetCPInfo@8         1008c124     kernel32:KERNEL32.dll
 0004:00000128       __imp__GetCommandLineA@0   1008c128     kernel32:KERNEL32.dll
 0004:0000012c       __imp__GetCommandLineW@0   1008c12c     kernel32:KERNEL32.dll
 0004:00000130       __imp__GetEnvironmentStringsW@0 1008c130     kernel32:KERNEL32.dll
 0004:00000134       __imp__FreeEnvironmentStringsW@4 1008c134     kernel32:KERNEL32.dll
 0004:00000138       __imp__SetEnvironmentVariableA@8 1008c138     kernel32:KERNEL32.dll
 0004:0000013c       __imp__SetEnvironmentVariableW@8 1008c13c     kernel32:KERNEL32.dll
 0004:00000140       __imp__GetProcessHeap@0    1008c140     kernel32:KERNEL32.dll
 0004:00000144       __imp__GetStringTypeW@16   1008c144     kernel32:KERNEL32.dll
 0004:00000148       __imp__FlushFileBuffers@4  1008c148     kernel32:KERNEL32.dll
 0004:0000014c       __imp__SetStdHandle@8      1008c14c     kernel32:KERNEL32.dll
 0004:00000150       __imp__CreateFileW@28      1008c150     kernel32:KERNEL32.dll
 0004:00000154       __imp__HeapSize@12         1008c154     kernel32:KERNEL32.dll
 0004:00000158       __imp__SetEndOfFile@4      1008c158     kernel32:KERNEL32.dll
 0004:0000015c       __imp__EncodePointer@4     1008c15c     kernel32:KERNEL32.dll
 0004:00000160       __imp__DecodePointer@4     1008c160     kernel32:KERNEL32.dll
 0004:00000164       \177KERNEL32_NULL_THUNK_DATA 1008c164     kernel32:KERNEL32.dll
 0004:000001d4       __IMPORT_DESCRIPTOR_KERNEL32 1008c1d4     kernel32:KERNEL32.dll
 0004:000001e8       __NULL_IMPORT_DESCRIPTOR   1008c1e8     kernel32:KERNEL32.dll
 0006:00000000       ___guard_check_icall_fptr  1008e000     LIBCMT:guard_support.obj
